
build/ml:     file format elf64-x86-64


Disassembly of section .init:

0000000000004000 <_init>:
    4000:	48 83 ec 08          	sub    $0x8,%rsp
    4004:	48 8b 05 bd 3f 03 00 	mov    0x33fbd(%rip),%rax        # 37fc8 <__gmon_start__@Base>
    400b:	48 85 c0             	test   %rax,%rax
    400e:	74 02                	je     4012 <_init+0x12>
    4010:	ff d0                	call   *%rax
    4012:	48 83 c4 08          	add    $0x8,%rsp
    4016:	c3                   	ret

Disassembly of section .plt:

0000000000004020 <_Znam@plt-0x10>:
    4020:	ff 35 ca 3f 03 00    	push   0x33fca(%rip)        # 37ff0 <_GLOBAL_OFFSET_TABLE_+0x8>
    4026:	ff 25 cc 3f 03 00    	jmp    *0x33fcc(%rip)        # 37ff8 <_GLOBAL_OFFSET_TABLE_+0x10>
    402c:	0f 1f 40 00          	nopl   0x0(%rax)

0000000000004030 <_Znam@plt>:
    4030:	ff 25 ca 3f 03 00    	jmp    *0x33fca(%rip)        # 38000 <_Znam@GLIBCXX_3.4>
    4036:	68 00 00 00 00       	push   $0x0
    403b:	e9 e0 ff ff ff       	jmp    4020 <_init+0x20>

0000000000004040 <_ZNSo3putEc@plt>:
    4040:	ff 25 c2 3f 03 00    	jmp    *0x33fc2(%rip)        # 38008 <_ZNSo3putEc@GLIBCXX_3.4>
    4046:	68 01 00 00 00       	push   $0x1
    404b:	e9 d0 ff ff ff       	jmp    4020 <_init+0x20>

0000000000004050 <printf@plt>:
    4050:	ff 25 ba 3f 03 00    	jmp    *0x33fba(%rip)        # 38010 <printf@GLIBC_2.2.5>
    4056:	68 02 00 00 00       	push   $0x2
    405b:	e9 c0 ff ff ff       	jmp    4020 <_init+0x20>

0000000000004060 <_ZNSt13basic_filebufIcSt11char_traitsIcEE5closeEv@plt>:
    4060:	ff 25 b2 3f 03 00    	jmp    *0x33fb2(%rip)        # 38018 <_ZNSt13basic_filebufIcSt11char_traitsIcEE5closeEv@GLIBCXX_3.4>
    4066:	68 03 00 00 00       	push   $0x3
    406b:	e9 b0 ff ff ff       	jmp    4020 <_init+0x20>

0000000000004070 <_ZNKSt12__basic_fileIcE7is_openEv@plt>:
    4070:	ff 25 aa 3f 03 00    	jmp    *0x33faa(%rip)        # 38020 <_ZNKSt12__basic_fileIcE7is_openEv@GLIBCXX_3.4>
    4076:	68 04 00 00 00       	push   $0x4
    407b:	e9 a0 ff ff ff       	jmp    4020 <_init+0x20>

0000000000004080 <_ZNSt7__cxx1112basic_stringIcSt11char_traitsIcESaIcEE6insertEmPKc@plt>:
    4080:	ff 25 a2 3f 03 00    	jmp    *0x33fa2(%rip)        # 38028 <_ZNSt7__cxx1112basic_stringIcSt11char_traitsIcESaIcEE6insertEmPKc@GLIBCXX_3.4.21>
    4086:	68 05 00 00 00       	push   $0x5
    408b:	e9 90 ff ff ff       	jmp    4020 <_init+0x20>

0000000000004090 <_ZNSt14basic_ifstreamIcSt11char_traitsIcEED1Ev@plt>:
    4090:	ff 25 9a 3f 03 00    	jmp    *0x33f9a(%rip)        # 38030 <_ZNSt14basic_ifstreamIcSt11char_traitsIcEED1Ev@GLIBCXX_3.4>
    4096:	68 06 00 00 00       	push   $0x6
    409b:	e9 80 ff ff ff       	jmp    4020 <_init+0x20>

00000000000040a0 <_ZSt9terminatev@plt>:
    40a0:	ff 25 92 3f 03 00    	jmp    *0x33f92(%rip)        # 38038 <_ZSt9terminatev@GLIBCXX_3.4>
    40a6:	68 07 00 00 00       	push   $0x7
    40ab:	e9 70 ff ff ff       	jmp    4020 <_init+0x20>

00000000000040b0 <_ZNKSt7__cxx1112basic_stringIcSt11char_traitsIcESaIcEE7compareEPKc@plt>:
    40b0:	ff 25 8a 3f 03 00    	jmp    *0x33f8a(%rip)        # 38040 <_ZNKSt7__cxx1112basic_stringIcSt11char_traitsIcESaIcEE7compareEPKc@GLIBCXX_3.4.21>
    40b6:	68 08 00 00 00       	push   $0x8
    40bb:	e9 60 ff ff ff       	jmp    4020 <_init+0x20>

00000000000040c0 <_ZNSt8ios_baseC2Ev@plt>:
    40c0:	ff 25 82 3f 03 00    	jmp    *0x33f82(%rip)        # 38048 <_ZNSt8ios_baseC2Ev@GLIBCXX_3.4>
    40c6:	68 09 00 00 00       	push   $0x9
    40cb:	e9 50 ff ff ff       	jmp    4020 <_init+0x20>

00000000000040d0 <_ZNSt7__cxx1112basic_stringIcSt11char_traitsIcESaIcEE9_M_appendEPKcm@plt>:
    40d0:	ff 25 7a 3f 03 00    	jmp    *0x33f7a(%rip)        # 38050 <_ZNSt7__cxx1112basic_stringIcSt11char_traitsIcESaIcEE9_M_appendEPKcm@GLIBCXX_3.4.21>
    40d6:	68 0a 00 00 00       	push   $0xa
    40db:	e9 40 ff ff ff       	jmp    4020 <_init+0x20>

00000000000040e0 <_ZNSt8ios_baseD2Ev@plt>:
    40e0:	ff 25 72 3f 03 00    	jmp    *0x33f72(%rip)        # 38058 <_ZNSt8ios_baseD2Ev@GLIBCXX_3.4>
    40e6:	68 0b 00 00 00       	push   $0xb
    40eb:	e9 30 ff ff ff       	jmp    4020 <_init+0x20>

00000000000040f0 <_ZSt17__throw_bad_allocv@plt>:
    40f0:	ff 25 6a 3f 03 00    	jmp    *0x33f6a(%rip)        # 38060 <_ZSt17__throw_bad_allocv@GLIBCXX_3.4>
    40f6:	68 0c 00 00 00       	push   $0xc
    40fb:	e9 20 ff ff ff       	jmp    4020 <_init+0x20>

0000000000004100 <_ZNSt13runtime_errorC1EPKc@plt>:
    4100:	ff 25 62 3f 03 00    	jmp    *0x33f62(%rip)        # 38068 <_ZNSt13runtime_errorC1EPKc@GLIBCXX_3.4.21>
    4106:	68 0d 00 00 00       	push   $0xd
    410b:	e9 10 ff ff ff       	jmp    4020 <_init+0x20>

0000000000004110 <__cxa_begin_catch@plt>:
    4110:	ff 25 5a 3f 03 00    	jmp    *0x33f5a(%rip)        # 38070 <__cxa_begin_catch@CXXABI_1.3>
    4116:	68 0e 00 00 00       	push   $0xe
    411b:	e9 00 ff ff ff       	jmp    4020 <_init+0x20>

0000000000004120 <strlen@plt>:
    4120:	ff 25 52 3f 03 00    	jmp    *0x33f52(%rip)        # 38078 <strlen@GLIBC_2.2.5>
    4126:	68 0f 00 00 00       	push   $0xf
    412b:	e9 f0 fe ff ff       	jmp    4020 <_init+0x20>

0000000000004130 <_ZNSt6thread6_StateD2Ev@plt>:
    4130:	ff 25 4a 3f 03 00    	jmp    *0x33f4a(%rip)        # 38080 <_ZNSt6thread6_StateD2Ev@GLIBCXX_3.4.22>
    4136:	68 10 00 00 00       	push   $0x10
    413b:	e9 e0 fe ff ff       	jmp    4020 <_init+0x20>

0000000000004140 <_ZSt4endlIcSt11char_traitsIcEERSt13basic_ostreamIT_T0_ES6_@plt>:
    4140:	ff 25 42 3f 03 00    	jmp    *0x33f42(%rip)        # 38088 <_ZSt4endlIcSt11char_traitsIcEERSt13basic_ostreamIT_T0_ES6_@GLIBCXX_3.4>
    4146:	68 11 00 00 00       	push   $0x11
    414b:	e9 d0 fe ff ff       	jmp    4020 <_init+0x20>

0000000000004150 <__cxa_allocate_exception@plt>:
    4150:	ff 25 3a 3f 03 00    	jmp    *0x33f3a(%rip)        # 38090 <__cxa_allocate_exception@CXXABI_1.3>
    4156:	68 12 00 00 00       	push   $0x12
    415b:	e9 c0 fe ff ff       	jmp    4020 <_init+0x20>

0000000000004160 <_ZSt20__throw_length_errorPKc@plt>:
    4160:	ff 25 32 3f 03 00    	jmp    *0x33f32(%rip)        # 38098 <_ZSt20__throw_length_errorPKc@GLIBCXX_3.4>
    4166:	68 13 00 00 00       	push   $0x13
    416b:	e9 b0 fe ff ff       	jmp    4020 <_init+0x20>

0000000000004170 <_ZNSt7__cxx1112basic_stringIcSt11char_traitsIcESaIcEE9_M_assignERKS4_@plt>:
    4170:	ff 25 2a 3f 03 00    	jmp    *0x33f2a(%rip)        # 380a0 <_ZNSt7__cxx1112basic_stringIcSt11char_traitsIcESaIcEE9_M_assignERKS4_@GLIBCXX_3.4.21>
    4176:	68 14 00 00 00       	push   $0x14
    417b:	e9 a0 fe ff ff       	jmp    4020 <_init+0x20>

0000000000004180 <memset@plt>:
    4180:	ff 25 22 3f 03 00    	jmp    *0x33f22(%rip)        # 380a8 <memset@GLIBC_2.2.5>
    4186:	68 15 00 00 00       	push   $0x15
    418b:	e9 90 fe ff ff       	jmp    4020 <_init+0x20>

0000000000004190 <_ZNSt7__cxx1112basic_stringIcSt11char_traitsIcESaIcEEC1EOS4_@plt>:
    4190:	ff 25 1a 3f 03 00    	jmp    *0x33f1a(%rip)        # 380b0 <_ZNSt7__cxx1112basic_stringIcSt11char_traitsIcESaIcEEC1EOS4_@GLIBCXX_3.4.21>
    4196:	68 16 00 00 00       	push   $0x16
    419b:	e9 80 fe ff ff       	jmp    4020 <_init+0x20>

00000000000041a0 <__assert_fail@plt>:
    41a0:	ff 25 12 3f 03 00    	jmp    *0x33f12(%rip)        # 380b8 <__assert_fail@GLIBC_2.2.5>
    41a6:	68 17 00 00 00       	push   $0x17
    41ab:	e9 70 fe ff ff       	jmp    4020 <_init+0x20>

00000000000041b0 <_ZNSo9_M_insertImEERSoT_@plt>:
    41b0:	ff 25 0a 3f 03 00    	jmp    *0x33f0a(%rip)        # 380c0 <_ZNSo9_M_insertImEERSoT_@GLIBCXX_3.4.9>
    41b6:	68 18 00 00 00       	push   $0x18
    41bb:	e9 60 fe ff ff       	jmp    4020 <_init+0x20>

00000000000041c0 <_ZNSo5flushEv@plt>:
    41c0:	ff 25 02 3f 03 00    	jmp    *0x33f02(%rip)        # 380c8 <_ZNSo5flushEv@GLIBCXX_3.4>
    41c6:	68 19 00 00 00       	push   $0x19
    41cb:	e9 50 fe ff ff       	jmp    4020 <_init+0x20>

00000000000041d0 <_ZSt19__throw_logic_errorPKc@plt>:
    41d0:	ff 25 fa 3e 03 00    	jmp    *0x33efa(%rip)        # 380d0 <_ZSt19__throw_logic_errorPKc@GLIBCXX_3.4>
    41d6:	68 1a 00 00 00       	push   $0x1a
    41db:	e9 40 fe ff ff       	jmp    4020 <_init+0x20>

00000000000041e0 <__cxa_free_exception@plt>:
    41e0:	ff 25 f2 3e 03 00    	jmp    *0x33ef2(%rip)        # 380d8 <__cxa_free_exception@CXXABI_1.3>
    41e6:	68 1b 00 00 00       	push   $0x1b
    41eb:	e9 30 fe ff ff       	jmp    4020 <_init+0x20>

00000000000041f0 <_ZNSt7__cxx1118basic_stringstreamIcSt11char_traitsIcESaIcEED1Ev@plt>:
    41f0:	ff 25 ea 3e 03 00    	jmp    *0x33eea(%rip)        # 380e0 <_ZNSt7__cxx1118basic_stringstreamIcSt11char_traitsIcESaIcEED1Ev@GLIBCXX_3.4.21>
    41f6:	68 1c 00 00 00       	push   $0x1c
    41fb:	e9 20 fe ff ff       	jmp    4020 <_init+0x20>

0000000000004200 <_ZSt28__throw_bad_array_new_lengthv@plt>:
    4200:	ff 25 e2 3e 03 00    	jmp    *0x33ee2(%rip)        # 380e8 <_ZSt28__throw_bad_array_new_lengthv@GLIBCXX_3.4.29>
    4206:	68 1d 00 00 00       	push   $0x1d
    420b:	e9 10 fe ff ff       	jmp    4020 <_init+0x20>

0000000000004210 <memcpy@plt>:
    4210:	ff 25 da 3e 03 00    	jmp    *0x33eda(%rip)        # 380f0 <memcpy@GLIBC_2.14>
    4216:	68 1e 00 00 00       	push   $0x1e
    421b:	e9 00 fe ff ff       	jmp    4020 <_init+0x20>

0000000000004220 <__cxa_atexit@plt>:
    4220:	ff 25 d2 3e 03 00    	jmp    *0x33ed2(%rip)        # 380f8 <__cxa_atexit@GLIBC_2.2.5>
    4226:	68 1f 00 00 00       	push   $0x1f
    422b:	e9 f0 fd ff ff       	jmp    4020 <_init+0x20>

0000000000004230 <_ZNSt13basic_filebufIcSt11char_traitsIcEE4openEPKcSt13_Ios_Openmode@plt>:
    4230:	ff 25 ca 3e 03 00    	jmp    *0x33eca(%rip)        # 38100 <_ZNSt13basic_filebufIcSt11char_traitsIcEE4openEPKcSt13_Ios_Openmode@GLIBCXX_3.4>
    4236:	68 20 00 00 00       	push   $0x20
    423b:	e9 e0 fd ff ff       	jmp    4020 <_init+0x20>

0000000000004240 <_ZNSt6thread15_M_start_threadESt10unique_ptrINS_6_StateESt14default_deleteIS1_EEPFvvE@plt>:
    4240:	ff 25 c2 3e 03 00    	jmp    *0x33ec2(%rip)        # 38108 <_ZNSt6thread15_M_start_threadESt10unique_ptrINS_6_StateESt14default_deleteIS1_EEPFvvE@GLIBCXX_3.4.22>
    4246:	68 21 00 00 00       	push   $0x21
    424b:	e9 d0 fd ff ff       	jmp    4020 <_init+0x20>

0000000000004250 <_ZdlPv@plt>:
    4250:	ff 25 ba 3e 03 00    	jmp    *0x33eba(%rip)        # 38110 <_ZdlPv@GLIBCXX_3.4>
    4256:	68 22 00 00 00       	push   $0x22
    425b:	e9 c0 fd ff ff       	jmp    4020 <_init+0x20>

0000000000004260 <_ZStlsISt11char_traitsIcEERSt13basic_ostreamIcT_ES5_PKc@plt>:
    4260:	ff 25 b2 3e 03 00    	jmp    *0x33eb2(%rip)        # 38118 <_ZStlsISt11char_traitsIcEERSt13basic_ostreamIcT_ES5_PKc@GLIBCXX_3.4>
    4266:	68 23 00 00 00       	push   $0x23
    426b:	e9 b0 fd ff ff       	jmp    4020 <_init+0x20>

0000000000004270 <_Znwm@plt>:
    4270:	ff 25 aa 3e 03 00    	jmp    *0x33eaa(%rip)        # 38120 <_Znwm@GLIBCXX_3.4>
    4276:	68 24 00 00 00       	push   $0x24
    427b:	e9 a0 fd ff ff       	jmp    4020 <_init+0x20>

0000000000004280 <_ZNSt13basic_filebufIcSt11char_traitsIcEEC1Ev@plt>:
    4280:	ff 25 a2 3e 03 00    	jmp    *0x33ea2(%rip)        # 38128 <_ZNSt13basic_filebufIcSt11char_traitsIcEEC1Ev@GLIBCXX_3.4>
    4286:	68 25 00 00 00       	push   $0x25
    428b:	e9 90 fd ff ff       	jmp    4020 <_init+0x20>

0000000000004290 <__dynamic_cast@plt>:
    4290:	ff 25 9a 3e 03 00    	jmp    *0x33e9a(%rip)        # 38130 <__dynamic_cast@CXXABI_1.3>
    4296:	68 26 00 00 00       	push   $0x26
    429b:	e9 80 fd ff ff       	jmp    4020 <_init+0x20>

00000000000042a0 <_ZSt16__ostream_insertIcSt11char_traitsIcEERSt13basic_ostreamIT_T0_ES6_PKS3_l@plt>:
    42a0:	ff 25 92 3e 03 00    	jmp    *0x33e92(%rip)        # 38138 <_ZSt16__ostream_insertIcSt11char_traitsIcEERSt13basic_ostreamIT_T0_ES6_PKS3_l@GLIBCXX_3.4.9>
    42a6:	68 27 00 00 00       	push   $0x27
    42ab:	e9 70 fd ff ff       	jmp    4020 <_init+0x20>

00000000000042b0 <_ZNKSt5ctypeIcE13_M_widen_initEv@plt>:
    42b0:	ff 25 8a 3e 03 00    	jmp    *0x33e8a(%rip)        # 38140 <_ZNKSt5ctypeIcE13_M_widen_initEv@GLIBCXX_3.4.11>
    42b6:	68 28 00 00 00       	push   $0x28
    42bb:	e9 60 fd ff ff       	jmp    4020 <_init+0x20>

00000000000042c0 <_ZNSt7__cxx1112basic_stringIcSt11char_traitsIcESaIcEE12_M_constructEmc@plt>:
    42c0:	ff 25 82 3e 03 00    	jmp    *0x33e82(%rip)        # 38148 <_ZNSt7__cxx1112basic_stringIcSt11char_traitsIcESaIcEE12_M_constructEmc@GLIBCXX_3.4.21>
    42c6:	68 29 00 00 00       	push   $0x29
    42cb:	e9 50 fd ff ff       	jmp    4020 <_init+0x20>

00000000000042d0 <_ZNSi4readEPcl@plt>:
    42d0:	ff 25 7a 3e 03 00    	jmp    *0x33e7a(%rip)        # 38150 <_ZNSi4readEPcl@GLIBCXX_3.4>
    42d6:	68 2a 00 00 00       	push   $0x2a
    42db:	e9 40 fd ff ff       	jmp    4020 <_init+0x20>

00000000000042e0 <_ZSt16__throw_bad_castv@plt>:
    42e0:	ff 25 72 3e 03 00    	jmp    *0x33e72(%rip)        # 38158 <_ZSt16__throw_bad_castv@GLIBCXX_3.4>
    42e6:	68 2b 00 00 00       	push   $0x2b
    42eb:	e9 30 fd ff ff       	jmp    4020 <_init+0x20>

00000000000042f0 <_ZdaPv@plt>:
    42f0:	ff 25 6a 3e 03 00    	jmp    *0x33e6a(%rip)        # 38160 <_ZdaPv@GLIBCXX_3.4>
    42f6:	68 2c 00 00 00       	push   $0x2c
    42fb:	e9 20 fd ff ff       	jmp    4020 <_init+0x20>

0000000000004300 <_ZNSt6chrono3_V212steady_clock3nowEv@plt>:
    4300:	ff 25 62 3e 03 00    	jmp    *0x33e62(%rip)        # 38168 <_ZNSt6chrono3_V212steady_clock3nowEv@GLIBCXX_3.4.19>
    4306:	68 2d 00 00 00       	push   $0x2d
    430b:	e9 10 fd ff ff       	jmp    4020 <_init+0x20>

0000000000004310 <_ZNSt9basic_iosIcSt11char_traitsIcEE4initEPSt15basic_streambufIcS1_E@plt>:
    4310:	ff 25 5a 3e 03 00    	jmp    *0x33e5a(%rip)        # 38170 <_ZNSt9basic_iosIcSt11char_traitsIcEE4initEPSt15basic_streambufIcS1_E@GLIBCXX_3.4>
    4316:	68 2e 00 00 00       	push   $0x2e
    431b:	e9 00 fd ff ff       	jmp    4020 <_init+0x20>

0000000000004320 <putchar@plt>:
    4320:	ff 25 52 3e 03 00    	jmp    *0x33e52(%rip)        # 38178 <putchar@GLIBC_2.2.5>
    4326:	68 2f 00 00 00       	push   $0x2f
    432b:	e9 f0 fc ff ff       	jmp    4020 <_init+0x20>

0000000000004330 <_ZNSt6localeD1Ev@plt>:
    4330:	ff 25 4a 3e 03 00    	jmp    *0x33e4a(%rip)        # 38180 <_ZNSt6localeD1Ev@GLIBCXX_3.4>
    4336:	68 30 00 00 00       	push   $0x30
    433b:	e9 e0 fc ff ff       	jmp    4020 <_init+0x20>

0000000000004340 <__cxa_throw_bad_array_new_length@plt>:
    4340:	ff 25 42 3e 03 00    	jmp    *0x33e42(%rip)        # 38188 <__cxa_throw_bad_array_new_length@CXXABI_1.3.8>
    4346:	68 31 00 00 00       	push   $0x31
    434b:	e9 d0 fc ff ff       	jmp    4020 <_init+0x20>

0000000000004350 <__cxa_rethrow@plt>:
    4350:	ff 25 3a 3e 03 00    	jmp    *0x33e3a(%rip)        # 38190 <__cxa_rethrow@CXXABI_1.3>
    4356:	68 32 00 00 00       	push   $0x32
    435b:	e9 c0 fc ff ff       	jmp    4020 <_init+0x20>

0000000000004360 <_ZNSt8ios_base4InitC1Ev@plt>:
    4360:	ff 25 32 3e 03 00    	jmp    *0x33e32(%rip)        # 38198 <_ZNSt8ios_base4InitC1Ev@GLIBCXX_3.4>
    4366:	68 33 00 00 00       	push   $0x33
    436b:	e9 b0 fc ff ff       	jmp    4020 <_init+0x20>

0000000000004370 <puts@plt>:
    4370:	ff 25 2a 3e 03 00    	jmp    *0x33e2a(%rip)        # 381a0 <puts@GLIBC_2.2.5>
    4376:	68 34 00 00 00       	push   $0x34
    437b:	e9 a0 fc ff ff       	jmp    4020 <_init+0x20>

0000000000004380 <_ZNSt7__cxx1112basic_stringIcSt11char_traitsIcESaIcEE10_M_replaceEmmPKcm@plt>:
    4380:	ff 25 22 3e 03 00    	jmp    *0x33e22(%rip)        # 381a8 <_ZNSt7__cxx1112basic_stringIcSt11char_traitsIcESaIcEE10_M_replaceEmmPKcm@GLIBCXX_3.4.21>
    4386:	68 35 00 00 00       	push   $0x35
    438b:	e9 90 fc ff ff       	jmp    4020 <_init+0x20>

0000000000004390 <_ZNSt13basic_filebufIcSt11char_traitsIcEED1Ev@plt>:
    4390:	ff 25 1a 3e 03 00    	jmp    *0x33e1a(%rip)        # 381b0 <_ZNSt13basic_filebufIcSt11char_traitsIcEED1Ev@GLIBCXX_3.4>
    4396:	68 36 00 00 00       	push   $0x36
    439b:	e9 80 fc ff ff       	jmp    4020 <_init+0x20>

00000000000043a0 <_ZNSt7__cxx1112basic_stringIcSt11char_traitsIcESaIcEE7reserveEm@plt>:
    43a0:	ff 25 12 3e 03 00    	jmp    *0x33e12(%rip)        # 381b8 <_ZNSt7__cxx1112basic_stringIcSt11char_traitsIcESaIcEE7reserveEm@GLIBCXX_3.4.21>
    43a6:	68 37 00 00 00       	push   $0x37
    43ab:	e9 70 fc ff ff       	jmp    4020 <_init+0x20>

00000000000043b0 <_ZNSo9_M_insertIdEERSoT_@plt>:
    43b0:	ff 25 0a 3e 03 00    	jmp    *0x33e0a(%rip)        # 381c0 <_ZNSo9_M_insertIdEERSoT_@GLIBCXX_3.4.9>
    43b6:	68 38 00 00 00       	push   $0x38
    43bb:	e9 60 fc ff ff       	jmp    4020 <_init+0x20>

00000000000043c0 <_ZNSt13runtime_errorC1ERKNSt7__cxx1112basic_stringIcSt11char_traitsIcESaIcEEE@plt>:
    43c0:	ff 25 02 3e 03 00    	jmp    *0x33e02(%rip)        # 381c8 <_ZNSt13runtime_errorC1ERKNSt7__cxx1112basic_stringIcSt11char_traitsIcESaIcEEE@GLIBCXX_3.4.21>
    43c6:	68 39 00 00 00       	push   $0x39
    43cb:	e9 50 fc ff ff       	jmp    4020 <_init+0x20>

00000000000043d0 <memmove@plt>:
    43d0:	ff 25 fa 3d 03 00    	jmp    *0x33dfa(%rip)        # 381d0 <memmove@GLIBC_2.2.5>
    43d6:	68 3a 00 00 00       	push   $0x3a
    43db:	e9 40 fc ff ff       	jmp    4020 <_init+0x20>

00000000000043e0 <__cxa_end_catch@plt>:
    43e0:	ff 25 f2 3d 03 00    	jmp    *0x33df2(%rip)        # 381d8 <__cxa_end_catch@CXXABI_1.3>
    43e6:	68 3b 00 00 00       	push   $0x3b
    43eb:	e9 30 fc ff ff       	jmp    4020 <_init+0x20>

00000000000043f0 <_ZNSo9_M_insertIbEERSoT_@plt>:
    43f0:	ff 25 ea 3d 03 00    	jmp    *0x33dea(%rip)        # 381e0 <_ZNSo9_M_insertIbEERSoT_@GLIBCXX_3.4.9>
    43f6:	68 3c 00 00 00       	push   $0x3c
    43fb:	e9 20 fc ff ff       	jmp    4020 <_init+0x20>

0000000000004400 <expf@plt>:
    4400:	ff 25 e2 3d 03 00    	jmp    *0x33de2(%rip)        # 381e8 <expf@GLIBC_2.27>
    4406:	68 3d 00 00 00       	push   $0x3d
    440b:	e9 10 fc ff ff       	jmp    4020 <_init+0x20>

0000000000004410 <_ZNSt9basic_iosIcSt11char_traitsIcEE5clearESt12_Ios_Iostate@plt>:
    4410:	ff 25 da 3d 03 00    	jmp    *0x33dda(%rip)        # 381f0 <_ZNSt9basic_iosIcSt11char_traitsIcEE5clearESt12_Ios_Iostate@GLIBCXX_3.4>
    4416:	68 3e 00 00 00       	push   $0x3e
    441b:	e9 00 fc ff ff       	jmp    4020 <_init+0x20>

0000000000004420 <_ZNSt6thread4joinEv@plt>:
    4420:	ff 25 d2 3d 03 00    	jmp    *0x33dd2(%rip)        # 381f8 <_ZNSt6thread4joinEv@GLIBCXX_3.4.11>
    4426:	68 3f 00 00 00       	push   $0x3f
    442b:	e9 f0 fb ff ff       	jmp    4020 <_init+0x20>

0000000000004430 <__cxa_throw@plt>:
    4430:	ff 25 ca 3d 03 00    	jmp    *0x33dca(%rip)        # 38200 <__cxa_throw@CXXABI_1.3>
    4436:	68 40 00 00 00       	push   $0x40
    443b:	e9 e0 fb ff ff       	jmp    4020 <_init+0x20>

0000000000004440 <_ZNSolsEi@plt>:
    4440:	ff 25 c2 3d 03 00    	jmp    *0x33dc2(%rip)        # 38208 <_ZNSolsEi@GLIBCXX_3.4>
    4446:	68 41 00 00 00       	push   $0x41
    444b:	e9 d0 fb ff ff       	jmp    4020 <_init+0x20>

0000000000004450 <_Unwind_Resume@plt>:
    4450:	ff 25 ba 3d 03 00    	jmp    *0x33dba(%rip)        # 38210 <_Unwind_Resume@GCC_3.0>
    4456:	68 42 00 00 00       	push   $0x42
    445b:	e9 c0 fb ff ff       	jmp    4020 <_init+0x20>

0000000000004460 <_ZNSt7__cxx1112basic_stringIcSt11char_traitsIcESaIcEE9_M_createERmm@plt>:
    4460:	ff 25 b2 3d 03 00    	jmp    *0x33db2(%rip)        # 38218 <_ZNSt7__cxx1112basic_stringIcSt11char_traitsIcESaIcEE9_M_createERmm@GLIBCXX_3.4.21>
    4466:	68 43 00 00 00       	push   $0x43
    446b:	e9 b0 fb ff ff       	jmp    4020 <_init+0x20>

0000000000004470 <_ZNSt12__basic_fileIcED1Ev@plt>:
    4470:	ff 25 aa 3d 03 00    	jmp    *0x33daa(%rip)        # 38220 <_ZNSt12__basic_fileIcED1Ev@GLIBCXX_3.4>
    4476:	68 44 00 00 00       	push   $0x44
    447b:	e9 a0 fb ff ff       	jmp    4020 <_init+0x20>

0000000000004480 <_ZNSt7__cxx1112basic_stringIcSt11char_traitsIcESaIcEE6appendEPKc@plt>:
    4480:	ff 25 a2 3d 03 00    	jmp    *0x33da2(%rip)        # 38228 <_ZNSt7__cxx1112basic_stringIcSt11char_traitsIcESaIcEE6appendEPKc@GLIBCXX_3.4.21>
    4486:	68 45 00 00 00       	push   $0x45
    448b:	e9 90 fb ff ff       	jmp    4020 <_init+0x20>

0000000000004490 <_ZNSt6localeC1Ev@plt>:
    4490:	ff 25 9a 3d 03 00    	jmp    *0x33d9a(%rip)        # 38230 <_ZNSt6localeC1Ev@GLIBCXX_3.4>
    4496:	68 46 00 00 00       	push   $0x46
    449b:	e9 80 fb ff ff       	jmp    4020 <_init+0x20>

Disassembly of section .plt.got:

00000000000044a0 <__cxa_finalize@plt>:
    44a0:	ff 25 02 3b 03 00    	jmp    *0x33b02(%rip)        # 37fa8 <__cxa_finalize@GLIBC_2.2.5>
    44a6:	66 90                	xchg   %ax,%ax

Disassembly of section .text:

00000000000044b0 <_ZNK2ML18ConvolutionalLayer15computeThreadedERKNS_9LayerDataEm.cold>:
    44b0:	48 8b bc 24 b8 00 00 	mov    0xb8(%rsp),%rdi
    44b7:	00 
    44b8:	48 85 ff             	test   %rdi,%rdi
    44bb:	74 23                	je     44e0 <_ZNK2ML18ConvolutionalLayer15computeThreadedERKNS_9LayerDataEm.cold+0x30>
    44bd:	48 8b 07             	mov    (%rdi),%rax
    44c0:	c5 f8 77             	vzeroupper
    44c3:	ff 50 08             	call   *0x8(%rax)
    44c6:	48 8b 44 24 48       	mov    0x48(%rsp),%rax
    44cb:	48 39 c3             	cmp    %rax,%rbx
    44ce:	74 6c                	je     453c <_ZNK2ML18ConvolutionalLayer15computeThreadedERKNS_9LayerDataEm.cold+0x8c>
    44d0:	48 83 38 00          	cmpq   $0x0,(%rax)
    44d4:	0f 85 37 83 00 00    	jne    c811 <_ZNK2ML18ConvolutionalLayer15computeThreadedERKNS_9LayerDataEm+0x4a1>
    44da:	48 83 c0 08          	add    $0x8,%rax
    44de:	eb eb                	jmp    44cb <_ZNK2ML18ConvolutionalLayer15computeThreadedERKNS_9LayerDataEm.cold+0x1b>
    44e0:	c5 f8 77             	vzeroupper
    44e3:	eb e1                	jmp    44c6 <_ZNK2ML18ConvolutionalLayer15computeThreadedERKNS_9LayerDataEm.cold+0x16>
    44e5:	48 8b bc 24 b8 00 00 	mov    0xb8(%rsp),%rdi
    44ec:	00 
    44ed:	48 85 ff             	test   %rdi,%rdi
    44f0:	75 3f                	jne    4531 <_ZNK2ML18ConvolutionalLayer15computeThreadedERKNS_9LayerDataEm.cold+0x81>
    44f2:	c5 f8 77             	vzeroupper
    44f5:	4c 89 e7             	mov    %r12,%rdi
    44f8:	e8 13 fc ff ff       	call   4110 <__cxa_begin_catch@plt>
    44fd:	48 83 7c 24 40 00    	cmpq   $0x0,0x40(%rsp)
    4503:	74 0f                	je     4514 <_ZNK2ML18ConvolutionalLayer15computeThreadedERKNS_9LayerDataEm.cold+0x64>
    4505:	48 8b 7c 24 40       	mov    0x40(%rsp),%rdi
    450a:	e8 41 fd ff ff       	call   4250 <_ZdlPv@plt>
    450f:	e8 3c fe ff ff       	call   4350 <__cxa_rethrow@plt>
    4514:	48 8b 44 24 20       	mov    0x20(%rsp),%rax
    4519:	48 83 38 00          	cmpq   $0x0,(%rax)
    451d:	74 f0                	je     450f <_ZNK2ML18ConvolutionalLayer15computeThreadedERKNS_9LayerDataEm.cold+0x5f>
    451f:	e9 ed 82 00 00       	jmp    c811 <_ZNK2ML18ConvolutionalLayer15computeThreadedERKNS_9LayerDataEm+0x4a1>
    4524:	49 89 c4             	mov    %rax,%r12
    4527:	c5 f8 77             	vzeroupper
    452a:	e8 b1 fe ff ff       	call   43e0 <__cxa_end_catch@plt>
    452f:	eb 95                	jmp    44c6 <_ZNK2ML18ConvolutionalLayer15computeThreadedERKNS_9LayerDataEm.cold+0x16>
    4531:	48 8b 07             	mov    (%rdi),%rax
    4534:	c5 f8 77             	vzeroupper
    4537:	ff 50 08             	call   *0x8(%rax)
    453a:	eb b9                	jmp    44f5 <_ZNK2ML18ConvolutionalLayer15computeThreadedERKNS_9LayerDataEm.cold+0x45>
    453c:	48 83 7c 24 48 00    	cmpq   $0x0,0x48(%rsp)
    4542:	74 0a                	je     454e <_ZNK2ML18ConvolutionalLayer15computeThreadedERKNS_9LayerDataEm.cold+0x9e>
    4544:	48 8b 7c 24 48       	mov    0x48(%rsp),%rdi
    4549:	e8 02 fd ff ff       	call   4250 <_ZdlPv@plt>
    454e:	4c 89 e7             	mov    %r12,%rdi
    4551:	e8 fa fe ff ff       	call   4450 <_Unwind_Resume@plt>

0000000000004556 <_ZN2ML12FlattenLayerC2ERKNS_11LayerParamsES3_.cold>:
    4556:	48 8b 7c 24 58       	mov    0x58(%rsp),%rdi
    455b:	48 85 ff             	test   %rdi,%rdi
    455e:	0f 84 a0 00 00 00    	je     4604 <_ZN2ML12FlattenLayerC2ERKNS_11LayerParamsES3_.cold+0xae>
    4564:	c5 f8 77             	vzeroupper
    4567:	e8 e4 fc ff ff       	call   4250 <_ZdlPv@plt>
    456c:	eb 17                	jmp    4585 <_ZN2ML12FlattenLayerC2ERKNS_11LayerParamsES3_.cold+0x2f>
    456e:	48 8b 7c 24 18       	mov    0x18(%rsp),%rdi
    4573:	48 85 ff             	test   %rdi,%rdi
    4576:	75 3a                	jne    45b2 <_ZN2ML12FlattenLayerC2ERKNS_11LayerParamsES3_.cold+0x5c>
    4578:	c5 f8 77             	vzeroupper
    457b:	48 8d 7c 24 50       	lea    0x50(%rsp),%rdi
    4580:	e8 ab b0 00 00       	call   f630 <_ZN2ML11LayerParamsD1Ev>
    4585:	48 89 df             	mov    %rbx,%rdi
    4588:	e8 c3 fe ff ff       	call   4450 <_Unwind_Resume@plt>
    458d:	48 8b 7b 10          	mov    0x10(%rbx),%rdi
    4591:	48 85 ff             	test   %rdi,%rdi
    4594:	75 12                	jne    45a8 <_ZN2ML12FlattenLayerC2ERKNS_11LayerParamsES3_.cold+0x52>
    4596:	c5 f8 77             	vzeroupper
    4599:	48 89 eb             	mov    %rbp,%rbx
    459c:	48 8d 7c 24 10       	lea    0x10(%rsp),%rdi
    45a1:	e8 8a b0 00 00       	call   f630 <_ZN2ML11LayerParamsD1Ev>
    45a6:	eb d3                	jmp    457b <_ZN2ML12FlattenLayerC2ERKNS_11LayerParamsES3_.cold+0x25>
    45a8:	c5 f8 77             	vzeroupper
    45ab:	e8 a0 fc ff ff       	call   4250 <_ZdlPv@plt>
    45b0:	eb e7                	jmp    4599 <_ZN2ML12FlattenLayerC2ERKNS_11LayerParamsES3_.cold+0x43>
    45b2:	c5 f8 77             	vzeroupper
    45b5:	e8 96 fc ff ff       	call   4250 <_ZdlPv@plt>
    45ba:	eb bf                	jmp    457b <_ZN2ML12FlattenLayerC2ERKNS_11LayerParamsES3_.cold+0x25>
    45bc:	48 8b bb 90 00 00 00 	mov    0x90(%rbx),%rdi
    45c3:	48 85 ff             	test   %rdi,%rdi
    45c6:	74 1f                	je     45e7 <_ZN2ML12FlattenLayerC2ERKNS_11LayerParamsES3_.cold+0x91>
    45c8:	c5 f8 77             	vzeroupper
    45cb:	e8 80 fc ff ff       	call   4250 <_ZdlPv@plt>
    45d0:	48 8d 7b 48          	lea    0x48(%rbx),%rdi
    45d4:	e8 57 b0 00 00       	call   f630 <_ZN2ML11LayerParamsD1Ev>
    45d9:	48 8d 7b 08          	lea    0x8(%rbx),%rdi
    45dd:	48 89 eb             	mov    %rbp,%rbx
    45e0:	e8 4b b0 00 00       	call   f630 <_ZN2ML11LayerParamsD1Ev>
    45e5:	eb b5                	jmp    459c <_ZN2ML12FlattenLayerC2ERKNS_11LayerParamsES3_.cold+0x46>
    45e7:	c5 f8 77             	vzeroupper
    45ea:	eb e4                	jmp    45d0 <_ZN2ML12FlattenLayerC2ERKNS_11LayerParamsES3_.cold+0x7a>
    45ec:	48 8b 7b 50          	mov    0x50(%rbx),%rdi
    45f0:	48 85 ff             	test   %rdi,%rdi
    45f3:	74 0a                	je     45ff <_ZN2ML12FlattenLayerC2ERKNS_11LayerParamsES3_.cold+0xa9>
    45f5:	c5 f8 77             	vzeroupper
    45f8:	e8 53 fc ff ff       	call   4250 <_ZdlPv@plt>
    45fd:	eb da                	jmp    45d9 <_ZN2ML12FlattenLayerC2ERKNS_11LayerParamsES3_.cold+0x83>
    45ff:	c5 f8 77             	vzeroupper
    4602:	eb d5                	jmp    45d9 <_ZN2ML12FlattenLayerC2ERKNS_11LayerParamsES3_.cold+0x83>
    4604:	c5 f8 77             	vzeroupper
    4607:	e9 79 ff ff ff       	jmp    4585 <_ZN2ML12FlattenLayerC2ERKNS_11LayerParamsES3_.cold+0x2f>

000000000000460c <_ZNK2ML11LayerParams12isCompatibleERKS0_.cold>:
    460c:	bf 10 00 00 00       	mov    $0x10,%edi
    4611:	e8 3a fb ff ff       	call   4150 <__cxa_allocate_exception@plt>
    4616:	48 8d 35 8b 9b 02 00 	lea    0x29b8b(%rip),%rsi        # 2e1a8 <_ZTSN2ML12FlattenLayerE+0x18>
    461d:	48 89 c7             	mov    %rax,%rdi
    4620:	48 89 c3             	mov    %rax,%rbx
    4623:	e8 d8 fa ff ff       	call   4100 <_ZNSt13runtime_errorC1EPKc@plt>
    4628:	48 8b 15 89 39 03 00 	mov    0x33989(%rip),%rdx        # 37fb8 <_ZNSt13runtime_errorD1Ev@GLIBCXX_3.4>
    462f:	48 8d 35 ca 35 03 00 	lea    0x335ca(%rip),%rsi        # 37c00 <_ZTISt13runtime_error@GLIBCXX_3.4>
    4636:	48 89 df             	mov    %rbx,%rdi
    4639:	e8 f2 fd ff ff       	call   4430 <__cxa_throw@plt>
    463e:	bf 10 00 00 00       	mov    $0x10,%edi
    4643:	e8 08 fb ff ff       	call   4150 <__cxa_allocate_exception@plt>
    4648:	48 8d 35 a9 9b 02 00 	lea    0x29ba9(%rip),%rsi        # 2e1f8 <_ZTSN2ML12FlattenLayerE+0x68>
    464f:	48 89 c7             	mov    %rax,%rdi
    4652:	48 89 c3             	mov    %rax,%rbx
    4655:	e8 a6 fa ff ff       	call   4100 <_ZNSt13runtime_errorC1EPKc@plt>
    465a:	48 8b 15 57 39 03 00 	mov    0x33957(%rip),%rdx        # 37fb8 <_ZNSt13runtime_errorD1Ev@GLIBCXX_3.4>
    4661:	48 8d 35 98 35 03 00 	lea    0x33598(%rip),%rsi        # 37c00 <_ZTISt13runtime_error@GLIBCXX_3.4>
    4668:	48 89 df             	mov    %rbx,%rdi
    466b:	e8 c0 fd ff ff       	call   4430 <__cxa_throw@plt>
    4670:	bf 10 00 00 00       	mov    $0x10,%edi
    4675:	e8 d6 fa ff ff       	call   4150 <__cxa_allocate_exception@plt>
    467a:	48 8d 35 4f 9b 02 00 	lea    0x29b4f(%rip),%rsi        # 2e1d0 <_ZTSN2ML12FlattenLayerE+0x40>
    4681:	48 89 c7             	mov    %rax,%rdi
    4684:	48 89 c3             	mov    %rax,%rbx
    4687:	e8 74 fa ff ff       	call   4100 <_ZNSt13runtime_errorC1EPKc@plt>
    468c:	48 8b 15 25 39 03 00 	mov    0x33925(%rip),%rdx        # 37fb8 <_ZNSt13runtime_errorD1Ev@GLIBCXX_3.4>
    4693:	48 8d 35 66 35 03 00 	lea    0x33566(%rip),%rsi        # 37c00 <_ZTISt13runtime_error@GLIBCXX_3.4>
    469a:	48 89 df             	mov    %rbx,%rdi
    469d:	e8 8e fd ff ff       	call   4430 <__cxa_throw@plt>
    46a2:	48 89 c5             	mov    %rax,%rbp
    46a5:	48 89 df             	mov    %rbx,%rdi
    46a8:	c5 f8 77             	vzeroupper
    46ab:	e8 30 fb ff ff       	call   41e0 <__cxa_free_exception@plt>
    46b0:	48 89 ef             	mov    %rbp,%rdi
    46b3:	e8 98 fd ff ff       	call   4450 <_Unwind_Resume@plt>
    46b8:	48 89 c5             	mov    %rax,%rbp
    46bb:	48 89 df             	mov    %rbx,%rdi
    46be:	c5 f8 77             	vzeroupper
    46c1:	e8 1a fb ff ff       	call   41e0 <__cxa_free_exception@plt>
    46c6:	48 89 ef             	mov    %rbp,%rdi
    46c9:	e8 82 fd ff ff       	call   4450 <_Unwind_Resume@plt>
    46ce:	48 89 c5             	mov    %rax,%rbp
    46d1:	48 89 df             	mov    %rbx,%rdi
    46d4:	c5 f8 77             	vzeroupper
    46d7:	e8 04 fb ff ff       	call   41e0 <__cxa_free_exception@plt>
    46dc:	48 89 ef             	mov    %rbp,%rdi
    46df:	e8 6c fd ff ff       	call   4450 <_Unwind_Resume@plt>

00000000000046e4 <_ZNK2ML5Layer27checkDataInputCompatibilityERKNS_9LayerDataE.cold>:
    46e4:	bf 10 00 00 00       	mov    $0x10,%edi
    46e9:	e8 62 fa ff ff       	call   4150 <__cxa_allocate_exception@plt>
    46ee:	48 8d 35 b3 9a 02 00 	lea    0x29ab3(%rip),%rsi        # 2e1a8 <_ZTSN2ML12FlattenLayerE+0x18>
    46f5:	48 89 c7             	mov    %rax,%rdi
    46f8:	48 89 c3             	mov    %rax,%rbx
    46fb:	e8 00 fa ff ff       	call   4100 <_ZNSt13runtime_errorC1EPKc@plt>
    4700:	48 8b 15 b1 38 03 00 	mov    0x338b1(%rip),%rdx        # 37fb8 <_ZNSt13runtime_errorD1Ev@GLIBCXX_3.4>
    4707:	48 8d 35 f2 34 03 00 	lea    0x334f2(%rip),%rsi        # 37c00 <_ZTISt13runtime_error@GLIBCXX_3.4>
    470e:	48 89 df             	mov    %rbx,%rdi
    4711:	e8 1a fd ff ff       	call   4430 <__cxa_throw@plt>
    4716:	bf 10 00 00 00       	mov    $0x10,%edi
    471b:	e8 30 fa ff ff       	call   4150 <__cxa_allocate_exception@plt>
    4720:	48 8d 35 d1 9a 02 00 	lea    0x29ad1(%rip),%rsi        # 2e1f8 <_ZTSN2ML12FlattenLayerE+0x68>
    4727:	48 89 c7             	mov    %rax,%rdi
    472a:	48 89 c3             	mov    %rax,%rbx
    472d:	e8 ce f9 ff ff       	call   4100 <_ZNSt13runtime_errorC1EPKc@plt>
    4732:	48 8b 15 7f 38 03 00 	mov    0x3387f(%rip),%rdx        # 37fb8 <_ZNSt13runtime_errorD1Ev@GLIBCXX_3.4>
    4739:	48 8d 35 c0 34 03 00 	lea    0x334c0(%rip),%rsi        # 37c00 <_ZTISt13runtime_error@GLIBCXX_3.4>
    4740:	48 89 df             	mov    %rbx,%rdi
    4743:	e8 e8 fc ff ff       	call   4430 <__cxa_throw@plt>
    4748:	bf 10 00 00 00       	mov    $0x10,%edi
    474d:	e8 fe f9 ff ff       	call   4150 <__cxa_allocate_exception@plt>
    4752:	48 8d 35 77 9a 02 00 	lea    0x29a77(%rip),%rsi        # 2e1d0 <_ZTSN2ML12FlattenLayerE+0x40>
    4759:	48 89 c7             	mov    %rax,%rdi
    475c:	48 89 c3             	mov    %rax,%rbx
    475f:	e8 9c f9 ff ff       	call   4100 <_ZNSt13runtime_errorC1EPKc@plt>
    4764:	48 8b 15 4d 38 03 00 	mov    0x3384d(%rip),%rdx        # 37fb8 <_ZNSt13runtime_errorD1Ev@GLIBCXX_3.4>
    476b:	48 8d 35 8e 34 03 00 	lea    0x3348e(%rip),%rsi        # 37c00 <_ZTISt13runtime_error@GLIBCXX_3.4>
    4772:	48 89 df             	mov    %rbx,%rdi
    4775:	e8 b6 fc ff ff       	call   4430 <__cxa_throw@plt>
    477a:	48 89 c5             	mov    %rax,%rbp
    477d:	48 89 df             	mov    %rbx,%rdi
    4780:	c5 f8 77             	vzeroupper
    4783:	e8 58 fa ff ff       	call   41e0 <__cxa_free_exception@plt>
    4788:	48 89 ef             	mov    %rbp,%rdi
    478b:	e8 c0 fc ff ff       	call   4450 <_Unwind_Resume@plt>
    4790:	48 89 c5             	mov    %rax,%rbp
    4793:	48 89 df             	mov    %rbx,%rdi
    4796:	c5 f8 77             	vzeroupper
    4799:	e8 42 fa ff ff       	call   41e0 <__cxa_free_exception@plt>
    479e:	48 89 ef             	mov    %rbp,%rdi
    47a1:	e8 aa fc ff ff       	call   4450 <_Unwind_Resume@plt>
    47a6:	48 89 c5             	mov    %rax,%rbp
    47a9:	48 89 df             	mov    %rbx,%rdi
    47ac:	c5 f8 77             	vzeroupper
    47af:	e8 2c fa ff ff       	call   41e0 <__cxa_free_exception@plt>
    47b4:	48 89 ef             	mov    %rbp,%rdi
    47b7:	e8 94 fc ff ff       	call   4450 <_Unwind_Resume@plt>

00000000000047bc <_ZN2ML15MaxPoolingLayerC2ERKNS_11LayerParamsES3_.cold>:
    47bc:	48 8b 7c 24 58       	mov    0x58(%rsp),%rdi
    47c1:	48 85 ff             	test   %rdi,%rdi
    47c4:	0f 84 a0 00 00 00    	je     486a <_ZN2ML15MaxPoolingLayerC2ERKNS_11LayerParamsES3_.cold+0xae>
    47ca:	c5 f8 77             	vzeroupper
    47cd:	e8 7e fa ff ff       	call   4250 <_ZdlPv@plt>
    47d2:	eb 17                	jmp    47eb <_ZN2ML15MaxPoolingLayerC2ERKNS_11LayerParamsES3_.cold+0x2f>
    47d4:	48 8b 7c 24 18       	mov    0x18(%rsp),%rdi
    47d9:	48 85 ff             	test   %rdi,%rdi
    47dc:	75 3a                	jne    4818 <_ZN2ML15MaxPoolingLayerC2ERKNS_11LayerParamsES3_.cold+0x5c>
    47de:	c5 f8 77             	vzeroupper
    47e1:	48 8d 7c 24 50       	lea    0x50(%rsp),%rdi
    47e6:	e8 45 ae 00 00       	call   f630 <_ZN2ML11LayerParamsD1Ev>
    47eb:	48 89 df             	mov    %rbx,%rdi
    47ee:	e8 5d fc ff ff       	call   4450 <_Unwind_Resume@plt>
    47f3:	48 8b 7b 10          	mov    0x10(%rbx),%rdi
    47f7:	48 85 ff             	test   %rdi,%rdi
    47fa:	75 12                	jne    480e <_ZN2ML15MaxPoolingLayerC2ERKNS_11LayerParamsES3_.cold+0x52>
    47fc:	c5 f8 77             	vzeroupper
    47ff:	48 89 eb             	mov    %rbp,%rbx
    4802:	48 8d 7c 24 10       	lea    0x10(%rsp),%rdi
    4807:	e8 24 ae 00 00       	call   f630 <_ZN2ML11LayerParamsD1Ev>
    480c:	eb d3                	jmp    47e1 <_ZN2ML15MaxPoolingLayerC2ERKNS_11LayerParamsES3_.cold+0x25>
    480e:	c5 f8 77             	vzeroupper
    4811:	e8 3a fa ff ff       	call   4250 <_ZdlPv@plt>
    4816:	eb e7                	jmp    47ff <_ZN2ML15MaxPoolingLayerC2ERKNS_11LayerParamsES3_.cold+0x43>
    4818:	c5 f8 77             	vzeroupper
    481b:	e8 30 fa ff ff       	call   4250 <_ZdlPv@plt>
    4820:	eb bf                	jmp    47e1 <_ZN2ML15MaxPoolingLayerC2ERKNS_11LayerParamsES3_.cold+0x25>
    4822:	48 8b bb 90 00 00 00 	mov    0x90(%rbx),%rdi
    4829:	48 85 ff             	test   %rdi,%rdi
    482c:	74 1f                	je     484d <_ZN2ML15MaxPoolingLayerC2ERKNS_11LayerParamsES3_.cold+0x91>
    482e:	c5 f8 77             	vzeroupper
    4831:	e8 1a fa ff ff       	call   4250 <_ZdlPv@plt>
    4836:	48 8d 7b 48          	lea    0x48(%rbx),%rdi
    483a:	e8 f1 ad 00 00       	call   f630 <_ZN2ML11LayerParamsD1Ev>
    483f:	48 8d 7b 08          	lea    0x8(%rbx),%rdi
    4843:	48 89 eb             	mov    %rbp,%rbx
    4846:	e8 e5 ad 00 00       	call   f630 <_ZN2ML11LayerParamsD1Ev>
    484b:	eb b5                	jmp    4802 <_ZN2ML15MaxPoolingLayerC2ERKNS_11LayerParamsES3_.cold+0x46>
    484d:	c5 f8 77             	vzeroupper
    4850:	eb e4                	jmp    4836 <_ZN2ML15MaxPoolingLayerC2ERKNS_11LayerParamsES3_.cold+0x7a>
    4852:	48 8b 7b 50          	mov    0x50(%rbx),%rdi
    4856:	48 85 ff             	test   %rdi,%rdi
    4859:	74 0a                	je     4865 <_ZN2ML15MaxPoolingLayerC2ERKNS_11LayerParamsES3_.cold+0xa9>
    485b:	c5 f8 77             	vzeroupper
    485e:	e8 ed f9 ff ff       	call   4250 <_ZdlPv@plt>
    4863:	eb da                	jmp    483f <_ZN2ML15MaxPoolingLayerC2ERKNS_11LayerParamsES3_.cold+0x83>
    4865:	c5 f8 77             	vzeroupper
    4868:	eb d5                	jmp    483f <_ZN2ML15MaxPoolingLayerC2ERKNS_11LayerParamsES3_.cold+0x83>
    486a:	c5 f8 77             	vzeroupper
    486d:	e9 79 ff ff ff       	jmp    47eb <_ZN2ML15MaxPoolingLayerC2ERKNS_11LayerParamsES3_.cold+0x2f>

0000000000004872 <_ZN2ML12SoftmaxLayerC2ERKNS_11LayerParamsES3_.cold>:
    4872:	48 8b 7c 24 58       	mov    0x58(%rsp),%rdi
    4877:	48 85 ff             	test   %rdi,%rdi
    487a:	0f 84 a0 00 00 00    	je     4920 <_ZN2ML12SoftmaxLayerC2ERKNS_11LayerParamsES3_.cold+0xae>
    4880:	c5 f8 77             	vzeroupper
    4883:	e8 c8 f9 ff ff       	call   4250 <_ZdlPv@plt>
    4888:	eb 17                	jmp    48a1 <_ZN2ML12SoftmaxLayerC2ERKNS_11LayerParamsES3_.cold+0x2f>
    488a:	48 8b 7c 24 18       	mov    0x18(%rsp),%rdi
    488f:	48 85 ff             	test   %rdi,%rdi
    4892:	75 3a                	jne    48ce <_ZN2ML12SoftmaxLayerC2ERKNS_11LayerParamsES3_.cold+0x5c>
    4894:	c5 f8 77             	vzeroupper
    4897:	48 8d 7c 24 50       	lea    0x50(%rsp),%rdi
    489c:	e8 8f ad 00 00       	call   f630 <_ZN2ML11LayerParamsD1Ev>
    48a1:	48 89 df             	mov    %rbx,%rdi
    48a4:	e8 a7 fb ff ff       	call   4450 <_Unwind_Resume@plt>
    48a9:	48 8b 7b 10          	mov    0x10(%rbx),%rdi
    48ad:	48 85 ff             	test   %rdi,%rdi
    48b0:	75 12                	jne    48c4 <_ZN2ML12SoftmaxLayerC2ERKNS_11LayerParamsES3_.cold+0x52>
    48b2:	c5 f8 77             	vzeroupper
    48b5:	48 89 eb             	mov    %rbp,%rbx
    48b8:	48 8d 7c 24 10       	lea    0x10(%rsp),%rdi
    48bd:	e8 6e ad 00 00       	call   f630 <_ZN2ML11LayerParamsD1Ev>
    48c2:	eb d3                	jmp    4897 <_ZN2ML12SoftmaxLayerC2ERKNS_11LayerParamsES3_.cold+0x25>
    48c4:	c5 f8 77             	vzeroupper
    48c7:	e8 84 f9 ff ff       	call   4250 <_ZdlPv@plt>
    48cc:	eb e7                	jmp    48b5 <_ZN2ML12SoftmaxLayerC2ERKNS_11LayerParamsES3_.cold+0x43>
    48ce:	c5 f8 77             	vzeroupper
    48d1:	e8 7a f9 ff ff       	call   4250 <_ZdlPv@plt>
    48d6:	eb bf                	jmp    4897 <_ZN2ML12SoftmaxLayerC2ERKNS_11LayerParamsES3_.cold+0x25>
    48d8:	48 8b bb 90 00 00 00 	mov    0x90(%rbx),%rdi
    48df:	48 85 ff             	test   %rdi,%rdi
    48e2:	74 1f                	je     4903 <_ZN2ML12SoftmaxLayerC2ERKNS_11LayerParamsES3_.cold+0x91>
    48e4:	c5 f8 77             	vzeroupper
    48e7:	e8 64 f9 ff ff       	call   4250 <_ZdlPv@plt>
    48ec:	48 8d 7b 48          	lea    0x48(%rbx),%rdi
    48f0:	e8 3b ad 00 00       	call   f630 <_ZN2ML11LayerParamsD1Ev>
    48f5:	48 8d 7b 08          	lea    0x8(%rbx),%rdi
    48f9:	48 89 eb             	mov    %rbp,%rbx
    48fc:	e8 2f ad 00 00       	call   f630 <_ZN2ML11LayerParamsD1Ev>
    4901:	eb b5                	jmp    48b8 <_ZN2ML12SoftmaxLayerC2ERKNS_11LayerParamsES3_.cold+0x46>
    4903:	c5 f8 77             	vzeroupper
    4906:	eb e4                	jmp    48ec <_ZN2ML12SoftmaxLayerC2ERKNS_11LayerParamsES3_.cold+0x7a>
    4908:	48 8b 7b 50          	mov    0x50(%rbx),%rdi
    490c:	48 85 ff             	test   %rdi,%rdi
    490f:	74 0a                	je     491b <_ZN2ML12SoftmaxLayerC2ERKNS_11LayerParamsES3_.cold+0xa9>
    4911:	c5 f8 77             	vzeroupper
    4914:	e8 37 f9 ff ff       	call   4250 <_ZdlPv@plt>
    4919:	eb da                	jmp    48f5 <_ZN2ML12SoftmaxLayerC2ERKNS_11LayerParamsES3_.cold+0x83>
    491b:	c5 f8 77             	vzeroupper
    491e:	eb d5                	jmp    48f5 <_ZN2ML12SoftmaxLayerC2ERKNS_11LayerParamsES3_.cold+0x83>
    4920:	c5 f8 77             	vzeroupper
    4923:	e9 79 ff ff ff       	jmp    48a1 <_ZN2ML12SoftmaxLayerC2ERKNS_11LayerParamsES3_.cold+0x2f>

0000000000004928 <_ZN2ML9LayerData9allocDataEv.part.0.cold>:
    4928:	e8 13 fa ff ff       	call   4340 <__cxa_throw_bad_array_new_length@plt>
    492d:	90                   	nop

000000000000492e <_ZNSt6vectorImSaImEEC2ESt16initializer_listImERKS0_.constprop.3.cold>:
    492e:	48 8b 3b             	mov    (%rbx),%rdi
    4931:	48 85 ff             	test   %rdi,%rdi
    4934:	74 10                	je     4946 <_ZNSt6vectorImSaImEEC2ESt16initializer_listImERKS0_.constprop.3.cold+0x18>
    4936:	c5 f8 77             	vzeroupper
    4939:	e8 12 f9 ff ff       	call   4250 <_ZdlPv@plt>
    493e:	48 89 ef             	mov    %rbp,%rdi
    4941:	e8 0a fb ff ff       	call   4450 <_Unwind_Resume@plt>
    4946:	c5 f8 77             	vzeroupper
    4949:	eb f3                	jmp    493e <_ZNSt6vectorImSaImEEC2ESt16initializer_listImERKS0_.constprop.3.cold+0x10>
    494b:	90                   	nop

000000000000494c <_ZNSt6vectorImSaImEEC2ESt16initializer_listImERKS0_.constprop.2.cold>:
    494c:	48 8b 3b             	mov    (%rbx),%rdi
    494f:	48 85 ff             	test   %rdi,%rdi
    4952:	74 10                	je     4964 <_ZNSt6vectorImSaImEEC2ESt16initializer_listImERKS0_.constprop.2.cold+0x18>
    4954:	c5 f8 77             	vzeroupper
    4957:	e8 f4 f8 ff ff       	call   4250 <_ZdlPv@plt>
    495c:	4c 89 e7             	mov    %r12,%rdi
    495f:	e8 ec fa ff ff       	call   4450 <_Unwind_Resume@plt>
    4964:	c5 f8 77             	vzeroupper
    4967:	eb f3                	jmp    495c <_ZNSt6vectorImSaImEEC2ESt16initializer_listImERKS0_.constprop.2.cold+0x10>
    4969:	90                   	nop

000000000000496a <_ZNSt6vectorImSaImEEC2ESt16initializer_listImERKS0_.constprop.1.cold>:
    496a:	48 8b 3b             	mov    (%rbx),%rdi
    496d:	48 85 ff             	test   %rdi,%rdi
    4970:	74 10                	je     4982 <_ZNSt6vectorImSaImEEC2ESt16initializer_listImERKS0_.constprop.1.cold+0x18>
    4972:	c5 f8 77             	vzeroupper
    4975:	e8 d6 f8 ff ff       	call   4250 <_ZdlPv@plt>
    497a:	48 89 ef             	mov    %rbp,%rdi
    497d:	e8 ce fa ff ff       	call   4450 <_Unwind_Resume@plt>
    4982:	c5 f8 77             	vzeroupper
    4985:	eb f3                	jmp    497a <_ZNSt6vectorImSaImEEC2ESt16initializer_listImERKS0_.constprop.1.cold+0x10>
    4987:	90                   	nop

0000000000004988 <_ZNSt6vectorImSaImEEC2ESt16initializer_listImERKS0_.constprop.0.cold>:
    4988:	48 8b 3b             	mov    (%rbx),%rdi
    498b:	48 85 ff             	test   %rdi,%rdi
    498e:	74 10                	je     49a0 <_ZNSt6vectorImSaImEEC2ESt16initializer_listImERKS0_.constprop.0.cold+0x18>
    4990:	c5 f8 77             	vzeroupper
    4993:	e8 b8 f8 ff ff       	call   4250 <_ZdlPv@plt>
    4998:	48 89 ef             	mov    %rbp,%rdi
    499b:	e8 b0 fa ff ff       	call   4450 <_Unwind_Resume@plt>
    49a0:	c5 f8 77             	vzeroupper
    49a3:	eb f3                	jmp    4998 <_ZNSt6vectorImSaImEEC2ESt16initializer_listImERKS0_.constprop.0.cold+0x10>
    49a5:	90                   	nop

00000000000049a6 <_ZN2ML11LayerParamsC2EmSt6vectorImSaImEENS_4PathE.constprop.0.cold>:
    49a6:	48 8b 7b 08          	mov    0x8(%rbx),%rdi
    49aa:	48 85 ff             	test   %rdi,%rdi
    49ad:	74 10                	je     49bf <_ZN2ML11LayerParamsC2EmSt6vectorImSaImEENS_4PathE.constprop.0.cold+0x19>
    49af:	c5 f8 77             	vzeroupper
    49b2:	e8 99 f8 ff ff       	call   4250 <_ZdlPv@plt>
    49b7:	48 89 ef             	mov    %rbp,%rdi
    49ba:	e8 91 fa ff ff       	call   4450 <_Unwind_Resume@plt>
    49bf:	c5 f8 77             	vzeroupper
    49c2:	eb f3                	jmp    49b7 <_ZN2ML11LayerParamsC2EmSt6vectorImSaImEENS_4PathE.constprop.0.cold+0x11>

00000000000049c4 <_ZN2ML11LayerParamsC2EmSt6vectorImSaImEENS_4PathE.constprop.1.cold>:
    49c4:	48 8b 7b 08          	mov    0x8(%rbx),%rdi
    49c8:	48 85 ff             	test   %rdi,%rdi
    49cb:	74 10                	je     49dd <_ZN2ML11LayerParamsC2EmSt6vectorImSaImEENS_4PathE.constprop.1.cold+0x19>
    49cd:	c5 f8 77             	vzeroupper
    49d0:	e8 7b f8 ff ff       	call   4250 <_ZdlPv@plt>
    49d5:	48 89 ef             	mov    %rbp,%rdi
    49d8:	e8 73 fa ff ff       	call   4450 <_Unwind_Resume@plt>
    49dd:	c5 f8 77             	vzeroupper
    49e0:	eb f3                	jmp    49d5 <_ZN2ML11LayerParamsC2EmSt6vectorImSaImEENS_4PathE.constprop.1.cold+0x11>

00000000000049e2 <_ZN2ML11LayerParamsC2EmSt6vectorImSaImEENS_4PathE.constprop.2.cold>:
    49e2:	48 8b 7b 08          	mov    0x8(%rbx),%rdi
    49e6:	48 85 ff             	test   %rdi,%rdi
    49e9:	74 10                	je     49fb <_ZN2ML11LayerParamsC2EmSt6vectorImSaImEENS_4PathE.constprop.2.cold+0x19>
    49eb:	c5 f8 77             	vzeroupper
    49ee:	e8 5d f8 ff ff       	call   4250 <_ZdlPv@plt>
    49f3:	48 89 ef             	mov    %rbp,%rdi
    49f6:	e8 55 fa ff ff       	call   4450 <_Unwind_Resume@plt>
    49fb:	c5 f8 77             	vzeroupper
    49fe:	eb f3                	jmp    49f3 <_ZN2ML11LayerParamsC2EmSt6vectorImSaImEENS_4PathE.constprop.2.cold+0x11>

0000000000004a00 <_ZN2ML11LayerParamsC2EmSt6vectorImSaImEE.constprop.1.cold>:
    4a00:	4d 85 ed             	test   %r13,%r13
    4a03:	74 22                	je     4a27 <_ZN2ML11LayerParamsC2EmSt6vectorImSaImEE.constprop.1.cold+0x27>
    4a05:	4c 89 ef             	mov    %r13,%rdi
    4a08:	c5 f8 77             	vzeroupper
    4a0b:	e8 40 f8 ff ff       	call   4250 <_ZdlPv@plt>
    4a10:	48 8b 7c 24 20       	mov    0x20(%rsp),%rdi
    4a15:	4c 39 e7             	cmp    %r12,%rdi
    4a18:	74 05                	je     4a1f <_ZN2ML11LayerParamsC2EmSt6vectorImSaImEE.constprop.1.cold+0x1f>
    4a1a:	e8 31 f8 ff ff       	call   4250 <_ZdlPv@plt>
    4a1f:	48 89 df             	mov    %rbx,%rdi
    4a22:	e8 29 fa ff ff       	call   4450 <_Unwind_Resume@plt>
    4a27:	c5 f8 77             	vzeroupper
    4a2a:	eb e4                	jmp    4a10 <_ZN2ML11LayerParamsC2EmSt6vectorImSaImEE.constprop.1.cold+0x10>

0000000000004a2c <_ZN2ML11LayerParamsC2EmSt6vectorImSaImEE.constprop.0.cold>:
    4a2c:	4d 85 ed             	test   %r13,%r13
    4a2f:	74 22                	je     4a53 <_ZN2ML11LayerParamsC2EmSt6vectorImSaImEE.constprop.0.cold+0x27>
    4a31:	4c 89 ef             	mov    %r13,%rdi
    4a34:	c5 f8 77             	vzeroupper
    4a37:	e8 14 f8 ff ff       	call   4250 <_ZdlPv@plt>
    4a3c:	48 8b 7c 24 20       	mov    0x20(%rsp),%rdi
    4a41:	4c 39 e7             	cmp    %r12,%rdi
    4a44:	74 05                	je     4a4b <_ZN2ML11LayerParamsC2EmSt6vectorImSaImEE.constprop.0.cold+0x1f>
    4a46:	e8 05 f8 ff ff       	call   4250 <_ZdlPv@plt>
    4a4b:	48 89 df             	mov    %rbx,%rdi
    4a4e:	e8 fd f9 ff ff       	call   4450 <_Unwind_Resume@plt>
    4a53:	c5 f8 77             	vzeroupper
    4a56:	eb e4                	jmp    4a3c <_ZN2ML11LayerParamsC2EmSt6vectorImSaImEE.constprop.0.cold+0x10>

0000000000004a58 <_ZN2ML17getLayerInputPathERKNS_4PathEi.cold>:
    4a58:	48 8b 7c 24 40       	mov    0x40(%rsp),%rdi
    4a5d:	4c 39 ef             	cmp    %r13,%rdi
    4a60:	75 4c                	jne    4aae <_ZN2ML17getLayerInputPathERKNS_4PathEi.cold+0x56>
    4a62:	c5 f8 77             	vzeroupper
    4a65:	48 8b 7c 24 20       	mov    0x20(%rsp),%rdi
    4a6a:	48 8d 44 24 30       	lea    0x30(%rsp),%rax
    4a6f:	48 39 c7             	cmp    %rax,%rdi
    4a72:	74 05                	je     4a79 <_ZN2ML17getLayerInputPathERKNS_4PathEi.cold+0x21>
    4a74:	e8 d7 f7 ff ff       	call   4250 <_ZdlPv@plt>
    4a79:	48 89 df             	mov    %rbx,%rdi
    4a7c:	e8 cf f9 ff ff       	call   4450 <_Unwind_Resume@plt>
    4a81:	48 8b 7c 24 40       	mov    0x40(%rsp),%rdi
    4a86:	4c 39 ef             	cmp    %r13,%rdi
    4a89:	74 2d                	je     4ab8 <_ZN2ML17getLayerInputPathERKNS_4PathEi.cold+0x60>
    4a8b:	c5 f8 77             	vzeroupper
    4a8e:	e8 bd f7 ff ff       	call   4250 <_ZdlPv@plt>
    4a93:	48 8b 3c 24          	mov    (%rsp),%rdi
    4a97:	48 8d 44 24 10       	lea    0x10(%rsp),%rax
    4a9c:	48 39 c7             	cmp    %rax,%rdi
    4a9f:	74 05                	je     4aa6 <_ZN2ML17getLayerInputPathERKNS_4PathEi.cold+0x4e>
    4aa1:	e8 aa f7 ff ff       	call   4250 <_ZdlPv@plt>
    4aa6:	48 89 df             	mov    %rbx,%rdi
    4aa9:	e8 a2 f9 ff ff       	call   4450 <_Unwind_Resume@plt>
    4aae:	c5 f8 77             	vzeroupper
    4ab1:	e8 9a f7 ff ff       	call   4250 <_ZdlPv@plt>
    4ab6:	eb ad                	jmp    4a65 <_ZN2ML17getLayerInputPathERKNS_4PathEi.cold+0xd>
    4ab8:	c5 f8 77             	vzeroupper
    4abb:	eb d6                	jmp    4a93 <_ZN2ML17getLayerInputPathERKNS_4PathEi.cold+0x3b>

0000000000004abd <_ZN2ML15buildMixedModelEv.cold>:
    4abd:	4c 89 f7             	mov    %r14,%rdi
    4ac0:	c5 f8 77             	vzeroupper
    4ac3:	4d 89 fe             	mov    %r15,%r14
    4ac6:	e8 65 ab 00 00       	call   f630 <_ZN2ML11LayerParamsD1Ev>
    4acb:	48 8b bc 24 c0 00 00 	mov    0xc0(%rsp),%rdi
    4ad2:	00 
    4ad3:	48 85 ff             	test   %rdi,%rdi
    4ad6:	74 05                	je     4add <_ZN2ML15buildMixedModelEv.cold+0x20>
    4ad8:	e8 73 f7 ff ff       	call   4250 <_ZdlPv@plt>
    4add:	48 89 df             	mov    %rbx,%rdi
    4ae0:	4c 89 f3             	mov    %r14,%rbx
    4ae3:	e8 48 ab 00 00       	call   f630 <_ZN2ML11LayerParamsD1Ev>
    4ae8:	48 8b bc 24 00 01 00 	mov    0x100(%rsp),%rdi
    4aef:	00 
    4af0:	48 85 ff             	test   %rdi,%rdi
    4af3:	75 6f                	jne    4b64 <_ZN2ML15buildMixedModelEv.cold+0xa7>
    4af5:	4c 89 e7             	mov    %r12,%rdi
    4af8:	e8 33 ab 00 00       	call   f630 <_ZN2ML11LayerParamsD1Ev>
    4afd:	48 8b bc 24 80 01 00 	mov    0x180(%rsp),%rdi
    4b04:	00 
    4b05:	48 8b 44 24 48       	mov    0x48(%rsp),%rax
    4b0a:	48 39 c7             	cmp    %rax,%rdi
    4b0d:	74 05                	je     4b14 <_ZN2ML15buildMixedModelEv.cold+0x57>
    4b0f:	e8 3c f7 ff ff       	call   4250 <_ZdlPv@plt>
    4b14:	48 8b bc 24 20 01 00 	mov    0x120(%rsp),%rdi
    4b1b:	00 
    4b1c:	48 85 ff             	test   %rdi,%rdi
    4b1f:	75 4a                	jne    4b6b <_ZN2ML15buildMixedModelEv.cold+0xae>
    4b21:	4c 89 ef             	mov    %r13,%rdi
    4b24:	e8 07 ab 00 00       	call   f630 <_ZN2ML11LayerParamsD1Ev>
    4b29:	48 8b bc 24 a0 01 00 	mov    0x1a0(%rsp),%rdi
    4b30:	00 
    4b31:	48 8b 44 24 40       	mov    0x40(%rsp),%rax
    4b36:	48 39 c7             	cmp    %rax,%rdi
    4b39:	74 05                	je     4b40 <_ZN2ML15buildMixedModelEv.cold+0x83>
    4b3b:	e8 10 f7 ff ff       	call   4250 <_ZdlPv@plt>
    4b40:	48 8b bc 24 40 01 00 	mov    0x140(%rsp),%rdi
    4b47:	00 
    4b48:	48 85 ff             	test   %rdi,%rdi
    4b4b:	74 05                	je     4b52 <_ZN2ML15buildMixedModelEv.cold+0x95>
    4b4d:	e8 fe f6 ff ff       	call   4250 <_ZdlPv@plt>
    4b52:	48 8b 7c 24 78       	mov    0x78(%rsp),%rdi
    4b57:	e8 a4 6f 02 00       	call   2bb00 <_ZNSt6vectorISt10unique_ptrIN2ML5LayerESt14default_deleteIS2_EESaIS5_EED1Ev>
    4b5c:	48 89 df             	mov    %rbx,%rdi
    4b5f:	e8 ec f8 ff ff       	call   4450 <_Unwind_Resume@plt>
    4b64:	e8 e7 f6 ff ff       	call   4250 <_ZdlPv@plt>
    4b69:	eb 8a                	jmp    4af5 <_ZN2ML15buildMixedModelEv.cold+0x38>
    4b6b:	e8 e0 f6 ff ff       	call   4250 <_ZdlPv@plt>
    4b70:	eb af                	jmp    4b21 <_ZN2ML15buildMixedModelEv.cold+0x64>
    4b72:	48 8b 7c 24 20       	mov    0x20(%rsp),%rdi
    4b77:	c5 f8 77             	vzeroupper
    4b7a:	e8 d1 f6 ff ff       	call   4250 <_ZdlPv@plt>
    4b7f:	4c 89 e7             	mov    %r12,%rdi
    4b82:	e8 a9 aa 00 00       	call   f630 <_ZN2ML11LayerParamsD1Ev>
    4b87:	48 8b bc 24 c0 01 00 	mov    0x1c0(%rsp),%rdi
    4b8e:	00 
    4b8f:	48 85 ff             	test   %rdi,%rdi
    4b92:	75 5f                	jne    4bf3 <_ZN2ML15buildMixedModelEv.cold+0x136>
    4b94:	4c 89 ef             	mov    %r13,%rdi
    4b97:	e8 94 aa 00 00       	call   f630 <_ZN2ML11LayerParamsD1Ev>
    4b9c:	48 8b bc 24 00 02 00 	mov    0x200(%rsp),%rdi
    4ba3:	00 
    4ba4:	48 85 ff             	test   %rdi,%rdi
    4ba7:	74 a9                	je     4b52 <_ZN2ML15buildMixedModelEv.cold+0x95>
    4ba9:	e8 a2 f6 ff ff       	call   4250 <_ZdlPv@plt>
    4bae:	eb a2                	jmp    4b52 <_ZN2ML15buildMixedModelEv.cold+0x95>
    4bb0:	4c 89 f7             	mov    %r14,%rdi
    4bb3:	c5 f8 77             	vzeroupper
    4bb6:	e8 95 f6 ff ff       	call   4250 <_ZdlPv@plt>
    4bbb:	4c 89 e7             	mov    %r12,%rdi
    4bbe:	e8 6d aa 00 00       	call   f630 <_ZN2ML11LayerParamsD1Ev>
    4bc3:	48 8b bc 24 c0 01 00 	mov    0x1c0(%rsp),%rdi
    4bca:	00 
    4bcb:	48 85 ff             	test   %rdi,%rdi
    4bce:	75 2a                	jne    4bfa <_ZN2ML15buildMixedModelEv.cold+0x13d>
    4bd0:	4c 89 ef             	mov    %r13,%rdi
    4bd3:	e8 58 aa 00 00       	call   f630 <_ZN2ML11LayerParamsD1Ev>
    4bd8:	48 8b bc 24 00 02 00 	mov    0x200(%rsp),%rdi
    4bdf:	00 
    4be0:	48 85 ff             	test   %rdi,%rdi
    4be3:	0f 84 69 ff ff ff    	je     4b52 <_ZN2ML15buildMixedModelEv.cold+0x95>
    4be9:	e8 62 f6 ff ff       	call   4250 <_ZdlPv@plt>
    4bee:	e9 5f ff ff ff       	jmp    4b52 <_ZN2ML15buildMixedModelEv.cold+0x95>
    4bf3:	e8 58 f6 ff ff       	call   4250 <_ZdlPv@plt>
    4bf8:	eb 9a                	jmp    4b94 <_ZN2ML15buildMixedModelEv.cold+0xd7>
    4bfa:	e8 51 f6 ff ff       	call   4250 <_ZdlPv@plt>
    4bff:	eb cf                	jmp    4bd0 <_ZN2ML15buildMixedModelEv.cold+0x113>
    4c01:	48 8b bc 24 80 02 00 	mov    0x280(%rsp),%rdi
    4c08:	00 
    4c09:	48 8d 84 24 90 02 00 	lea    0x290(%rsp),%rax
    4c10:	00 
    4c11:	48 39 c7             	cmp    %rax,%rdi
    4c14:	0f 84 bd 00 00 00    	je     4cd7 <_ZN2ML15buildMixedModelEv.cold+0x21a>
    4c1a:	c5 f8 77             	vzeroupper
    4c1d:	e8 2e f6 ff ff       	call   4250 <_ZdlPv@plt>
    4c22:	e9 2b ff ff ff       	jmp    4b52 <_ZN2ML15buildMixedModelEv.cold+0x95>
    4c27:	4c 89 f7             	mov    %r14,%rdi
    4c2a:	c5 f8 77             	vzeroupper
    4c2d:	4d 89 fe             	mov    %r15,%r14
    4c30:	e8 fb a9 00 00       	call   f630 <_ZN2ML11LayerParamsD1Ev>
    4c35:	48 8b bc 24 c0 00 00 	mov    0xc0(%rsp),%rdi
    4c3c:	00 
    4c3d:	48 85 ff             	test   %rdi,%rdi
    4c40:	74 05                	je     4c47 <_ZN2ML15buildMixedModelEv.cold+0x18a>
    4c42:	e8 09 f6 ff ff       	call   4250 <_ZdlPv@plt>
    4c47:	48 89 df             	mov    %rbx,%rdi
    4c4a:	4c 89 f3             	mov    %r14,%rbx
    4c4d:	e8 de a9 00 00       	call   f630 <_ZN2ML11LayerParamsD1Ev>
    4c52:	48 8b bc 24 00 01 00 	mov    0x100(%rsp),%rdi
    4c59:	00 
    4c5a:	48 85 ff             	test   %rdi,%rdi
    4c5d:	74 05                	je     4c64 <_ZN2ML15buildMixedModelEv.cold+0x1a7>
    4c5f:	e8 ec f5 ff ff       	call   4250 <_ZdlPv@plt>
    4c64:	4c 89 e7             	mov    %r12,%rdi
    4c67:	e8 c4 a9 00 00       	call   f630 <_ZN2ML11LayerParamsD1Ev>
    4c6c:	48 8b bc 24 80 01 00 	mov    0x180(%rsp),%rdi
    4c73:	00 
    4c74:	48 8d 84 24 90 01 00 	lea    0x190(%rsp),%rax
    4c7b:	00 
    4c7c:	48 39 c7             	cmp    %rax,%rdi
    4c7f:	74 05                	je     4c86 <_ZN2ML15buildMixedModelEv.cold+0x1c9>
    4c81:	e8 ca f5 ff ff       	call   4250 <_ZdlPv@plt>
    4c86:	48 8b bc 24 20 01 00 	mov    0x120(%rsp),%rdi
    4c8d:	00 
    4c8e:	48 85 ff             	test   %rdi,%rdi
    4c91:	75 3d                	jne    4cd0 <_ZN2ML15buildMixedModelEv.cold+0x213>
    4c93:	4c 89 ef             	mov    %r13,%rdi
    4c96:	e8 95 a9 00 00       	call   f630 <_ZN2ML11LayerParamsD1Ev>
    4c9b:	48 8b bc 24 a0 01 00 	mov    0x1a0(%rsp),%rdi
    4ca2:	00 
    4ca3:	48 8d 84 24 b0 01 00 	lea    0x1b0(%rsp),%rax
    4caa:	00 
    4cab:	48 39 c7             	cmp    %rax,%rdi
    4cae:	74 05                	je     4cb5 <_ZN2ML15buildMixedModelEv.cold+0x1f8>
    4cb0:	e8 9b f5 ff ff       	call   4250 <_ZdlPv@plt>
    4cb5:	48 8b bc 24 40 01 00 	mov    0x140(%rsp),%rdi
    4cbc:	00 
    4cbd:	48 85 ff             	test   %rdi,%rdi
    4cc0:	0f 84 8c fe ff ff    	je     4b52 <_ZN2ML15buildMixedModelEv.cold+0x95>
    4cc6:	e8 85 f5 ff ff       	call   4250 <_ZdlPv@plt>
    4ccb:	e9 82 fe ff ff       	jmp    4b52 <_ZN2ML15buildMixedModelEv.cold+0x95>
    4cd0:	e8 7b f5 ff ff       	call   4250 <_ZdlPv@plt>
    4cd5:	eb bc                	jmp    4c93 <_ZN2ML15buildMixedModelEv.cold+0x1d6>
    4cd7:	c5 f8 77             	vzeroupper
    4cda:	e9 73 fe ff ff       	jmp    4b52 <_ZN2ML15buildMixedModelEv.cold+0x95>
    4cdf:	4c 89 f7             	mov    %r14,%rdi
    4ce2:	c5 f8 77             	vzeroupper
    4ce5:	4d 89 fe             	mov    %r15,%r14
    4ce8:	e8 43 a9 00 00       	call   f630 <_ZN2ML11LayerParamsD1Ev>
    4ced:	48 8b bc 24 00 01 00 	mov    0x100(%rsp),%rdi
    4cf4:	00 
    4cf5:	48 85 ff             	test   %rdi,%rdi
    4cf8:	74 05                	je     4cff <_ZN2ML15buildMixedModelEv.cold+0x242>
    4cfa:	e8 51 f5 ff ff       	call   4250 <_ZdlPv@plt>
    4cff:	48 89 df             	mov    %rbx,%rdi
    4d02:	4c 89 f3             	mov    %r14,%rbx
    4d05:	e8 26 a9 00 00       	call   f630 <_ZN2ML11LayerParamsD1Ev>
    4d0a:	48 8b bc 24 20 01 00 	mov    0x120(%rsp),%rdi
    4d11:	00 
    4d12:	48 85 ff             	test   %rdi,%rdi
    4d15:	74 05                	je     4d1c <_ZN2ML15buildMixedModelEv.cold+0x25f>
    4d17:	e8 34 f5 ff ff       	call   4250 <_ZdlPv@plt>
    4d1c:	4c 89 e7             	mov    %r12,%rdi
    4d1f:	e8 0c a9 00 00       	call   f630 <_ZN2ML11LayerParamsD1Ev>
    4d24:	48 8b bc 24 80 01 00 	mov    0x180(%rsp),%rdi
    4d2b:	00 
    4d2c:	48 8b 44 24 48       	mov    0x48(%rsp),%rax
    4d31:	48 39 c7             	cmp    %rax,%rdi
    4d34:	74 05                	je     4d3b <_ZN2ML15buildMixedModelEv.cold+0x27e>
    4d36:	e8 15 f5 ff ff       	call   4250 <_ZdlPv@plt>
    4d3b:	48 8b bc 24 40 01 00 	mov    0x140(%rsp),%rdi
    4d42:	00 
    4d43:	48 85 ff             	test   %rdi,%rdi
    4d46:	75 3a                	jne    4d82 <_ZN2ML15buildMixedModelEv.cold+0x2c5>
    4d48:	4c 89 ef             	mov    %r13,%rdi
    4d4b:	e8 e0 a8 00 00       	call   f630 <_ZN2ML11LayerParamsD1Ev>
    4d50:	48 8b bc 24 a0 01 00 	mov    0x1a0(%rsp),%rdi
    4d57:	00 
    4d58:	48 8b 44 24 40       	mov    0x40(%rsp),%rax
    4d5d:	48 39 c7             	cmp    %rax,%rdi
    4d60:	74 05                	je     4d67 <_ZN2ML15buildMixedModelEv.cold+0x2aa>
    4d62:	e8 e9 f4 ff ff       	call   4250 <_ZdlPv@plt>
    4d67:	48 8b bc 24 60 01 00 	mov    0x160(%rsp),%rdi
    4d6e:	00 
    4d6f:	48 85 ff             	test   %rdi,%rdi
    4d72:	0f 84 da fd ff ff    	je     4b52 <_ZN2ML15buildMixedModelEv.cold+0x95>
    4d78:	e8 d3 f4 ff ff       	call   4250 <_ZdlPv@plt>
    4d7d:	e9 d0 fd ff ff       	jmp    4b52 <_ZN2ML15buildMixedModelEv.cold+0x95>
    4d82:	e8 c9 f4 ff ff       	call   4250 <_ZdlPv@plt>
    4d87:	eb bf                	jmp    4d48 <_ZN2ML15buildMixedModelEv.cold+0x28b>
    4d89:	4c 89 f7             	mov    %r14,%rdi
    4d8c:	c5 f8 77             	vzeroupper
    4d8f:	4d 89 fe             	mov    %r15,%r14
    4d92:	e8 99 a8 00 00       	call   f630 <_ZN2ML11LayerParamsD1Ev>
    4d97:	48 8b bc 24 00 01 00 	mov    0x100(%rsp),%rdi
    4d9e:	00 
    4d9f:	48 85 ff             	test   %rdi,%rdi
    4da2:	74 05                	je     4da9 <_ZN2ML15buildMixedModelEv.cold+0x2ec>
    4da4:	e8 a7 f4 ff ff       	call   4250 <_ZdlPv@plt>
    4da9:	48 89 df             	mov    %rbx,%rdi
    4dac:	4c 89 f3             	mov    %r14,%rbx
    4daf:	e8 7c a8 00 00       	call   f630 <_ZN2ML11LayerParamsD1Ev>
    4db4:	48 8b bc 24 20 01 00 	mov    0x120(%rsp),%rdi
    4dbb:	00 
    4dbc:	48 85 ff             	test   %rdi,%rdi
    4dbf:	0f 85 b4 01 00 00    	jne    4f79 <_ZN2ML15buildMixedModelEv.cold+0x4bc>
    4dc5:	4c 89 e7             	mov    %r12,%rdi
    4dc8:	e8 63 a8 00 00       	call   f630 <_ZN2ML11LayerParamsD1Ev>
    4dcd:	48 8b bc 24 80 01 00 	mov    0x180(%rsp),%rdi
    4dd4:	00 
    4dd5:	48 8b 44 24 48       	mov    0x48(%rsp),%rax
    4dda:	48 39 c7             	cmp    %rax,%rdi
    4ddd:	74 05                	je     4de4 <_ZN2ML15buildMixedModelEv.cold+0x327>
    4ddf:	e8 6c f4 ff ff       	call   4250 <_ZdlPv@plt>
    4de4:	48 8b bc 24 40 01 00 	mov    0x140(%rsp),%rdi
    4deb:	00 
    4dec:	48 85 ff             	test   %rdi,%rdi
    4def:	0f 85 8e 01 00 00    	jne    4f83 <_ZN2ML15buildMixedModelEv.cold+0x4c6>
    4df5:	4c 89 ef             	mov    %r13,%rdi
    4df8:	e8 33 a8 00 00       	call   f630 <_ZN2ML11LayerParamsD1Ev>
    4dfd:	48 8b bc 24 a0 01 00 	mov    0x1a0(%rsp),%rdi
    4e04:	00 
    4e05:	48 8b 44 24 40       	mov    0x40(%rsp),%rax
    4e0a:	48 39 c7             	cmp    %rax,%rdi
    4e0d:	74 05                	je     4e14 <_ZN2ML15buildMixedModelEv.cold+0x357>
    4e0f:	e8 3c f4 ff ff       	call   4250 <_ZdlPv@plt>
    4e14:	48 8b bc 24 60 01 00 	mov    0x160(%rsp),%rdi
    4e1b:	00 
    4e1c:	48 85 ff             	test   %rdi,%rdi
    4e1f:	0f 84 2d fd ff ff    	je     4b52 <_ZN2ML15buildMixedModelEv.cold+0x95>
    4e25:	e8 26 f4 ff ff       	call   4250 <_ZdlPv@plt>
    4e2a:	e9 23 fd ff ff       	jmp    4b52 <_ZN2ML15buildMixedModelEv.cold+0x95>
    4e2f:	4c 89 f7             	mov    %r14,%rdi
    4e32:	c5 f8 77             	vzeroupper
    4e35:	4d 89 fe             	mov    %r15,%r14
    4e38:	e8 f3 a7 00 00       	call   f630 <_ZN2ML11LayerParamsD1Ev>
    4e3d:	48 8b bc 24 c0 00 00 	mov    0xc0(%rsp),%rdi
    4e44:	00 
    4e45:	48 85 ff             	test   %rdi,%rdi
    4e48:	74 05                	je     4e4f <_ZN2ML15buildMixedModelEv.cold+0x392>
    4e4a:	e8 01 f4 ff ff       	call   4250 <_ZdlPv@plt>
    4e4f:	48 89 df             	mov    %rbx,%rdi
    4e52:	4c 89 f3             	mov    %r14,%rbx
    4e55:	e8 d6 a7 00 00       	call   f630 <_ZN2ML11LayerParamsD1Ev>
    4e5a:	48 8b bc 24 00 01 00 	mov    0x100(%rsp),%rdi
    4e61:	00 
    4e62:	48 85 ff             	test   %rdi,%rdi
    4e65:	74 05                	je     4e6c <_ZN2ML15buildMixedModelEv.cold+0x3af>
    4e67:	e8 e4 f3 ff ff       	call   4250 <_ZdlPv@plt>
    4e6c:	4c 89 e7             	mov    %r12,%rdi
    4e6f:	e8 bc a7 00 00       	call   f630 <_ZN2ML11LayerParamsD1Ev>
    4e74:	48 8b bc 24 80 01 00 	mov    0x180(%rsp),%rdi
    4e7b:	00 
    4e7c:	48 8b 44 24 48       	mov    0x48(%rsp),%rax
    4e81:	48 39 c7             	cmp    %rax,%rdi
    4e84:	74 05                	je     4e8b <_ZN2ML15buildMixedModelEv.cold+0x3ce>
    4e86:	e8 c5 f3 ff ff       	call   4250 <_ZdlPv@plt>
    4e8b:	48 8b bc 24 20 01 00 	mov    0x120(%rsp),%rdi
    4e92:	00 
    4e93:	48 85 ff             	test   %rdi,%rdi
    4e96:	74 05                	je     4e9d <_ZN2ML15buildMixedModelEv.cold+0x3e0>
    4e98:	e8 b3 f3 ff ff       	call   4250 <_ZdlPv@plt>
    4e9d:	4c 89 ef             	mov    %r13,%rdi
    4ea0:	e8 8b a7 00 00       	call   f630 <_ZN2ML11LayerParamsD1Ev>
    4ea5:	48 8b bc 24 a0 01 00 	mov    0x1a0(%rsp),%rdi
    4eac:	00 
    4ead:	48 8b 44 24 40       	mov    0x40(%rsp),%rax
    4eb2:	48 39 c7             	cmp    %rax,%rdi
    4eb5:	74 05                	je     4ebc <_ZN2ML15buildMixedModelEv.cold+0x3ff>
    4eb7:	e8 94 f3 ff ff       	call   4250 <_ZdlPv@plt>
    4ebc:	48 8b bc 24 40 01 00 	mov    0x140(%rsp),%rdi
    4ec3:	00 
    4ec4:	48 85 ff             	test   %rdi,%rdi
    4ec7:	0f 84 85 fc ff ff    	je     4b52 <_ZN2ML15buildMixedModelEv.cold+0x95>
    4ecd:	e8 7e f3 ff ff       	call   4250 <_ZdlPv@plt>
    4ed2:	e9 7b fc ff ff       	jmp    4b52 <_ZN2ML15buildMixedModelEv.cold+0x95>
    4ed7:	4c 89 f7             	mov    %r14,%rdi
    4eda:	c5 f8 77             	vzeroupper
    4edd:	4d 89 fe             	mov    %r15,%r14
    4ee0:	e8 4b a7 00 00       	call   f630 <_ZN2ML11LayerParamsD1Ev>
    4ee5:	48 8b bc 24 c0 00 00 	mov    0xc0(%rsp),%rdi
    4eec:	00 
    4eed:	48 85 ff             	test   %rdi,%rdi
    4ef0:	74 05                	je     4ef7 <_ZN2ML15buildMixedModelEv.cold+0x43a>
    4ef2:	e8 59 f3 ff ff       	call   4250 <_ZdlPv@plt>
    4ef7:	48 89 df             	mov    %rbx,%rdi
    4efa:	4c 89 f3             	mov    %r14,%rbx
    4efd:	e8 2e a7 00 00       	call   f630 <_ZN2ML11LayerParamsD1Ev>
    4f02:	48 8b bc 24 00 01 00 	mov    0x100(%rsp),%rdi
    4f09:	00 
    4f0a:	48 85 ff             	test   %rdi,%rdi
    4f0d:	0f 85 1d 02 00 00    	jne    5130 <_ZN2ML15buildMixedModelEv.cold+0x673>
    4f13:	4c 89 e7             	mov    %r12,%rdi
    4f16:	e8 15 a7 00 00       	call   f630 <_ZN2ML11LayerParamsD1Ev>
    4f1b:	48 8b bc 24 80 01 00 	mov    0x180(%rsp),%rdi
    4f22:	00 
    4f23:	48 8b 44 24 48       	mov    0x48(%rsp),%rax
    4f28:	48 39 c7             	cmp    %rax,%rdi
    4f2b:	74 05                	je     4f32 <_ZN2ML15buildMixedModelEv.cold+0x475>
    4f2d:	e8 1e f3 ff ff       	call   4250 <_ZdlPv@plt>
    4f32:	48 8b bc 24 20 01 00 	mov    0x120(%rsp),%rdi
    4f39:	00 
    4f3a:	48 85 ff             	test   %rdi,%rdi
    4f3d:	75 4e                	jne    4f8d <_ZN2ML15buildMixedModelEv.cold+0x4d0>
    4f3f:	4c 89 ef             	mov    %r13,%rdi
    4f42:	e8 e9 a6 00 00       	call   f630 <_ZN2ML11LayerParamsD1Ev>
    4f47:	48 8b bc 24 a0 01 00 	mov    0x1a0(%rsp),%rdi
    4f4e:	00 
    4f4f:	48 8b 44 24 40       	mov    0x40(%rsp),%rax
    4f54:	48 39 c7             	cmp    %rax,%rdi
    4f57:	74 05                	je     4f5e <_ZN2ML15buildMixedModelEv.cold+0x4a1>
    4f59:	e8 f2 f2 ff ff       	call   4250 <_ZdlPv@plt>
    4f5e:	48 8b bc 24 40 01 00 	mov    0x140(%rsp),%rdi
    4f65:	00 
    4f66:	48 85 ff             	test   %rdi,%rdi
    4f69:	0f 84 e3 fb ff ff    	je     4b52 <_ZN2ML15buildMixedModelEv.cold+0x95>
    4f6f:	e8 dc f2 ff ff       	call   4250 <_ZdlPv@plt>
    4f74:	e9 d9 fb ff ff       	jmp    4b52 <_ZN2ML15buildMixedModelEv.cold+0x95>
    4f79:	e8 d2 f2 ff ff       	call   4250 <_ZdlPv@plt>
    4f7e:	e9 42 fe ff ff       	jmp    4dc5 <_ZN2ML15buildMixedModelEv.cold+0x308>
    4f83:	e8 c8 f2 ff ff       	call   4250 <_ZdlPv@plt>
    4f88:	e9 68 fe ff ff       	jmp    4df5 <_ZN2ML15buildMixedModelEv.cold+0x338>
    4f8d:	e8 be f2 ff ff       	call   4250 <_ZdlPv@plt>
    4f92:	eb ab                	jmp    4f3f <_ZN2ML15buildMixedModelEv.cold+0x482>
    4f94:	4c 89 f7             	mov    %r14,%rdi
    4f97:	c5 f8 77             	vzeroupper
    4f9a:	4d 89 fe             	mov    %r15,%r14
    4f9d:	e8 8e a6 00 00       	call   f630 <_ZN2ML11LayerParamsD1Ev>
    4fa2:	48 8b bc 24 c0 00 00 	mov    0xc0(%rsp),%rdi
    4fa9:	00 
    4faa:	48 85 ff             	test   %rdi,%rdi
    4fad:	74 05                	je     4fb4 <_ZN2ML15buildMixedModelEv.cold+0x4f7>
    4faf:	e8 9c f2 ff ff       	call   4250 <_ZdlPv@plt>
    4fb4:	48 89 df             	mov    %rbx,%rdi
    4fb7:	4c 89 f3             	mov    %r14,%rbx
    4fba:	e8 71 a6 00 00       	call   f630 <_ZN2ML11LayerParamsD1Ev>
    4fbf:	48 8b bc 24 00 01 00 	mov    0x100(%rsp),%rdi
    4fc6:	00 
    4fc7:	48 85 ff             	test   %rdi,%rdi
    4fca:	75 66                	jne    5032 <_ZN2ML15buildMixedModelEv.cold+0x575>
    4fcc:	4c 89 e7             	mov    %r12,%rdi
    4fcf:	e8 5c a6 00 00       	call   f630 <_ZN2ML11LayerParamsD1Ev>
    4fd4:	48 8b bc 24 80 01 00 	mov    0x180(%rsp),%rdi
    4fdb:	00 
    4fdc:	48 8b 44 24 48       	mov    0x48(%rsp),%rax
    4fe1:	48 39 c7             	cmp    %rax,%rdi
    4fe4:	74 05                	je     4feb <_ZN2ML15buildMixedModelEv.cold+0x52e>
    4fe6:	e8 65 f2 ff ff       	call   4250 <_ZdlPv@plt>
    4feb:	48 8b bc 24 20 01 00 	mov    0x120(%rsp),%rdi
    4ff2:	00 
    4ff3:	48 85 ff             	test   %rdi,%rdi
    4ff6:	75 41                	jne    5039 <_ZN2ML15buildMixedModelEv.cold+0x57c>
    4ff8:	4c 89 ef             	mov    %r13,%rdi
    4ffb:	e8 30 a6 00 00       	call   f630 <_ZN2ML11LayerParamsD1Ev>
    5000:	48 8b bc 24 a0 01 00 	mov    0x1a0(%rsp),%rdi
    5007:	00 
    5008:	48 8b 44 24 40       	mov    0x40(%rsp),%rax
    500d:	48 39 c7             	cmp    %rax,%rdi
    5010:	74 05                	je     5017 <_ZN2ML15buildMixedModelEv.cold+0x55a>
    5012:	e8 39 f2 ff ff       	call   4250 <_ZdlPv@plt>
    5017:	48 8b bc 24 40 01 00 	mov    0x140(%rsp),%rdi
    501e:	00 
    501f:	48 85 ff             	test   %rdi,%rdi
    5022:	0f 84 2a fb ff ff    	je     4b52 <_ZN2ML15buildMixedModelEv.cold+0x95>
    5028:	e8 23 f2 ff ff       	call   4250 <_ZdlPv@plt>
    502d:	e9 20 fb ff ff       	jmp    4b52 <_ZN2ML15buildMixedModelEv.cold+0x95>
    5032:	e8 19 f2 ff ff       	call   4250 <_ZdlPv@plt>
    5037:	eb 93                	jmp    4fcc <_ZN2ML15buildMixedModelEv.cold+0x50f>
    5039:	e8 12 f2 ff ff       	call   4250 <_ZdlPv@plt>
    503e:	eb b8                	jmp    4ff8 <_ZN2ML15buildMixedModelEv.cold+0x53b>
    5040:	4c 89 e7             	mov    %r12,%rdi
    5043:	c5 f8 77             	vzeroupper
    5046:	e8 e5 a5 00 00       	call   f630 <_ZN2ML11LayerParamsD1Ev>
    504b:	48 8b bc 24 a0 01 00 	mov    0x1a0(%rsp),%rdi
    5052:	00 
    5053:	48 85 ff             	test   %rdi,%rdi
    5056:	0f 85 ca 00 00 00    	jne    5126 <_ZN2ML15buildMixedModelEv.cold+0x669>
    505c:	4c 89 ef             	mov    %r13,%rdi
    505f:	e8 cc a5 00 00       	call   f630 <_ZN2ML11LayerParamsD1Ev>
    5064:	48 8b bc 24 00 02 00 	mov    0x200(%rsp),%rdi
    506b:	00 
    506c:	48 85 ff             	test   %rdi,%rdi
    506f:	0f 84 dd fa ff ff    	je     4b52 <_ZN2ML15buildMixedModelEv.cold+0x95>
    5075:	e8 d6 f1 ff ff       	call   4250 <_ZdlPv@plt>
    507a:	e9 d3 fa ff ff       	jmp    4b52 <_ZN2ML15buildMixedModelEv.cold+0x95>
    507f:	4c 89 f7             	mov    %r14,%rdi
    5082:	c5 f8 77             	vzeroupper
    5085:	4d 89 fe             	mov    %r15,%r14
    5088:	e8 a3 a5 00 00       	call   f630 <_ZN2ML11LayerParamsD1Ev>
    508d:	48 8b bc 24 c0 00 00 	mov    0xc0(%rsp),%rdi
    5094:	00 
    5095:	48 85 ff             	test   %rdi,%rdi
    5098:	74 05                	je     509f <_ZN2ML15buildMixedModelEv.cold+0x5e2>
    509a:	e8 b1 f1 ff ff       	call   4250 <_ZdlPv@plt>
    509f:	48 89 df             	mov    %rbx,%rdi
    50a2:	4c 89 f3             	mov    %r14,%rbx
    50a5:	e8 86 a5 00 00       	call   f630 <_ZN2ML11LayerParamsD1Ev>
    50aa:	48 8b bc 24 00 01 00 	mov    0x100(%rsp),%rdi
    50b1:	00 
    50b2:	48 85 ff             	test   %rdi,%rdi
    50b5:	0f 85 bf 00 00 00    	jne    517a <_ZN2ML15buildMixedModelEv.cold+0x6bd>
    50bb:	4c 89 e7             	mov    %r12,%rdi
    50be:	e8 6d a5 00 00       	call   f630 <_ZN2ML11LayerParamsD1Ev>
    50c3:	48 8b bc 24 80 01 00 	mov    0x180(%rsp),%rdi
    50ca:	00 
    50cb:	48 8b 44 24 48       	mov    0x48(%rsp),%rax
    50d0:	48 39 c7             	cmp    %rax,%rdi
    50d3:	74 05                	je     50da <_ZN2ML15buildMixedModelEv.cold+0x61d>
    50d5:	e8 76 f1 ff ff       	call   4250 <_ZdlPv@plt>
    50da:	48 8b bc 24 20 01 00 	mov    0x120(%rsp),%rdi
    50e1:	00 
    50e2:	48 85 ff             	test   %rdi,%rdi
    50e5:	74 05                	je     50ec <_ZN2ML15buildMixedModelEv.cold+0x62f>
    50e7:	e8 64 f1 ff ff       	call   4250 <_ZdlPv@plt>
    50ec:	4c 89 ef             	mov    %r13,%rdi
    50ef:	e8 3c a5 00 00       	call   f630 <_ZN2ML11LayerParamsD1Ev>
    50f4:	48 8b bc 24 a0 01 00 	mov    0x1a0(%rsp),%rdi
    50fb:	00 
    50fc:	48 8b 44 24 40       	mov    0x40(%rsp),%rax
    5101:	48 39 c7             	cmp    %rax,%rdi
    5104:	74 05                	je     510b <_ZN2ML15buildMixedModelEv.cold+0x64e>
    5106:	e8 45 f1 ff ff       	call   4250 <_ZdlPv@plt>
    510b:	48 8b bc 24 40 01 00 	mov    0x140(%rsp),%rdi
    5112:	00 
    5113:	48 85 ff             	test   %rdi,%rdi
    5116:	0f 84 36 fa ff ff    	je     4b52 <_ZN2ML15buildMixedModelEv.cold+0x95>
    511c:	e8 2f f1 ff ff       	call   4250 <_ZdlPv@plt>
    5121:	e9 2c fa ff ff       	jmp    4b52 <_ZN2ML15buildMixedModelEv.cold+0x95>
    5126:	e8 25 f1 ff ff       	call   4250 <_ZdlPv@plt>
    512b:	e9 2c ff ff ff       	jmp    505c <_ZN2ML15buildMixedModelEv.cold+0x59f>
    5130:	e8 1b f1 ff ff       	call   4250 <_ZdlPv@plt>
    5135:	e9 d9 fd ff ff       	jmp    4f13 <_ZN2ML15buildMixedModelEv.cold+0x456>
    513a:	4c 89 e7             	mov    %r12,%rdi
    513d:	c5 f8 77             	vzeroupper
    5140:	e8 eb a4 00 00       	call   f630 <_ZN2ML11LayerParamsD1Ev>
    5145:	48 8b bc 24 a0 01 00 	mov    0x1a0(%rsp),%rdi
    514c:	00 
    514d:	48 85 ff             	test   %rdi,%rdi
    5150:	74 05                	je     5157 <_ZN2ML15buildMixedModelEv.cold+0x69a>
    5152:	e8 f9 f0 ff ff       	call   4250 <_ZdlPv@plt>
    5157:	4c 89 ef             	mov    %r13,%rdi
    515a:	e8 d1 a4 00 00       	call   f630 <_ZN2ML11LayerParamsD1Ev>
    515f:	48 8b bc 24 00 02 00 	mov    0x200(%rsp),%rdi
    5166:	00 
    5167:	48 85 ff             	test   %rdi,%rdi
    516a:	0f 84 e2 f9 ff ff    	je     4b52 <_ZN2ML15buildMixedModelEv.cold+0x95>
    5170:	e8 db f0 ff ff       	call   4250 <_ZdlPv@plt>
    5175:	e9 d8 f9 ff ff       	jmp    4b52 <_ZN2ML15buildMixedModelEv.cold+0x95>
    517a:	e8 d1 f0 ff ff       	call   4250 <_ZdlPv@plt>
    517f:	e9 37 ff ff ff       	jmp    50bb <_ZN2ML15buildMixedModelEv.cold+0x5fe>
    5184:	4c 89 e7             	mov    %r12,%rdi
    5187:	c5 f8 77             	vzeroupper
    518a:	e8 a1 a4 00 00       	call   f630 <_ZN2ML11LayerParamsD1Ev>
    518f:	48 8b bc 24 a0 01 00 	mov    0x1a0(%rsp),%rdi
    5196:	00 
    5197:	48 85 ff             	test   %rdi,%rdi
    519a:	74 05                	je     51a1 <_ZN2ML15buildMixedModelEv.cold+0x6e4>
    519c:	e8 af f0 ff ff       	call   4250 <_ZdlPv@plt>
    51a1:	4c 89 ef             	mov    %r13,%rdi
    51a4:	e8 87 a4 00 00       	call   f630 <_ZN2ML11LayerParamsD1Ev>
    51a9:	48 8b bc 24 00 02 00 	mov    0x200(%rsp),%rdi
    51b0:	00 
    51b1:	48 85 ff             	test   %rdi,%rdi
    51b4:	0f 84 98 f9 ff ff    	je     4b52 <_ZN2ML15buildMixedModelEv.cold+0x95>
    51ba:	e8 91 f0 ff ff       	call   4250 <_ZdlPv@plt>
    51bf:	e9 8e f9 ff ff       	jmp    4b52 <_ZN2ML15buildMixedModelEv.cold+0x95>

00000000000051c4 <_ZN2ML12build4QModelEv.cold>:
    51c4:	4c 89 f7             	mov    %r14,%rdi
    51c7:	c5 f8 77             	vzeroupper
    51ca:	e8 81 f0 ff ff       	call   4250 <_ZdlPv@plt>
    51cf:	4c 89 e7             	mov    %r12,%rdi
    51d2:	e8 59 a4 00 00       	call   f630 <_ZN2ML11LayerParamsD1Ev>
    51d7:	48 8b bc 24 c0 01 00 	mov    0x1c0(%rsp),%rdi
    51de:	00 
    51df:	48 85 ff             	test   %rdi,%rdi
    51e2:	74 05                	je     51e9 <_ZN2ML12build4QModelEv.cold+0x25>
    51e4:	e8 67 f0 ff ff       	call   4250 <_ZdlPv@plt>
    51e9:	4c 89 ef             	mov    %r13,%rdi
    51ec:	e8 3f a4 00 00       	call   f630 <_ZN2ML11LayerParamsD1Ev>
    51f1:	48 8b bc 24 00 02 00 	mov    0x200(%rsp),%rdi
    51f8:	00 
    51f9:	48 85 ff             	test   %rdi,%rdi
    51fc:	74 05                	je     5203 <_ZN2ML12build4QModelEv.cold+0x3f>
    51fe:	e8 4d f0 ff ff       	call   4250 <_ZdlPv@plt>
    5203:	48 8b 7c 24 78       	mov    0x78(%rsp),%rdi
    5208:	e8 f3 68 02 00       	call   2bb00 <_ZNSt6vectorISt10unique_ptrIN2ML5LayerESt14default_deleteIS2_EESaIS5_EED1Ev>
    520d:	48 89 df             	mov    %rbx,%rdi
    5210:	e8 3b f2 ff ff       	call   4450 <_Unwind_Resume@plt>
    5215:	4c 89 f7             	mov    %r14,%rdi
    5218:	c5 f8 77             	vzeroupper
    521b:	4d 89 fe             	mov    %r15,%r14
    521e:	e8 0d a4 00 00       	call   f630 <_ZN2ML11LayerParamsD1Ev>
    5223:	48 8b bc 24 c0 00 00 	mov    0xc0(%rsp),%rdi
    522a:	00 
    522b:	48 85 ff             	test   %rdi,%rdi
    522e:	74 05                	je     5235 <_ZN2ML12build4QModelEv.cold+0x71>
    5230:	e8 1b f0 ff ff       	call   4250 <_ZdlPv@plt>
    5235:	48 89 df             	mov    %rbx,%rdi
    5238:	4c 89 f3             	mov    %r14,%rbx
    523b:	e8 f0 a3 00 00       	call   f630 <_ZN2ML11LayerParamsD1Ev>
    5240:	48 8b bc 24 00 01 00 	mov    0x100(%rsp),%rdi
    5247:	00 
    5248:	48 85 ff             	test   %rdi,%rdi
    524b:	74 05                	je     5252 <_ZN2ML12build4QModelEv.cold+0x8e>
    524d:	e8 fe ef ff ff       	call   4250 <_ZdlPv@plt>
    5252:	4c 89 e7             	mov    %r12,%rdi
    5255:	e8 d6 a3 00 00       	call   f630 <_ZN2ML11LayerParamsD1Ev>
    525a:	48 8b bc 24 80 01 00 	mov    0x180(%rsp),%rdi
    5261:	00 
    5262:	48 8b 44 24 48       	mov    0x48(%rsp),%rax
    5267:	48 39 c7             	cmp    %rax,%rdi
    526a:	74 05                	je     5271 <_ZN2ML12build4QModelEv.cold+0xad>
    526c:	e8 df ef ff ff       	call   4250 <_ZdlPv@plt>
    5271:	48 8b bc 24 20 01 00 	mov    0x120(%rsp),%rdi
    5278:	00 
    5279:	48 85 ff             	test   %rdi,%rdi
    527c:	0f 85 6c 04 00 00    	jne    56ee <_ZN2ML12build4QModelEv.cold+0x52a>
    5282:	4c 89 ef             	mov    %r13,%rdi
    5285:	e8 a6 a3 00 00       	call   f630 <_ZN2ML11LayerParamsD1Ev>
    528a:	48 8b bc 24 a0 01 00 	mov    0x1a0(%rsp),%rdi
    5291:	00 
    5292:	48 8b 44 24 40       	mov    0x40(%rsp),%rax
    5297:	48 39 c7             	cmp    %rax,%rdi
    529a:	74 05                	je     52a1 <_ZN2ML12build4QModelEv.cold+0xdd>
    529c:	e8 af ef ff ff       	call   4250 <_ZdlPv@plt>
    52a1:	48 8b bc 24 40 01 00 	mov    0x140(%rsp),%rdi
    52a8:	00 
    52a9:	48 85 ff             	test   %rdi,%rdi
    52ac:	0f 85 4c ff ff ff    	jne    51fe <_ZN2ML12build4QModelEv.cold+0x3a>
    52b2:	e9 4c ff ff ff       	jmp    5203 <_ZN2ML12build4QModelEv.cold+0x3f>
    52b7:	4c 89 f7             	mov    %r14,%rdi
    52ba:	c5 f8 77             	vzeroupper
    52bd:	4d 89 fe             	mov    %r15,%r14
    52c0:	e8 6b a3 00 00       	call   f630 <_ZN2ML11LayerParamsD1Ev>
    52c5:	48 8b bc 24 c0 00 00 	mov    0xc0(%rsp),%rdi
    52cc:	00 
    52cd:	48 85 ff             	test   %rdi,%rdi
    52d0:	74 05                	je     52d7 <_ZN2ML12build4QModelEv.cold+0x113>
    52d2:	e8 79 ef ff ff       	call   4250 <_ZdlPv@plt>
    52d7:	48 89 df             	mov    %rbx,%rdi
    52da:	4c 89 f3             	mov    %r14,%rbx
    52dd:	e8 4e a3 00 00       	call   f630 <_ZN2ML11LayerParamsD1Ev>
    52e2:	48 8b bc 24 00 01 00 	mov    0x100(%rsp),%rdi
    52e9:	00 
    52ea:	48 85 ff             	test   %rdi,%rdi
    52ed:	74 05                	je     52f4 <_ZN2ML12build4QModelEv.cold+0x130>
    52ef:	e8 5c ef ff ff       	call   4250 <_ZdlPv@plt>
    52f4:	4c 89 e7             	mov    %r12,%rdi
    52f7:	e8 34 a3 00 00       	call   f630 <_ZN2ML11LayerParamsD1Ev>
    52fc:	48 8b bc 24 80 01 00 	mov    0x180(%rsp),%rdi
    5303:	00 
    5304:	48 8d 84 24 90 01 00 	lea    0x190(%rsp),%rax
    530b:	00 
    530c:	48 39 c7             	cmp    %rax,%rdi
    530f:	74 05                	je     5316 <_ZN2ML12build4QModelEv.cold+0x152>
    5311:	e8 3a ef ff ff       	call   4250 <_ZdlPv@plt>
    5316:	48 8b bc 24 20 01 00 	mov    0x120(%rsp),%rdi
    531d:	00 
    531e:	48 85 ff             	test   %rdi,%rdi
    5321:	74 05                	je     5328 <_ZN2ML12build4QModelEv.cold+0x164>
    5323:	e8 28 ef ff ff       	call   4250 <_ZdlPv@plt>
    5328:	4c 89 ef             	mov    %r13,%rdi
    532b:	e8 00 a3 00 00       	call   f630 <_ZN2ML11LayerParamsD1Ev>
    5330:	48 8b bc 24 a0 01 00 	mov    0x1a0(%rsp),%rdi
    5337:	00 
    5338:	48 8d 84 24 b0 01 00 	lea    0x1b0(%rsp),%rax
    533f:	00 
    5340:	48 39 c7             	cmp    %rax,%rdi
    5343:	0f 84 58 ff ff ff    	je     52a1 <_ZN2ML12build4QModelEv.cold+0xdd>
    5349:	e8 02 ef ff ff       	call   4250 <_ZdlPv@plt>
    534e:	e9 4e ff ff ff       	jmp    52a1 <_ZN2ML12build4QModelEv.cold+0xdd>
    5353:	48 8b 7c 24 20       	mov    0x20(%rsp),%rdi
    5358:	c5 f8 77             	vzeroupper
    535b:	e8 f0 ee ff ff       	call   4250 <_ZdlPv@plt>
    5360:	4c 89 e7             	mov    %r12,%rdi
    5363:	e8 c8 a2 00 00       	call   f630 <_ZN2ML11LayerParamsD1Ev>
    5368:	48 8b bc 24 c0 01 00 	mov    0x1c0(%rsp),%rdi
    536f:	00 
    5370:	48 85 ff             	test   %rdi,%rdi
    5373:	74 05                	je     537a <_ZN2ML12build4QModelEv.cold+0x1b6>
    5375:	e8 d6 ee ff ff       	call   4250 <_ZdlPv@plt>
    537a:	4c 89 ef             	mov    %r13,%rdi
    537d:	e8 ae a2 00 00       	call   f630 <_ZN2ML11LayerParamsD1Ev>
    5382:	e9 6a fe ff ff       	jmp    51f1 <_ZN2ML12build4QModelEv.cold+0x2d>
    5387:	4c 89 f7             	mov    %r14,%rdi
    538a:	c5 f8 77             	vzeroupper
    538d:	4d 89 fe             	mov    %r15,%r14
    5390:	e8 9b a2 00 00       	call   f630 <_ZN2ML11LayerParamsD1Ev>
    5395:	48 8b bc 24 00 01 00 	mov    0x100(%rsp),%rdi
    539c:	00 
    539d:	48 85 ff             	test   %rdi,%rdi
    53a0:	74 05                	je     53a7 <_ZN2ML12build4QModelEv.cold+0x1e3>
    53a2:	e8 a9 ee ff ff       	call   4250 <_ZdlPv@plt>
    53a7:	48 89 df             	mov    %rbx,%rdi
    53aa:	4c 89 f3             	mov    %r14,%rbx
    53ad:	e8 7e a2 00 00       	call   f630 <_ZN2ML11LayerParamsD1Ev>
    53b2:	48 8b bc 24 20 01 00 	mov    0x120(%rsp),%rdi
    53b9:	00 
    53ba:	48 85 ff             	test   %rdi,%rdi
    53bd:	74 05                	je     53c4 <_ZN2ML12build4QModelEv.cold+0x200>
    53bf:	e8 8c ee ff ff       	call   4250 <_ZdlPv@plt>
    53c4:	4c 89 e7             	mov    %r12,%rdi
    53c7:	e8 64 a2 00 00       	call   f630 <_ZN2ML11LayerParamsD1Ev>
    53cc:	48 8b bc 24 80 01 00 	mov    0x180(%rsp),%rdi
    53d3:	00 
    53d4:	48 8b 44 24 48       	mov    0x48(%rsp),%rax
    53d9:	48 39 c7             	cmp    %rax,%rdi
    53dc:	74 05                	je     53e3 <_ZN2ML12build4QModelEv.cold+0x21f>
    53de:	e8 6d ee ff ff       	call   4250 <_ZdlPv@plt>
    53e3:	48 8b bc 24 40 01 00 	mov    0x140(%rsp),%rdi
    53ea:	00 
    53eb:	48 85 ff             	test   %rdi,%rdi
    53ee:	75 35                	jne    5425 <_ZN2ML12build4QModelEv.cold+0x261>
    53f0:	4c 89 ef             	mov    %r13,%rdi
    53f3:	e8 38 a2 00 00       	call   f630 <_ZN2ML11LayerParamsD1Ev>
    53f8:	48 8b bc 24 a0 01 00 	mov    0x1a0(%rsp),%rdi
    53ff:	00 
    5400:	48 8b 44 24 40       	mov    0x40(%rsp),%rax
    5405:	48 39 c7             	cmp    %rax,%rdi
    5408:	74 05                	je     540f <_ZN2ML12build4QModelEv.cold+0x24b>
    540a:	e8 41 ee ff ff       	call   4250 <_ZdlPv@plt>
    540f:	48 8b bc 24 60 01 00 	mov    0x160(%rsp),%rdi
    5416:	00 
    5417:	48 85 ff             	test   %rdi,%rdi
    541a:	0f 85 de fd ff ff    	jne    51fe <_ZN2ML12build4QModelEv.cold+0x3a>
    5420:	e9 de fd ff ff       	jmp    5203 <_ZN2ML12build4QModelEv.cold+0x3f>
    5425:	e8 26 ee ff ff       	call   4250 <_ZdlPv@plt>
    542a:	eb c4                	jmp    53f0 <_ZN2ML12build4QModelEv.cold+0x22c>
    542c:	4c 89 f7             	mov    %r14,%rdi
    542f:	c5 f8 77             	vzeroupper
    5432:	4d 89 fe             	mov    %r15,%r14
    5435:	e8 f6 a1 00 00       	call   f630 <_ZN2ML11LayerParamsD1Ev>
    543a:	48 8b bc 24 00 01 00 	mov    0x100(%rsp),%rdi
    5441:	00 
    5442:	48 85 ff             	test   %rdi,%rdi
    5445:	74 05                	je     544c <_ZN2ML12build4QModelEv.cold+0x288>
    5447:	e8 04 ee ff ff       	call   4250 <_ZdlPv@plt>
    544c:	48 89 df             	mov    %rbx,%rdi
    544f:	4c 89 f3             	mov    %r14,%rbx
    5452:	e8 d9 a1 00 00       	call   f630 <_ZN2ML11LayerParamsD1Ev>
    5457:	48 8b bc 24 20 01 00 	mov    0x120(%rsp),%rdi
    545e:	00 
    545f:	48 85 ff             	test   %rdi,%rdi
    5462:	0f 85 7a 01 00 00    	jne    55e2 <_ZN2ML12build4QModelEv.cold+0x41e>
    5468:	4c 89 e7             	mov    %r12,%rdi
    546b:	e8 c0 a1 00 00       	call   f630 <_ZN2ML11LayerParamsD1Ev>
    5470:	48 8b bc 24 80 01 00 	mov    0x180(%rsp),%rdi
    5477:	00 
    5478:	48 8b 44 24 48       	mov    0x48(%rsp),%rax
    547d:	48 39 c7             	cmp    %rax,%rdi
    5480:	74 05                	je     5487 <_ZN2ML12build4QModelEv.cold+0x2c3>
    5482:	e8 c9 ed ff ff       	call   4250 <_ZdlPv@plt>
    5487:	48 8b bc 24 40 01 00 	mov    0x140(%rsp),%rdi
    548e:	00 
    548f:	48 85 ff             	test   %rdi,%rdi
    5492:	0f 85 62 01 00 00    	jne    55fa <_ZN2ML12build4QModelEv.cold+0x436>
    5498:	4c 89 ef             	mov    %r13,%rdi
    549b:	e8 90 a1 00 00       	call   f630 <_ZN2ML11LayerParamsD1Ev>
    54a0:	48 8b bc 24 a0 01 00 	mov    0x1a0(%rsp),%rdi
    54a7:	00 
    54a8:	48 8b 44 24 40       	mov    0x40(%rsp),%rax
    54ad:	48 39 c7             	cmp    %rax,%rdi
    54b0:	0f 84 59 ff ff ff    	je     540f <_ZN2ML12build4QModelEv.cold+0x24b>
    54b6:	e8 95 ed ff ff       	call   4250 <_ZdlPv@plt>
    54bb:	e9 4f ff ff ff       	jmp    540f <_ZN2ML12build4QModelEv.cold+0x24b>
    54c0:	4c 89 f7             	mov    %r14,%rdi
    54c3:	c5 f8 77             	vzeroupper
    54c6:	4d 89 fe             	mov    %r15,%r14
    54c9:	e8 62 a1 00 00       	call   f630 <_ZN2ML11LayerParamsD1Ev>
    54ce:	48 8b bc 24 c0 00 00 	mov    0xc0(%rsp),%rdi
    54d5:	00 
    54d6:	48 85 ff             	test   %rdi,%rdi
    54d9:	74 05                	je     54e0 <_ZN2ML12build4QModelEv.cold+0x31c>
    54db:	e8 70 ed ff ff       	call   4250 <_ZdlPv@plt>
    54e0:	48 89 df             	mov    %rbx,%rdi
    54e3:	4c 89 f3             	mov    %r14,%rbx
    54e6:	e8 45 a1 00 00       	call   f630 <_ZN2ML11LayerParamsD1Ev>
    54eb:	48 8b bc 24 00 01 00 	mov    0x100(%rsp),%rdi
    54f2:	00 
    54f3:	48 85 ff             	test   %rdi,%rdi
    54f6:	74 05                	je     54fd <_ZN2ML12build4QModelEv.cold+0x339>
    54f8:	e8 53 ed ff ff       	call   4250 <_ZdlPv@plt>
    54fd:	4c 89 e7             	mov    %r12,%rdi
    5500:	e8 2b a1 00 00       	call   f630 <_ZN2ML11LayerParamsD1Ev>
    5505:	48 8b bc 24 80 01 00 	mov    0x180(%rsp),%rdi
    550c:	00 
    550d:	48 8b 44 24 48       	mov    0x48(%rsp),%rax
    5512:	48 39 c7             	cmp    %rax,%rdi
    5515:	74 05                	je     551c <_ZN2ML12build4QModelEv.cold+0x358>
    5517:	e8 34 ed ff ff       	call   4250 <_ZdlPv@plt>
    551c:	48 8b bc 24 20 01 00 	mov    0x120(%rsp),%rdi
    5523:	00 
    5524:	48 85 ff             	test   %rdi,%rdi
    5527:	74 05                	je     552e <_ZN2ML12build4QModelEv.cold+0x36a>
    5529:	e8 22 ed ff ff       	call   4250 <_ZdlPv@plt>
    552e:	4c 89 ef             	mov    %r13,%rdi
    5531:	e8 fa a0 00 00       	call   f630 <_ZN2ML11LayerParamsD1Ev>
    5536:	48 8b bc 24 a0 01 00 	mov    0x1a0(%rsp),%rdi
    553d:	00 
    553e:	48 8b 44 24 40       	mov    0x40(%rsp),%rax
    5543:	48 39 c7             	cmp    %rax,%rdi
    5546:	0f 84 55 fd ff ff    	je     52a1 <_ZN2ML12build4QModelEv.cold+0xdd>
    554c:	e8 ff ec ff ff       	call   4250 <_ZdlPv@plt>
    5551:	e9 4b fd ff ff       	jmp    52a1 <_ZN2ML12build4QModelEv.cold+0xdd>
    5556:	4c 89 f7             	mov    %r14,%rdi
    5559:	c5 f8 77             	vzeroupper
    555c:	4d 89 fe             	mov    %r15,%r14
    555f:	e8 cc a0 00 00       	call   f630 <_ZN2ML11LayerParamsD1Ev>
    5564:	48 8b bc 24 c0 00 00 	mov    0xc0(%rsp),%rdi
    556b:	00 
    556c:	48 85 ff             	test   %rdi,%rdi
    556f:	74 05                	je     5576 <_ZN2ML12build4QModelEv.cold+0x3b2>
    5571:	e8 da ec ff ff       	call   4250 <_ZdlPv@plt>
    5576:	48 89 df             	mov    %rbx,%rdi
    5579:	4c 89 f3             	mov    %r14,%rbx
    557c:	e8 af a0 00 00       	call   f630 <_ZN2ML11LayerParamsD1Ev>
    5581:	48 8b bc 24 00 01 00 	mov    0x100(%rsp),%rdi
    5588:	00 
    5589:	48 85 ff             	test   %rdi,%rdi
    558c:	75 5e                	jne    55ec <_ZN2ML12build4QModelEv.cold+0x428>
    558e:	4c 89 e7             	mov    %r12,%rdi
    5591:	e8 9a a0 00 00       	call   f630 <_ZN2ML11LayerParamsD1Ev>
    5596:	48 8b bc 24 80 01 00 	mov    0x180(%rsp),%rdi
    559d:	00 
    559e:	48 8b 44 24 48       	mov    0x48(%rsp),%rax
    55a3:	48 39 c7             	cmp    %rax,%rdi
    55a6:	74 05                	je     55ad <_ZN2ML12build4QModelEv.cold+0x3e9>
    55a8:	e8 a3 ec ff ff       	call   4250 <_ZdlPv@plt>
    55ad:	48 8b bc 24 20 01 00 	mov    0x120(%rsp),%rdi
    55b4:	00 
    55b5:	48 85 ff             	test   %rdi,%rdi
    55b8:	75 39                	jne    55f3 <_ZN2ML12build4QModelEv.cold+0x42f>
    55ba:	4c 89 ef             	mov    %r13,%rdi
    55bd:	e8 6e a0 00 00       	call   f630 <_ZN2ML11LayerParamsD1Ev>
    55c2:	48 8b bc 24 a0 01 00 	mov    0x1a0(%rsp),%rdi
    55c9:	00 
    55ca:	48 8b 44 24 40       	mov    0x40(%rsp),%rax
    55cf:	48 39 c7             	cmp    %rax,%rdi
    55d2:	0f 84 c9 fc ff ff    	je     52a1 <_ZN2ML12build4QModelEv.cold+0xdd>
    55d8:	e8 73 ec ff ff       	call   4250 <_ZdlPv@plt>
    55dd:	e9 bf fc ff ff       	jmp    52a1 <_ZN2ML12build4QModelEv.cold+0xdd>
    55e2:	e8 69 ec ff ff       	call   4250 <_ZdlPv@plt>
    55e7:	e9 7c fe ff ff       	jmp    5468 <_ZN2ML12build4QModelEv.cold+0x2a4>
    55ec:	e8 5f ec ff ff       	call   4250 <_ZdlPv@plt>
    55f1:	eb 9b                	jmp    558e <_ZN2ML12build4QModelEv.cold+0x3ca>
    55f3:	e8 58 ec ff ff       	call   4250 <_ZdlPv@plt>
    55f8:	eb c0                	jmp    55ba <_ZN2ML12build4QModelEv.cold+0x3f6>
    55fa:	e8 51 ec ff ff       	call   4250 <_ZdlPv@plt>
    55ff:	e9 94 fe ff ff       	jmp    5498 <_ZN2ML12build4QModelEv.cold+0x2d4>
    5604:	4c 89 e7             	mov    %r12,%rdi
    5607:	c5 f8 77             	vzeroupper
    560a:	e8 21 a0 00 00       	call   f630 <_ZN2ML11LayerParamsD1Ev>
    560f:	48 8b bc 24 a0 01 00 	mov    0x1a0(%rsp),%rdi
    5616:	00 
    5617:	48 85 ff             	test   %rdi,%rdi
    561a:	74 05                	je     5621 <_ZN2ML12build4QModelEv.cold+0x45d>
    561c:	e8 2f ec ff ff       	call   4250 <_ZdlPv@plt>
    5621:	4c 89 ef             	mov    %r13,%rdi
    5624:	e8 07 a0 00 00       	call   f630 <_ZN2ML11LayerParamsD1Ev>
    5629:	e9 c3 fb ff ff       	jmp    51f1 <_ZN2ML12build4QModelEv.cold+0x2d>
    562e:	4c 89 e7             	mov    %r12,%rdi
    5631:	c5 f8 77             	vzeroupper
    5634:	e8 f7 9f 00 00       	call   f630 <_ZN2ML11LayerParamsD1Ev>
    5639:	48 8b bc 24 a0 01 00 	mov    0x1a0(%rsp),%rdi
    5640:	00 
    5641:	48 85 ff             	test   %rdi,%rdi
    5644:	74 05                	je     564b <_ZN2ML12build4QModelEv.cold+0x487>
    5646:	e8 05 ec ff ff       	call   4250 <_ZdlPv@plt>
    564b:	4c 89 ef             	mov    %r13,%rdi
    564e:	e8 dd 9f 00 00       	call   f630 <_ZN2ML11LayerParamsD1Ev>
    5653:	e9 99 fb ff ff       	jmp    51f1 <_ZN2ML12build4QModelEv.cold+0x2d>
    5658:	4c 89 f7             	mov    %r14,%rdi
    565b:	c5 f8 77             	vzeroupper
    565e:	4d 89 fe             	mov    %r15,%r14
    5661:	e8 ca 9f 00 00       	call   f630 <_ZN2ML11LayerParamsD1Ev>
    5666:	48 8b bc 24 c0 00 00 	mov    0xc0(%rsp),%rdi
    566d:	00 
    566e:	48 85 ff             	test   %rdi,%rdi
    5671:	74 05                	je     5678 <_ZN2ML12build4QModelEv.cold+0x4b4>
    5673:	e8 d8 eb ff ff       	call   4250 <_ZdlPv@plt>
    5678:	48 89 df             	mov    %rbx,%rdi
    567b:	4c 89 f3             	mov    %r14,%rbx
    567e:	e8 ad 9f 00 00       	call   f630 <_ZN2ML11LayerParamsD1Ev>
    5683:	48 8b bc 24 00 01 00 	mov    0x100(%rsp),%rdi
    568a:	00 
    568b:	48 85 ff             	test   %rdi,%rdi
    568e:	74 05                	je     5695 <_ZN2ML12build4QModelEv.cold+0x4d1>
    5690:	e8 bb eb ff ff       	call   4250 <_ZdlPv@plt>
    5695:	4c 89 e7             	mov    %r12,%rdi
    5698:	e8 93 9f 00 00       	call   f630 <_ZN2ML11LayerParamsD1Ev>
    569d:	48 8b bc 24 80 01 00 	mov    0x180(%rsp),%rdi
    56a4:	00 
    56a5:	48 8b 44 24 48       	mov    0x48(%rsp),%rax
    56aa:	48 39 c7             	cmp    %rax,%rdi
    56ad:	74 05                	je     56b4 <_ZN2ML12build4QModelEv.cold+0x4f0>
    56af:	e8 9c eb ff ff       	call   4250 <_ZdlPv@plt>
    56b4:	48 8b bc 24 20 01 00 	mov    0x120(%rsp),%rdi
    56bb:	00 
    56bc:	48 85 ff             	test   %rdi,%rdi
    56bf:	74 05                	je     56c6 <_ZN2ML12build4QModelEv.cold+0x502>
    56c1:	e8 8a eb ff ff       	call   4250 <_ZdlPv@plt>
    56c6:	4c 89 ef             	mov    %r13,%rdi
    56c9:	e8 62 9f 00 00       	call   f630 <_ZN2ML11LayerParamsD1Ev>
    56ce:	48 8b bc 24 a0 01 00 	mov    0x1a0(%rsp),%rdi
    56d5:	00 
    56d6:	48 8b 44 24 40       	mov    0x40(%rsp),%rax
    56db:	48 39 c7             	cmp    %rax,%rdi
    56de:	0f 84 bd fb ff ff    	je     52a1 <_ZN2ML12build4QModelEv.cold+0xdd>
    56e4:	e8 67 eb ff ff       	call   4250 <_ZdlPv@plt>
    56e9:	e9 b3 fb ff ff       	jmp    52a1 <_ZN2ML12build4QModelEv.cold+0xdd>
    56ee:	e8 5d eb ff ff       	call   4250 <_ZdlPv@plt>
    56f3:	e9 8a fb ff ff       	jmp    5282 <_ZN2ML12build4QModelEv.cold+0xbe>
    56f8:	4c 89 f7             	mov    %r14,%rdi
    56fb:	c5 f8 77             	vzeroupper
    56fe:	4d 89 fe             	mov    %r15,%r14
    5701:	e8 2a 9f 00 00       	call   f630 <_ZN2ML11LayerParamsD1Ev>
    5706:	48 8b bc 24 c0 00 00 	mov    0xc0(%rsp),%rdi
    570d:	00 
    570e:	48 85 ff             	test   %rdi,%rdi
    5711:	74 05                	je     5718 <_ZN2ML12build4QModelEv.cold+0x554>
    5713:	e8 38 eb ff ff       	call   4250 <_ZdlPv@plt>
    5718:	48 89 df             	mov    %rbx,%rdi
    571b:	4c 89 f3             	mov    %r14,%rbx
    571e:	e8 0d 9f 00 00       	call   f630 <_ZN2ML11LayerParamsD1Ev>
    5723:	48 8b bc 24 00 01 00 	mov    0x100(%rsp),%rdi
    572a:	00 
    572b:	48 85 ff             	test   %rdi,%rdi
    572e:	74 05                	je     5735 <_ZN2ML12build4QModelEv.cold+0x571>
    5730:	e8 1b eb ff ff       	call   4250 <_ZdlPv@plt>
    5735:	4c 89 e7             	mov    %r12,%rdi
    5738:	e8 f3 9e 00 00       	call   f630 <_ZN2ML11LayerParamsD1Ev>
    573d:	48 8b bc 24 80 01 00 	mov    0x180(%rsp),%rdi
    5744:	00 
    5745:	48 8b 44 24 48       	mov    0x48(%rsp),%rax
    574a:	48 39 c7             	cmp    %rax,%rdi
    574d:	74 05                	je     5754 <_ZN2ML12build4QModelEv.cold+0x590>
    574f:	e8 fc ea ff ff       	call   4250 <_ZdlPv@plt>
    5754:	48 8b bc 24 20 01 00 	mov    0x120(%rsp),%rdi
    575b:	00 
    575c:	48 85 ff             	test   %rdi,%rdi
    575f:	74 05                	je     5766 <_ZN2ML12build4QModelEv.cold+0x5a2>
    5761:	e8 ea ea ff ff       	call   4250 <_ZdlPv@plt>
    5766:	4c 89 ef             	mov    %r13,%rdi
    5769:	e8 c2 9e 00 00       	call   f630 <_ZN2ML11LayerParamsD1Ev>
    576e:	48 8b bc 24 a0 01 00 	mov    0x1a0(%rsp),%rdi
    5775:	00 
    5776:	48 8b 44 24 40       	mov    0x40(%rsp),%rax
    577b:	48 39 c7             	cmp    %rax,%rdi
    577e:	0f 84 1d fb ff ff    	je     52a1 <_ZN2ML12build4QModelEv.cold+0xdd>
    5784:	e8 c7 ea ff ff       	call   4250 <_ZdlPv@plt>
    5789:	e9 13 fb ff ff       	jmp    52a1 <_ZN2ML12build4QModelEv.cold+0xdd>
    578e:	4c 89 e7             	mov    %r12,%rdi
    5791:	c5 f8 77             	vzeroupper
    5794:	e8 97 9e 00 00       	call   f630 <_ZN2ML11LayerParamsD1Ev>
    5799:	48 8b bc 24 a0 01 00 	mov    0x1a0(%rsp),%rdi
    57a0:	00 
    57a1:	48 85 ff             	test   %rdi,%rdi
    57a4:	74 05                	je     57ab <_ZN2ML12build4QModelEv.cold+0x5e7>
    57a6:	e8 a5 ea ff ff       	call   4250 <_ZdlPv@plt>
    57ab:	4c 89 ef             	mov    %r13,%rdi
    57ae:	e8 7d 9e 00 00       	call   f630 <_ZN2ML11LayerParamsD1Ev>
    57b3:	e9 39 fa ff ff       	jmp    51f1 <_ZN2ML12build4QModelEv.cold+0x2d>

00000000000057b8 <_ZN2ML12build8QModelEv.cold>:
    57b8:	4c 89 f7             	mov    %r14,%rdi
    57bb:	c5 f8 77             	vzeroupper
    57be:	e8 8d ea ff ff       	call   4250 <_ZdlPv@plt>
    57c3:	4c 89 e7             	mov    %r12,%rdi
    57c6:	e8 65 9e 00 00       	call   f630 <_ZN2ML11LayerParamsD1Ev>
    57cb:	48 8b bc 24 c0 01 00 	mov    0x1c0(%rsp),%rdi
    57d2:	00 
    57d3:	48 85 ff             	test   %rdi,%rdi
    57d6:	74 05                	je     57dd <_ZN2ML12build8QModelEv.cold+0x25>
    57d8:	e8 73 ea ff ff       	call   4250 <_ZdlPv@plt>
    57dd:	4c 89 ef             	mov    %r13,%rdi
    57e0:	e8 4b 9e 00 00       	call   f630 <_ZN2ML11LayerParamsD1Ev>
    57e5:	48 8b bc 24 00 02 00 	mov    0x200(%rsp),%rdi
    57ec:	00 
    57ed:	48 85 ff             	test   %rdi,%rdi
    57f0:	74 05                	je     57f7 <_ZN2ML12build8QModelEv.cold+0x3f>
    57f2:	e8 59 ea ff ff       	call   4250 <_ZdlPv@plt>
    57f7:	48 8b 7c 24 78       	mov    0x78(%rsp),%rdi
    57fc:	e8 ff 62 02 00       	call   2bb00 <_ZNSt6vectorISt10unique_ptrIN2ML5LayerESt14default_deleteIS2_EESaIS5_EED1Ev>
    5801:	48 89 df             	mov    %rbx,%rdi
    5804:	e8 47 ec ff ff       	call   4450 <_Unwind_Resume@plt>
    5809:	4c 89 f7             	mov    %r14,%rdi
    580c:	c5 f8 77             	vzeroupper
    580f:	4d 89 fe             	mov    %r15,%r14
    5812:	e8 19 9e 00 00       	call   f630 <_ZN2ML11LayerParamsD1Ev>
    5817:	48 8b bc 24 c0 00 00 	mov    0xc0(%rsp),%rdi
    581e:	00 
    581f:	48 85 ff             	test   %rdi,%rdi
    5822:	74 05                	je     5829 <_ZN2ML12build8QModelEv.cold+0x71>
    5824:	e8 27 ea ff ff       	call   4250 <_ZdlPv@plt>
    5829:	48 89 df             	mov    %rbx,%rdi
    582c:	4c 89 f3             	mov    %r14,%rbx
    582f:	e8 fc 9d 00 00       	call   f630 <_ZN2ML11LayerParamsD1Ev>
    5834:	48 8b bc 24 00 01 00 	mov    0x100(%rsp),%rdi
    583b:	00 
    583c:	48 85 ff             	test   %rdi,%rdi
    583f:	74 05                	je     5846 <_ZN2ML12build8QModelEv.cold+0x8e>
    5841:	e8 0a ea ff ff       	call   4250 <_ZdlPv@plt>
    5846:	4c 89 e7             	mov    %r12,%rdi
    5849:	e8 e2 9d 00 00       	call   f630 <_ZN2ML11LayerParamsD1Ev>
    584e:	48 8b bc 24 80 01 00 	mov    0x180(%rsp),%rdi
    5855:	00 
    5856:	48 8b 44 24 48       	mov    0x48(%rsp),%rax
    585b:	48 39 c7             	cmp    %rax,%rdi
    585e:	74 05                	je     5865 <_ZN2ML12build8QModelEv.cold+0xad>
    5860:	e8 eb e9 ff ff       	call   4250 <_ZdlPv@plt>
    5865:	48 8b bc 24 20 01 00 	mov    0x120(%rsp),%rdi
    586c:	00 
    586d:	48 85 ff             	test   %rdi,%rdi
    5870:	0f 85 6c 04 00 00    	jne    5ce2 <_ZN2ML12build8QModelEv.cold+0x52a>
    5876:	4c 89 ef             	mov    %r13,%rdi
    5879:	e8 b2 9d 00 00       	call   f630 <_ZN2ML11LayerParamsD1Ev>
    587e:	48 8b bc 24 a0 01 00 	mov    0x1a0(%rsp),%rdi
    5885:	00 
    5886:	48 8b 44 24 40       	mov    0x40(%rsp),%rax
    588b:	48 39 c7             	cmp    %rax,%rdi
    588e:	74 05                	je     5895 <_ZN2ML12build8QModelEv.cold+0xdd>
    5890:	e8 bb e9 ff ff       	call   4250 <_ZdlPv@plt>
    5895:	48 8b bc 24 40 01 00 	mov    0x140(%rsp),%rdi
    589c:	00 
    589d:	48 85 ff             	test   %rdi,%rdi
    58a0:	0f 85 4c ff ff ff    	jne    57f2 <_ZN2ML12build8QModelEv.cold+0x3a>
    58a6:	e9 4c ff ff ff       	jmp    57f7 <_ZN2ML12build8QModelEv.cold+0x3f>
    58ab:	4c 89 f7             	mov    %r14,%rdi
    58ae:	c5 f8 77             	vzeroupper
    58b1:	4d 89 fe             	mov    %r15,%r14
    58b4:	e8 77 9d 00 00       	call   f630 <_ZN2ML11LayerParamsD1Ev>
    58b9:	48 8b bc 24 c0 00 00 	mov    0xc0(%rsp),%rdi
    58c0:	00 
    58c1:	48 85 ff             	test   %rdi,%rdi
    58c4:	74 05                	je     58cb <_ZN2ML12build8QModelEv.cold+0x113>
    58c6:	e8 85 e9 ff ff       	call   4250 <_ZdlPv@plt>
    58cb:	48 89 df             	mov    %rbx,%rdi
    58ce:	4c 89 f3             	mov    %r14,%rbx
    58d1:	e8 5a 9d 00 00       	call   f630 <_ZN2ML11LayerParamsD1Ev>
    58d6:	48 8b bc 24 00 01 00 	mov    0x100(%rsp),%rdi
    58dd:	00 
    58de:	48 85 ff             	test   %rdi,%rdi
    58e1:	74 05                	je     58e8 <_ZN2ML12build8QModelEv.cold+0x130>
    58e3:	e8 68 e9 ff ff       	call   4250 <_ZdlPv@plt>
    58e8:	4c 89 e7             	mov    %r12,%rdi
    58eb:	e8 40 9d 00 00       	call   f630 <_ZN2ML11LayerParamsD1Ev>
    58f0:	48 8b bc 24 80 01 00 	mov    0x180(%rsp),%rdi
    58f7:	00 
    58f8:	48 8d 84 24 90 01 00 	lea    0x190(%rsp),%rax
    58ff:	00 
    5900:	48 39 c7             	cmp    %rax,%rdi
    5903:	74 05                	je     590a <_ZN2ML12build8QModelEv.cold+0x152>
    5905:	e8 46 e9 ff ff       	call   4250 <_ZdlPv@plt>
    590a:	48 8b bc 24 20 01 00 	mov    0x120(%rsp),%rdi
    5911:	00 
    5912:	48 85 ff             	test   %rdi,%rdi
    5915:	74 05                	je     591c <_ZN2ML12build8QModelEv.cold+0x164>
    5917:	e8 34 e9 ff ff       	call   4250 <_ZdlPv@plt>
    591c:	4c 89 ef             	mov    %r13,%rdi
    591f:	e8 0c 9d 00 00       	call   f630 <_ZN2ML11LayerParamsD1Ev>
    5924:	48 8b bc 24 a0 01 00 	mov    0x1a0(%rsp),%rdi
    592b:	00 
    592c:	48 8d 84 24 b0 01 00 	lea    0x1b0(%rsp),%rax
    5933:	00 
    5934:	48 39 c7             	cmp    %rax,%rdi
    5937:	0f 84 58 ff ff ff    	je     5895 <_ZN2ML12build8QModelEv.cold+0xdd>
    593d:	e8 0e e9 ff ff       	call   4250 <_ZdlPv@plt>
    5942:	e9 4e ff ff ff       	jmp    5895 <_ZN2ML12build8QModelEv.cold+0xdd>
    5947:	48 8b 7c 24 20       	mov    0x20(%rsp),%rdi
    594c:	c5 f8 77             	vzeroupper
    594f:	e8 fc e8 ff ff       	call   4250 <_ZdlPv@plt>
    5954:	4c 89 e7             	mov    %r12,%rdi
    5957:	e8 d4 9c 00 00       	call   f630 <_ZN2ML11LayerParamsD1Ev>
    595c:	48 8b bc 24 c0 01 00 	mov    0x1c0(%rsp),%rdi
    5963:	00 
    5964:	48 85 ff             	test   %rdi,%rdi
    5967:	74 05                	je     596e <_ZN2ML12build8QModelEv.cold+0x1b6>
    5969:	e8 e2 e8 ff ff       	call   4250 <_ZdlPv@plt>
    596e:	4c 89 ef             	mov    %r13,%rdi
    5971:	e8 ba 9c 00 00       	call   f630 <_ZN2ML11LayerParamsD1Ev>
    5976:	e9 6a fe ff ff       	jmp    57e5 <_ZN2ML12build8QModelEv.cold+0x2d>
    597b:	4c 89 f7             	mov    %r14,%rdi
    597e:	c5 f8 77             	vzeroupper
    5981:	4d 89 fe             	mov    %r15,%r14
    5984:	e8 a7 9c 00 00       	call   f630 <_ZN2ML11LayerParamsD1Ev>
    5989:	48 8b bc 24 00 01 00 	mov    0x100(%rsp),%rdi
    5990:	00 
    5991:	48 85 ff             	test   %rdi,%rdi
    5994:	74 05                	je     599b <_ZN2ML12build8QModelEv.cold+0x1e3>
    5996:	e8 b5 e8 ff ff       	call   4250 <_ZdlPv@plt>
    599b:	48 89 df             	mov    %rbx,%rdi
    599e:	4c 89 f3             	mov    %r14,%rbx
    59a1:	e8 8a 9c 00 00       	call   f630 <_ZN2ML11LayerParamsD1Ev>
    59a6:	48 8b bc 24 20 01 00 	mov    0x120(%rsp),%rdi
    59ad:	00 
    59ae:	48 85 ff             	test   %rdi,%rdi
    59b1:	74 05                	je     59b8 <_ZN2ML12build8QModelEv.cold+0x200>
    59b3:	e8 98 e8 ff ff       	call   4250 <_ZdlPv@plt>
    59b8:	4c 89 e7             	mov    %r12,%rdi
    59bb:	e8 70 9c 00 00       	call   f630 <_ZN2ML11LayerParamsD1Ev>
    59c0:	48 8b bc 24 80 01 00 	mov    0x180(%rsp),%rdi
    59c7:	00 
    59c8:	48 8b 44 24 48       	mov    0x48(%rsp),%rax
    59cd:	48 39 c7             	cmp    %rax,%rdi
    59d0:	74 05                	je     59d7 <_ZN2ML12build8QModelEv.cold+0x21f>
    59d2:	e8 79 e8 ff ff       	call   4250 <_ZdlPv@plt>
    59d7:	48 8b bc 24 40 01 00 	mov    0x140(%rsp),%rdi
    59de:	00 
    59df:	48 85 ff             	test   %rdi,%rdi
    59e2:	75 35                	jne    5a19 <_ZN2ML12build8QModelEv.cold+0x261>
    59e4:	4c 89 ef             	mov    %r13,%rdi
    59e7:	e8 44 9c 00 00       	call   f630 <_ZN2ML11LayerParamsD1Ev>
    59ec:	48 8b bc 24 a0 01 00 	mov    0x1a0(%rsp),%rdi
    59f3:	00 
    59f4:	48 8b 44 24 40       	mov    0x40(%rsp),%rax
    59f9:	48 39 c7             	cmp    %rax,%rdi
    59fc:	74 05                	je     5a03 <_ZN2ML12build8QModelEv.cold+0x24b>
    59fe:	e8 4d e8 ff ff       	call   4250 <_ZdlPv@plt>
    5a03:	48 8b bc 24 60 01 00 	mov    0x160(%rsp),%rdi
    5a0a:	00 
    5a0b:	48 85 ff             	test   %rdi,%rdi
    5a0e:	0f 85 de fd ff ff    	jne    57f2 <_ZN2ML12build8QModelEv.cold+0x3a>
    5a14:	e9 de fd ff ff       	jmp    57f7 <_ZN2ML12build8QModelEv.cold+0x3f>
    5a19:	e8 32 e8 ff ff       	call   4250 <_ZdlPv@plt>
    5a1e:	eb c4                	jmp    59e4 <_ZN2ML12build8QModelEv.cold+0x22c>
    5a20:	4c 89 f7             	mov    %r14,%rdi
    5a23:	c5 f8 77             	vzeroupper
    5a26:	4d 89 fe             	mov    %r15,%r14
    5a29:	e8 02 9c 00 00       	call   f630 <_ZN2ML11LayerParamsD1Ev>
    5a2e:	48 8b bc 24 00 01 00 	mov    0x100(%rsp),%rdi
    5a35:	00 
    5a36:	48 85 ff             	test   %rdi,%rdi
    5a39:	74 05                	je     5a40 <_ZN2ML12build8QModelEv.cold+0x288>
    5a3b:	e8 10 e8 ff ff       	call   4250 <_ZdlPv@plt>
    5a40:	48 89 df             	mov    %rbx,%rdi
    5a43:	4c 89 f3             	mov    %r14,%rbx
    5a46:	e8 e5 9b 00 00       	call   f630 <_ZN2ML11LayerParamsD1Ev>
    5a4b:	48 8b bc 24 20 01 00 	mov    0x120(%rsp),%rdi
    5a52:	00 
    5a53:	48 85 ff             	test   %rdi,%rdi
    5a56:	0f 85 7a 01 00 00    	jne    5bd6 <_ZN2ML12build8QModelEv.cold+0x41e>
    5a5c:	4c 89 e7             	mov    %r12,%rdi
    5a5f:	e8 cc 9b 00 00       	call   f630 <_ZN2ML11LayerParamsD1Ev>
    5a64:	48 8b bc 24 80 01 00 	mov    0x180(%rsp),%rdi
    5a6b:	00 
    5a6c:	48 8b 44 24 48       	mov    0x48(%rsp),%rax
    5a71:	48 39 c7             	cmp    %rax,%rdi
    5a74:	74 05                	je     5a7b <_ZN2ML12build8QModelEv.cold+0x2c3>
    5a76:	e8 d5 e7 ff ff       	call   4250 <_ZdlPv@plt>
    5a7b:	48 8b bc 24 40 01 00 	mov    0x140(%rsp),%rdi
    5a82:	00 
    5a83:	48 85 ff             	test   %rdi,%rdi
    5a86:	0f 85 62 01 00 00    	jne    5bee <_ZN2ML12build8QModelEv.cold+0x436>
    5a8c:	4c 89 ef             	mov    %r13,%rdi
    5a8f:	e8 9c 9b 00 00       	call   f630 <_ZN2ML11LayerParamsD1Ev>
    5a94:	48 8b bc 24 a0 01 00 	mov    0x1a0(%rsp),%rdi
    5a9b:	00 
    5a9c:	48 8b 44 24 40       	mov    0x40(%rsp),%rax
    5aa1:	48 39 c7             	cmp    %rax,%rdi
    5aa4:	0f 84 59 ff ff ff    	je     5a03 <_ZN2ML12build8QModelEv.cold+0x24b>
    5aaa:	e8 a1 e7 ff ff       	call   4250 <_ZdlPv@plt>
    5aaf:	e9 4f ff ff ff       	jmp    5a03 <_ZN2ML12build8QModelEv.cold+0x24b>
    5ab4:	4c 89 f7             	mov    %r14,%rdi
    5ab7:	c5 f8 77             	vzeroupper
    5aba:	4d 89 fe             	mov    %r15,%r14
    5abd:	e8 6e 9b 00 00       	call   f630 <_ZN2ML11LayerParamsD1Ev>
    5ac2:	48 8b bc 24 c0 00 00 	mov    0xc0(%rsp),%rdi
    5ac9:	00 
    5aca:	48 85 ff             	test   %rdi,%rdi
    5acd:	74 05                	je     5ad4 <_ZN2ML12build8QModelEv.cold+0x31c>
    5acf:	e8 7c e7 ff ff       	call   4250 <_ZdlPv@plt>
    5ad4:	48 89 df             	mov    %rbx,%rdi
    5ad7:	4c 89 f3             	mov    %r14,%rbx
    5ada:	e8 51 9b 00 00       	call   f630 <_ZN2ML11LayerParamsD1Ev>
    5adf:	48 8b bc 24 00 01 00 	mov    0x100(%rsp),%rdi
    5ae6:	00 
    5ae7:	48 85 ff             	test   %rdi,%rdi
    5aea:	74 05                	je     5af1 <_ZN2ML12build8QModelEv.cold+0x339>
    5aec:	e8 5f e7 ff ff       	call   4250 <_ZdlPv@plt>
    5af1:	4c 89 e7             	mov    %r12,%rdi
    5af4:	e8 37 9b 00 00       	call   f630 <_ZN2ML11LayerParamsD1Ev>
    5af9:	48 8b bc 24 80 01 00 	mov    0x180(%rsp),%rdi
    5b00:	00 
    5b01:	48 8b 44 24 48       	mov    0x48(%rsp),%rax
    5b06:	48 39 c7             	cmp    %rax,%rdi
    5b09:	74 05                	je     5b10 <_ZN2ML12build8QModelEv.cold+0x358>
    5b0b:	e8 40 e7 ff ff       	call   4250 <_ZdlPv@plt>
    5b10:	48 8b bc 24 20 01 00 	mov    0x120(%rsp),%rdi
    5b17:	00 
    5b18:	48 85 ff             	test   %rdi,%rdi
    5b1b:	74 05                	je     5b22 <_ZN2ML12build8QModelEv.cold+0x36a>
    5b1d:	e8 2e e7 ff ff       	call   4250 <_ZdlPv@plt>
    5b22:	4c 89 ef             	mov    %r13,%rdi
    5b25:	e8 06 9b 00 00       	call   f630 <_ZN2ML11LayerParamsD1Ev>
    5b2a:	48 8b bc 24 a0 01 00 	mov    0x1a0(%rsp),%rdi
    5b31:	00 
    5b32:	48 8b 44 24 40       	mov    0x40(%rsp),%rax
    5b37:	48 39 c7             	cmp    %rax,%rdi
    5b3a:	0f 84 55 fd ff ff    	je     5895 <_ZN2ML12build8QModelEv.cold+0xdd>
    5b40:	e8 0b e7 ff ff       	call   4250 <_ZdlPv@plt>
    5b45:	e9 4b fd ff ff       	jmp    5895 <_ZN2ML12build8QModelEv.cold+0xdd>
    5b4a:	4c 89 f7             	mov    %r14,%rdi
    5b4d:	c5 f8 77             	vzeroupper
    5b50:	4d 89 fe             	mov    %r15,%r14
    5b53:	e8 d8 9a 00 00       	call   f630 <_ZN2ML11LayerParamsD1Ev>
    5b58:	48 8b bc 24 c0 00 00 	mov    0xc0(%rsp),%rdi
    5b5f:	00 
    5b60:	48 85 ff             	test   %rdi,%rdi
    5b63:	74 05                	je     5b6a <_ZN2ML12build8QModelEv.cold+0x3b2>
    5b65:	e8 e6 e6 ff ff       	call   4250 <_ZdlPv@plt>
    5b6a:	48 89 df             	mov    %rbx,%rdi
    5b6d:	4c 89 f3             	mov    %r14,%rbx
    5b70:	e8 bb 9a 00 00       	call   f630 <_ZN2ML11LayerParamsD1Ev>
    5b75:	48 8b bc 24 00 01 00 	mov    0x100(%rsp),%rdi
    5b7c:	00 
    5b7d:	48 85 ff             	test   %rdi,%rdi
    5b80:	75 5e                	jne    5be0 <_ZN2ML12build8QModelEv.cold+0x428>
    5b82:	4c 89 e7             	mov    %r12,%rdi
    5b85:	e8 a6 9a 00 00       	call   f630 <_ZN2ML11LayerParamsD1Ev>
    5b8a:	48 8b bc 24 80 01 00 	mov    0x180(%rsp),%rdi
    5b91:	00 
    5b92:	48 8b 44 24 48       	mov    0x48(%rsp),%rax
    5b97:	48 39 c7             	cmp    %rax,%rdi
    5b9a:	74 05                	je     5ba1 <_ZN2ML12build8QModelEv.cold+0x3e9>
    5b9c:	e8 af e6 ff ff       	call   4250 <_ZdlPv@plt>
    5ba1:	48 8b bc 24 20 01 00 	mov    0x120(%rsp),%rdi
    5ba8:	00 
    5ba9:	48 85 ff             	test   %rdi,%rdi
    5bac:	75 39                	jne    5be7 <_ZN2ML12build8QModelEv.cold+0x42f>
    5bae:	4c 89 ef             	mov    %r13,%rdi
    5bb1:	e8 7a 9a 00 00       	call   f630 <_ZN2ML11LayerParamsD1Ev>
    5bb6:	48 8b bc 24 a0 01 00 	mov    0x1a0(%rsp),%rdi
    5bbd:	00 
    5bbe:	48 8b 44 24 40       	mov    0x40(%rsp),%rax
    5bc3:	48 39 c7             	cmp    %rax,%rdi
    5bc6:	0f 84 c9 fc ff ff    	je     5895 <_ZN2ML12build8QModelEv.cold+0xdd>
    5bcc:	e8 7f e6 ff ff       	call   4250 <_ZdlPv@plt>
    5bd1:	e9 bf fc ff ff       	jmp    5895 <_ZN2ML12build8QModelEv.cold+0xdd>
    5bd6:	e8 75 e6 ff ff       	call   4250 <_ZdlPv@plt>
    5bdb:	e9 7c fe ff ff       	jmp    5a5c <_ZN2ML12build8QModelEv.cold+0x2a4>
    5be0:	e8 6b e6 ff ff       	call   4250 <_ZdlPv@plt>
    5be5:	eb 9b                	jmp    5b82 <_ZN2ML12build8QModelEv.cold+0x3ca>
    5be7:	e8 64 e6 ff ff       	call   4250 <_ZdlPv@plt>
    5bec:	eb c0                	jmp    5bae <_ZN2ML12build8QModelEv.cold+0x3f6>
    5bee:	e8 5d e6 ff ff       	call   4250 <_ZdlPv@plt>
    5bf3:	e9 94 fe ff ff       	jmp    5a8c <_ZN2ML12build8QModelEv.cold+0x2d4>
    5bf8:	4c 89 e7             	mov    %r12,%rdi
    5bfb:	c5 f8 77             	vzeroupper
    5bfe:	e8 2d 9a 00 00       	call   f630 <_ZN2ML11LayerParamsD1Ev>
    5c03:	48 8b bc 24 a0 01 00 	mov    0x1a0(%rsp),%rdi
    5c0a:	00 
    5c0b:	48 85 ff             	test   %rdi,%rdi
    5c0e:	74 05                	je     5c15 <_ZN2ML12build8QModelEv.cold+0x45d>
    5c10:	e8 3b e6 ff ff       	call   4250 <_ZdlPv@plt>
    5c15:	4c 89 ef             	mov    %r13,%rdi
    5c18:	e8 13 9a 00 00       	call   f630 <_ZN2ML11LayerParamsD1Ev>
    5c1d:	e9 c3 fb ff ff       	jmp    57e5 <_ZN2ML12build8QModelEv.cold+0x2d>
    5c22:	4c 89 e7             	mov    %r12,%rdi
    5c25:	c5 f8 77             	vzeroupper
    5c28:	e8 03 9a 00 00       	call   f630 <_ZN2ML11LayerParamsD1Ev>
    5c2d:	48 8b bc 24 a0 01 00 	mov    0x1a0(%rsp),%rdi
    5c34:	00 
    5c35:	48 85 ff             	test   %rdi,%rdi
    5c38:	74 05                	je     5c3f <_ZN2ML12build8QModelEv.cold+0x487>
    5c3a:	e8 11 e6 ff ff       	call   4250 <_ZdlPv@plt>
    5c3f:	4c 89 ef             	mov    %r13,%rdi
    5c42:	e8 e9 99 00 00       	call   f630 <_ZN2ML11LayerParamsD1Ev>
    5c47:	e9 99 fb ff ff       	jmp    57e5 <_ZN2ML12build8QModelEv.cold+0x2d>
    5c4c:	4c 89 f7             	mov    %r14,%rdi
    5c4f:	c5 f8 77             	vzeroupper
    5c52:	4d 89 fe             	mov    %r15,%r14
    5c55:	e8 d6 99 00 00       	call   f630 <_ZN2ML11LayerParamsD1Ev>
    5c5a:	48 8b bc 24 c0 00 00 	mov    0xc0(%rsp),%rdi
    5c61:	00 
    5c62:	48 85 ff             	test   %rdi,%rdi
    5c65:	74 05                	je     5c6c <_ZN2ML12build8QModelEv.cold+0x4b4>
    5c67:	e8 e4 e5 ff ff       	call   4250 <_ZdlPv@plt>
    5c6c:	48 89 df             	mov    %rbx,%rdi
    5c6f:	4c 89 f3             	mov    %r14,%rbx
    5c72:	e8 b9 99 00 00       	call   f630 <_ZN2ML11LayerParamsD1Ev>
    5c77:	48 8b bc 24 00 01 00 	mov    0x100(%rsp),%rdi
    5c7e:	00 
    5c7f:	48 85 ff             	test   %rdi,%rdi
    5c82:	74 05                	je     5c89 <_ZN2ML12build8QModelEv.cold+0x4d1>
    5c84:	e8 c7 e5 ff ff       	call   4250 <_ZdlPv@plt>
    5c89:	4c 89 e7             	mov    %r12,%rdi
    5c8c:	e8 9f 99 00 00       	call   f630 <_ZN2ML11LayerParamsD1Ev>
    5c91:	48 8b bc 24 80 01 00 	mov    0x180(%rsp),%rdi
    5c98:	00 
    5c99:	48 8b 44 24 48       	mov    0x48(%rsp),%rax
    5c9e:	48 39 c7             	cmp    %rax,%rdi
    5ca1:	74 05                	je     5ca8 <_ZN2ML12build8QModelEv.cold+0x4f0>
    5ca3:	e8 a8 e5 ff ff       	call   4250 <_ZdlPv@plt>
    5ca8:	48 8b bc 24 20 01 00 	mov    0x120(%rsp),%rdi
    5caf:	00 
    5cb0:	48 85 ff             	test   %rdi,%rdi
    5cb3:	74 05                	je     5cba <_ZN2ML12build8QModelEv.cold+0x502>
    5cb5:	e8 96 e5 ff ff       	call   4250 <_ZdlPv@plt>
    5cba:	4c 89 ef             	mov    %r13,%rdi
    5cbd:	e8 6e 99 00 00       	call   f630 <_ZN2ML11LayerParamsD1Ev>
    5cc2:	48 8b bc 24 a0 01 00 	mov    0x1a0(%rsp),%rdi
    5cc9:	00 
    5cca:	48 8b 44 24 40       	mov    0x40(%rsp),%rax
    5ccf:	48 39 c7             	cmp    %rax,%rdi
    5cd2:	0f 84 bd fb ff ff    	je     5895 <_ZN2ML12build8QModelEv.cold+0xdd>
    5cd8:	e8 73 e5 ff ff       	call   4250 <_ZdlPv@plt>
    5cdd:	e9 b3 fb ff ff       	jmp    5895 <_ZN2ML12build8QModelEv.cold+0xdd>
    5ce2:	e8 69 e5 ff ff       	call   4250 <_ZdlPv@plt>
    5ce7:	e9 8a fb ff ff       	jmp    5876 <_ZN2ML12build8QModelEv.cold+0xbe>
    5cec:	4c 89 f7             	mov    %r14,%rdi
    5cef:	c5 f8 77             	vzeroupper
    5cf2:	4d 89 fe             	mov    %r15,%r14
    5cf5:	e8 36 99 00 00       	call   f630 <_ZN2ML11LayerParamsD1Ev>
    5cfa:	48 8b bc 24 c0 00 00 	mov    0xc0(%rsp),%rdi
    5d01:	00 
    5d02:	48 85 ff             	test   %rdi,%rdi
    5d05:	74 05                	je     5d0c <_ZN2ML12build8QModelEv.cold+0x554>
    5d07:	e8 44 e5 ff ff       	call   4250 <_ZdlPv@plt>
    5d0c:	48 89 df             	mov    %rbx,%rdi
    5d0f:	4c 89 f3             	mov    %r14,%rbx
    5d12:	e8 19 99 00 00       	call   f630 <_ZN2ML11LayerParamsD1Ev>
    5d17:	48 8b bc 24 00 01 00 	mov    0x100(%rsp),%rdi
    5d1e:	00 
    5d1f:	48 85 ff             	test   %rdi,%rdi
    5d22:	74 05                	je     5d29 <_ZN2ML12build8QModelEv.cold+0x571>
    5d24:	e8 27 e5 ff ff       	call   4250 <_ZdlPv@plt>
    5d29:	4c 89 e7             	mov    %r12,%rdi
    5d2c:	e8 ff 98 00 00       	call   f630 <_ZN2ML11LayerParamsD1Ev>
    5d31:	48 8b bc 24 80 01 00 	mov    0x180(%rsp),%rdi
    5d38:	00 
    5d39:	48 8b 44 24 48       	mov    0x48(%rsp),%rax
    5d3e:	48 39 c7             	cmp    %rax,%rdi
    5d41:	74 05                	je     5d48 <_ZN2ML12build8QModelEv.cold+0x590>
    5d43:	e8 08 e5 ff ff       	call   4250 <_ZdlPv@plt>
    5d48:	48 8b bc 24 20 01 00 	mov    0x120(%rsp),%rdi
    5d4f:	00 
    5d50:	48 85 ff             	test   %rdi,%rdi
    5d53:	74 05                	je     5d5a <_ZN2ML12build8QModelEv.cold+0x5a2>
    5d55:	e8 f6 e4 ff ff       	call   4250 <_ZdlPv@plt>
    5d5a:	4c 89 ef             	mov    %r13,%rdi
    5d5d:	e8 ce 98 00 00       	call   f630 <_ZN2ML11LayerParamsD1Ev>
    5d62:	48 8b bc 24 a0 01 00 	mov    0x1a0(%rsp),%rdi
    5d69:	00 
    5d6a:	48 8b 44 24 40       	mov    0x40(%rsp),%rax
    5d6f:	48 39 c7             	cmp    %rax,%rdi
    5d72:	0f 84 1d fb ff ff    	je     5895 <_ZN2ML12build8QModelEv.cold+0xdd>
    5d78:	e8 d3 e4 ff ff       	call   4250 <_ZdlPv@plt>
    5d7d:	e9 13 fb ff ff       	jmp    5895 <_ZN2ML12build8QModelEv.cold+0xdd>
    5d82:	4c 89 e7             	mov    %r12,%rdi
    5d85:	c5 f8 77             	vzeroupper
    5d88:	e8 a3 98 00 00       	call   f630 <_ZN2ML11LayerParamsD1Ev>
    5d8d:	48 8b bc 24 a0 01 00 	mov    0x1a0(%rsp),%rdi
    5d94:	00 
    5d95:	48 85 ff             	test   %rdi,%rdi
    5d98:	74 05                	je     5d9f <_ZN2ML12build8QModelEv.cold+0x5e7>
    5d9a:	e8 b1 e4 ff ff       	call   4250 <_ZdlPv@plt>
    5d9f:	4c 89 ef             	mov    %r13,%rdi
    5da2:	e8 89 98 00 00       	call   f630 <_ZN2ML11LayerParamsD1Ev>
    5da7:	e9 39 fa ff ff       	jmp    57e5 <_ZN2ML12build8QModelEv.cold+0x2d>

0000000000005dac <_ZN2ML13buildToyModelENS_4PathE.cold>:
    5dac:	4c 89 f7             	mov    %r14,%rdi
    5daf:	c5 f8 77             	vzeroupper
    5db2:	4d 89 fe             	mov    %r15,%r14
    5db5:	e8 76 98 00 00       	call   f630 <_ZN2ML11LayerParamsD1Ev>
    5dba:	48 8b bc 24 e0 00 00 	mov    0xe0(%rsp),%rdi
    5dc1:	00 
    5dc2:	48 85 ff             	test   %rdi,%rdi
    5dc5:	74 05                	je     5dcc <_ZN2ML13buildToyModelENS_4PathE.cold+0x20>
    5dc7:	e8 84 e4 ff ff       	call   4250 <_ZdlPv@plt>
    5dcc:	48 89 df             	mov    %rbx,%rdi
    5dcf:	4c 89 f3             	mov    %r14,%rbx
    5dd2:	e8 59 98 00 00       	call   f630 <_ZN2ML11LayerParamsD1Ev>
    5dd7:	48 8b bc 24 20 01 00 	mov    0x120(%rsp),%rdi
    5dde:	00 
    5ddf:	48 85 ff             	test   %rdi,%rdi
    5de2:	75 72                	jne    5e56 <_ZN2ML13buildToyModelENS_4PathE.cold+0xaa>
    5de4:	4c 89 e7             	mov    %r12,%rdi
    5de7:	e8 44 98 00 00       	call   f630 <_ZN2ML11LayerParamsD1Ev>
    5dec:	48 8b bc 24 a0 01 00 	mov    0x1a0(%rsp),%rdi
    5df3:	00 
    5df4:	48 8b 44 24 60       	mov    0x60(%rsp),%rax
    5df9:	48 39 c7             	cmp    %rax,%rdi
    5dfc:	74 05                	je     5e03 <_ZN2ML13buildToyModelENS_4PathE.cold+0x57>
    5dfe:	e8 4d e4 ff ff       	call   4250 <_ZdlPv@plt>
    5e03:	48 8b bc 24 40 01 00 	mov    0x140(%rsp),%rdi
    5e0a:	00 
    5e0b:	48 85 ff             	test   %rdi,%rdi
    5e0e:	75 4d                	jne    5e5d <_ZN2ML13buildToyModelENS_4PathE.cold+0xb1>
    5e10:	4c 89 ef             	mov    %r13,%rdi
    5e13:	e8 18 98 00 00       	call   f630 <_ZN2ML11LayerParamsD1Ev>
    5e18:	48 8b bc 24 c0 01 00 	mov    0x1c0(%rsp),%rdi
    5e1f:	00 
    5e20:	48 8b 44 24 58       	mov    0x58(%rsp),%rax
    5e25:	48 39 c7             	cmp    %rax,%rdi
    5e28:	74 05                	je     5e2f <_ZN2ML13buildToyModelENS_4PathE.cold+0x83>
    5e2a:	e8 21 e4 ff ff       	call   4250 <_ZdlPv@plt>
    5e2f:	48 8b bc 24 60 01 00 	mov    0x160(%rsp),%rdi
    5e36:	00 
    5e37:	48 85 ff             	test   %rdi,%rdi
    5e3a:	74 05                	je     5e41 <_ZN2ML13buildToyModelENS_4PathE.cold+0x95>
    5e3c:	e8 0f e4 ff ff       	call   4250 <_ZdlPv@plt>
    5e41:	48 8b bc 24 90 00 00 	mov    0x90(%rsp),%rdi
    5e48:	00 
    5e49:	e8 b2 5c 02 00       	call   2bb00 <_ZNSt6vectorISt10unique_ptrIN2ML5LayerESt14default_deleteIS2_EESaIS5_EED1Ev>
    5e4e:	48 89 df             	mov    %rbx,%rdi
    5e51:	e8 fa e5 ff ff       	call   4450 <_Unwind_Resume@plt>
    5e56:	e8 f5 e3 ff ff       	call   4250 <_ZdlPv@plt>
    5e5b:	eb 87                	jmp    5de4 <_ZN2ML13buildToyModelENS_4PathE.cold+0x38>
    5e5d:	e8 ee e3 ff ff       	call   4250 <_ZdlPv@plt>
    5e62:	eb ac                	jmp    5e10 <_ZN2ML13buildToyModelENS_4PathE.cold+0x64>
    5e64:	48 8b 7c 24 38       	mov    0x38(%rsp),%rdi
    5e69:	c5 f8 77             	vzeroupper
    5e6c:	e8 df e3 ff ff       	call   4250 <_ZdlPv@plt>
    5e71:	4c 89 e7             	mov    %r12,%rdi
    5e74:	e8 b7 97 00 00       	call   f630 <_ZN2ML11LayerParamsD1Ev>
    5e79:	48 8b bc 24 e0 01 00 	mov    0x1e0(%rsp),%rdi
    5e80:	00 
    5e81:	48 85 ff             	test   %rdi,%rdi
    5e84:	75 5f                	jne    5ee5 <_ZN2ML13buildToyModelENS_4PathE.cold+0x139>
    5e86:	4c 89 ef             	mov    %r13,%rdi
    5e89:	e8 a2 97 00 00       	call   f630 <_ZN2ML11LayerParamsD1Ev>
    5e8e:	48 8b bc 24 20 02 00 	mov    0x220(%rsp),%rdi
    5e95:	00 
    5e96:	48 85 ff             	test   %rdi,%rdi
    5e99:	74 a6                	je     5e41 <_ZN2ML13buildToyModelENS_4PathE.cold+0x95>
    5e9b:	e8 b0 e3 ff ff       	call   4250 <_ZdlPv@plt>
    5ea0:	eb 9f                	jmp    5e41 <_ZN2ML13buildToyModelENS_4PathE.cold+0x95>
    5ea2:	4c 89 f7             	mov    %r14,%rdi
    5ea5:	c5 f8 77             	vzeroupper
    5ea8:	e8 a3 e3 ff ff       	call   4250 <_ZdlPv@plt>
    5ead:	4c 89 e7             	mov    %r12,%rdi
    5eb0:	e8 7b 97 00 00       	call   f630 <_ZN2ML11LayerParamsD1Ev>
    5eb5:	48 8b bc 24 e0 01 00 	mov    0x1e0(%rsp),%rdi
    5ebc:	00 
    5ebd:	48 85 ff             	test   %rdi,%rdi
    5ec0:	75 2a                	jne    5eec <_ZN2ML13buildToyModelENS_4PathE.cold+0x140>
    5ec2:	4c 89 ef             	mov    %r13,%rdi
    5ec5:	e8 66 97 00 00       	call   f630 <_ZN2ML11LayerParamsD1Ev>
    5eca:	48 8b bc 24 20 02 00 	mov    0x220(%rsp),%rdi
    5ed1:	00 
    5ed2:	48 85 ff             	test   %rdi,%rdi
    5ed5:	0f 84 66 ff ff ff    	je     5e41 <_ZN2ML13buildToyModelENS_4PathE.cold+0x95>
    5edb:	e8 70 e3 ff ff       	call   4250 <_ZdlPv@plt>
    5ee0:	e9 5c ff ff ff       	jmp    5e41 <_ZN2ML13buildToyModelENS_4PathE.cold+0x95>
    5ee5:	e8 66 e3 ff ff       	call   4250 <_ZdlPv@plt>
    5eea:	eb 9a                	jmp    5e86 <_ZN2ML13buildToyModelENS_4PathE.cold+0xda>
    5eec:	e8 5f e3 ff ff       	call   4250 <_ZdlPv@plt>
    5ef1:	eb cf                	jmp    5ec2 <_ZN2ML13buildToyModelENS_4PathE.cold+0x116>
    5ef3:	48 8b bc 24 a0 02 00 	mov    0x2a0(%rsp),%rdi
    5efa:	00 
    5efb:	48 8d 84 24 b0 02 00 	lea    0x2b0(%rsp),%rax
    5f02:	00 
    5f03:	48 39 c7             	cmp    %rax,%rdi
    5f06:	0f 84 bd 00 00 00    	je     5fc9 <_ZN2ML13buildToyModelENS_4PathE.cold+0x21d>
    5f0c:	c5 f8 77             	vzeroupper
    5f0f:	e8 3c e3 ff ff       	call   4250 <_ZdlPv@plt>
    5f14:	e9 28 ff ff ff       	jmp    5e41 <_ZN2ML13buildToyModelENS_4PathE.cold+0x95>
    5f19:	4c 89 f7             	mov    %r14,%rdi
    5f1c:	c5 f8 77             	vzeroupper
    5f1f:	4d 89 fe             	mov    %r15,%r14
    5f22:	e8 09 97 00 00       	call   f630 <_ZN2ML11LayerParamsD1Ev>
    5f27:	48 8b bc 24 e0 00 00 	mov    0xe0(%rsp),%rdi
    5f2e:	00 
    5f2f:	48 85 ff             	test   %rdi,%rdi
    5f32:	74 05                	je     5f39 <_ZN2ML13buildToyModelENS_4PathE.cold+0x18d>
    5f34:	e8 17 e3 ff ff       	call   4250 <_ZdlPv@plt>
    5f39:	48 89 df             	mov    %rbx,%rdi
    5f3c:	4c 89 f3             	mov    %r14,%rbx
    5f3f:	e8 ec 96 00 00       	call   f630 <_ZN2ML11LayerParamsD1Ev>
    5f44:	48 8b bc 24 20 01 00 	mov    0x120(%rsp),%rdi
    5f4b:	00 
    5f4c:	48 85 ff             	test   %rdi,%rdi
    5f4f:	74 05                	je     5f56 <_ZN2ML13buildToyModelENS_4PathE.cold+0x1aa>
    5f51:	e8 fa e2 ff ff       	call   4250 <_ZdlPv@plt>
    5f56:	4c 89 e7             	mov    %r12,%rdi
    5f59:	e8 d2 96 00 00       	call   f630 <_ZN2ML11LayerParamsD1Ev>
    5f5e:	48 8b bc 24 a0 01 00 	mov    0x1a0(%rsp),%rdi
    5f65:	00 
    5f66:	48 8d 84 24 b0 01 00 	lea    0x1b0(%rsp),%rax
    5f6d:	00 
    5f6e:	48 39 c7             	cmp    %rax,%rdi
    5f71:	74 05                	je     5f78 <_ZN2ML13buildToyModelENS_4PathE.cold+0x1cc>
    5f73:	e8 d8 e2 ff ff       	call   4250 <_ZdlPv@plt>
    5f78:	48 8b bc 24 40 01 00 	mov    0x140(%rsp),%rdi
    5f7f:	00 
    5f80:	48 85 ff             	test   %rdi,%rdi
    5f83:	75 3d                	jne    5fc2 <_ZN2ML13buildToyModelENS_4PathE.cold+0x216>
    5f85:	4c 89 ef             	mov    %r13,%rdi
    5f88:	e8 a3 96 00 00       	call   f630 <_ZN2ML11LayerParamsD1Ev>
    5f8d:	48 8b bc 24 c0 01 00 	mov    0x1c0(%rsp),%rdi
    5f94:	00 
    5f95:	48 8d 84 24 d0 01 00 	lea    0x1d0(%rsp),%rax
    5f9c:	00 
    5f9d:	48 39 c7             	cmp    %rax,%rdi
    5fa0:	74 05                	je     5fa7 <_ZN2ML13buildToyModelENS_4PathE.cold+0x1fb>
    5fa2:	e8 a9 e2 ff ff       	call   4250 <_ZdlPv@plt>
    5fa7:	48 8b bc 24 60 01 00 	mov    0x160(%rsp),%rdi
    5fae:	00 
    5faf:	48 85 ff             	test   %rdi,%rdi
    5fb2:	0f 84 89 fe ff ff    	je     5e41 <_ZN2ML13buildToyModelENS_4PathE.cold+0x95>
    5fb8:	e8 93 e2 ff ff       	call   4250 <_ZdlPv@plt>
    5fbd:	e9 7f fe ff ff       	jmp    5e41 <_ZN2ML13buildToyModelENS_4PathE.cold+0x95>
    5fc2:	e8 89 e2 ff ff       	call   4250 <_ZdlPv@plt>
    5fc7:	eb bc                	jmp    5f85 <_ZN2ML13buildToyModelENS_4PathE.cold+0x1d9>
    5fc9:	c5 f8 77             	vzeroupper
    5fcc:	e9 70 fe ff ff       	jmp    5e41 <_ZN2ML13buildToyModelENS_4PathE.cold+0x95>
    5fd1:	4c 89 f7             	mov    %r14,%rdi
    5fd4:	c5 f8 77             	vzeroupper
    5fd7:	4d 89 fe             	mov    %r15,%r14
    5fda:	e8 51 96 00 00       	call   f630 <_ZN2ML11LayerParamsD1Ev>
    5fdf:	48 8b bc 24 20 01 00 	mov    0x120(%rsp),%rdi
    5fe6:	00 
    5fe7:	48 85 ff             	test   %rdi,%rdi
    5fea:	74 05                	je     5ff1 <_ZN2ML13buildToyModelENS_4PathE.cold+0x245>
    5fec:	e8 5f e2 ff ff       	call   4250 <_ZdlPv@plt>
    5ff1:	48 89 df             	mov    %rbx,%rdi
    5ff4:	4c 89 f3             	mov    %r14,%rbx
    5ff7:	e8 34 96 00 00       	call   f630 <_ZN2ML11LayerParamsD1Ev>
    5ffc:	48 8b bc 24 40 01 00 	mov    0x140(%rsp),%rdi
    6003:	00 
    6004:	48 85 ff             	test   %rdi,%rdi
    6007:	74 05                	je     600e <_ZN2ML13buildToyModelENS_4PathE.cold+0x262>
    6009:	e8 42 e2 ff ff       	call   4250 <_ZdlPv@plt>
    600e:	4c 89 e7             	mov    %r12,%rdi
    6011:	e8 1a 96 00 00       	call   f630 <_ZN2ML11LayerParamsD1Ev>
    6016:	48 8b bc 24 a0 01 00 	mov    0x1a0(%rsp),%rdi
    601d:	00 
    601e:	48 8b 44 24 60       	mov    0x60(%rsp),%rax
    6023:	48 39 c7             	cmp    %rax,%rdi
    6026:	74 05                	je     602d <_ZN2ML13buildToyModelENS_4PathE.cold+0x281>
    6028:	e8 23 e2 ff ff       	call   4250 <_ZdlPv@plt>
    602d:	48 8b bc 24 60 01 00 	mov    0x160(%rsp),%rdi
    6034:	00 
    6035:	48 85 ff             	test   %rdi,%rdi
    6038:	75 3a                	jne    6074 <_ZN2ML13buildToyModelENS_4PathE.cold+0x2c8>
    603a:	4c 89 ef             	mov    %r13,%rdi
    603d:	e8 ee 95 00 00       	call   f630 <_ZN2ML11LayerParamsD1Ev>
    6042:	48 8b bc 24 c0 01 00 	mov    0x1c0(%rsp),%rdi
    6049:	00 
    604a:	48 8b 44 24 58       	mov    0x58(%rsp),%rax
    604f:	48 39 c7             	cmp    %rax,%rdi
    6052:	74 05                	je     6059 <_ZN2ML13buildToyModelENS_4PathE.cold+0x2ad>
    6054:	e8 f7 e1 ff ff       	call   4250 <_ZdlPv@plt>
    6059:	48 8b bc 24 80 01 00 	mov    0x180(%rsp),%rdi
    6060:	00 
    6061:	48 85 ff             	test   %rdi,%rdi
    6064:	0f 84 d7 fd ff ff    	je     5e41 <_ZN2ML13buildToyModelENS_4PathE.cold+0x95>
    606a:	e8 e1 e1 ff ff       	call   4250 <_ZdlPv@plt>
    606f:	e9 cd fd ff ff       	jmp    5e41 <_ZN2ML13buildToyModelENS_4PathE.cold+0x95>
    6074:	e8 d7 e1 ff ff       	call   4250 <_ZdlPv@plt>
    6079:	eb bf                	jmp    603a <_ZN2ML13buildToyModelENS_4PathE.cold+0x28e>
    607b:	4c 89 f7             	mov    %r14,%rdi
    607e:	c5 f8 77             	vzeroupper
    6081:	4d 89 fe             	mov    %r15,%r14
    6084:	e8 a7 95 00 00       	call   f630 <_ZN2ML11LayerParamsD1Ev>
    6089:	48 8b bc 24 20 01 00 	mov    0x120(%rsp),%rdi
    6090:	00 
    6091:	48 85 ff             	test   %rdi,%rdi
    6094:	74 05                	je     609b <_ZN2ML13buildToyModelENS_4PathE.cold+0x2ef>
    6096:	e8 b5 e1 ff ff       	call   4250 <_ZdlPv@plt>
    609b:	48 89 df             	mov    %rbx,%rdi
    609e:	4c 89 f3             	mov    %r14,%rbx
    60a1:	e8 8a 95 00 00       	call   f630 <_ZN2ML11LayerParamsD1Ev>
    60a6:	48 8b bc 24 40 01 00 	mov    0x140(%rsp),%rdi
    60ad:	00 
    60ae:	48 85 ff             	test   %rdi,%rdi
    60b1:	0f 85 b4 01 00 00    	jne    626b <_ZN2ML13buildToyModelENS_4PathE.cold+0x4bf>
    60b7:	4c 89 e7             	mov    %r12,%rdi
    60ba:	e8 71 95 00 00       	call   f630 <_ZN2ML11LayerParamsD1Ev>
    60bf:	48 8b bc 24 a0 01 00 	mov    0x1a0(%rsp),%rdi
    60c6:	00 
    60c7:	48 8b 44 24 60       	mov    0x60(%rsp),%rax
    60cc:	48 39 c7             	cmp    %rax,%rdi
    60cf:	74 05                	je     60d6 <_ZN2ML13buildToyModelENS_4PathE.cold+0x32a>
    60d1:	e8 7a e1 ff ff       	call   4250 <_ZdlPv@plt>
    60d6:	48 8b bc 24 60 01 00 	mov    0x160(%rsp),%rdi
    60dd:	00 
    60de:	48 85 ff             	test   %rdi,%rdi
    60e1:	0f 85 8e 01 00 00    	jne    6275 <_ZN2ML13buildToyModelENS_4PathE.cold+0x4c9>
    60e7:	4c 89 ef             	mov    %r13,%rdi
    60ea:	e8 41 95 00 00       	call   f630 <_ZN2ML11LayerParamsD1Ev>
    60ef:	48 8b bc 24 c0 01 00 	mov    0x1c0(%rsp),%rdi
    60f6:	00 
    60f7:	48 8b 44 24 58       	mov    0x58(%rsp),%rax
    60fc:	48 39 c7             	cmp    %rax,%rdi
    60ff:	74 05                	je     6106 <_ZN2ML13buildToyModelENS_4PathE.cold+0x35a>
    6101:	e8 4a e1 ff ff       	call   4250 <_ZdlPv@plt>
    6106:	48 8b bc 24 80 01 00 	mov    0x180(%rsp),%rdi
    610d:	00 
    610e:	48 85 ff             	test   %rdi,%rdi
    6111:	0f 84 2a fd ff ff    	je     5e41 <_ZN2ML13buildToyModelENS_4PathE.cold+0x95>
    6117:	e8 34 e1 ff ff       	call   4250 <_ZdlPv@plt>
    611c:	e9 20 fd ff ff       	jmp    5e41 <_ZN2ML13buildToyModelENS_4PathE.cold+0x95>
    6121:	4c 89 f7             	mov    %r14,%rdi
    6124:	c5 f8 77             	vzeroupper
    6127:	4d 89 fe             	mov    %r15,%r14
    612a:	e8 01 95 00 00       	call   f630 <_ZN2ML11LayerParamsD1Ev>
    612f:	48 8b bc 24 e0 00 00 	mov    0xe0(%rsp),%rdi
    6136:	00 
    6137:	48 85 ff             	test   %rdi,%rdi
    613a:	74 05                	je     6141 <_ZN2ML13buildToyModelENS_4PathE.cold+0x395>
    613c:	e8 0f e1 ff ff       	call   4250 <_ZdlPv@plt>
    6141:	48 89 df             	mov    %rbx,%rdi
    6144:	4c 89 f3             	mov    %r14,%rbx
    6147:	e8 e4 94 00 00       	call   f630 <_ZN2ML11LayerParamsD1Ev>
    614c:	48 8b bc 24 20 01 00 	mov    0x120(%rsp),%rdi
    6153:	00 
    6154:	48 85 ff             	test   %rdi,%rdi
    6157:	74 05                	je     615e <_ZN2ML13buildToyModelENS_4PathE.cold+0x3b2>
    6159:	e8 f2 e0 ff ff       	call   4250 <_ZdlPv@plt>
    615e:	4c 89 e7             	mov    %r12,%rdi
    6161:	e8 ca 94 00 00       	call   f630 <_ZN2ML11LayerParamsD1Ev>
    6166:	48 8b bc 24 a0 01 00 	mov    0x1a0(%rsp),%rdi
    616d:	00 
    616e:	48 8b 44 24 60       	mov    0x60(%rsp),%rax
    6173:	48 39 c7             	cmp    %rax,%rdi
    6176:	74 05                	je     617d <_ZN2ML13buildToyModelENS_4PathE.cold+0x3d1>
    6178:	e8 d3 e0 ff ff       	call   4250 <_ZdlPv@plt>
    617d:	48 8b bc 24 40 01 00 	mov    0x140(%rsp),%rdi
    6184:	00 
    6185:	48 85 ff             	test   %rdi,%rdi
    6188:	74 05                	je     618f <_ZN2ML13buildToyModelENS_4PathE.cold+0x3e3>
    618a:	e8 c1 e0 ff ff       	call   4250 <_ZdlPv@plt>
    618f:	4c 89 ef             	mov    %r13,%rdi
    6192:	e8 99 94 00 00       	call   f630 <_ZN2ML11LayerParamsD1Ev>
    6197:	48 8b bc 24 c0 01 00 	mov    0x1c0(%rsp),%rdi
    619e:	00 
    619f:	48 8b 44 24 58       	mov    0x58(%rsp),%rax
    61a4:	48 39 c7             	cmp    %rax,%rdi
    61a7:	74 05                	je     61ae <_ZN2ML13buildToyModelENS_4PathE.cold+0x402>
    61a9:	e8 a2 e0 ff ff       	call   4250 <_ZdlPv@plt>
    61ae:	48 8b bc 24 60 01 00 	mov    0x160(%rsp),%rdi
    61b5:	00 
    61b6:	48 85 ff             	test   %rdi,%rdi
    61b9:	0f 84 82 fc ff ff    	je     5e41 <_ZN2ML13buildToyModelENS_4PathE.cold+0x95>
    61bf:	e8 8c e0 ff ff       	call   4250 <_ZdlPv@plt>
    61c4:	e9 78 fc ff ff       	jmp    5e41 <_ZN2ML13buildToyModelENS_4PathE.cold+0x95>
    61c9:	4c 89 f7             	mov    %r14,%rdi
    61cc:	c5 f8 77             	vzeroupper
    61cf:	4d 89 fe             	mov    %r15,%r14
    61d2:	e8 59 94 00 00       	call   f630 <_ZN2ML11LayerParamsD1Ev>
    61d7:	48 8b bc 24 e0 00 00 	mov    0xe0(%rsp),%rdi
    61de:	00 
    61df:	48 85 ff             	test   %rdi,%rdi
    61e2:	74 05                	je     61e9 <_ZN2ML13buildToyModelENS_4PathE.cold+0x43d>
    61e4:	e8 67 e0 ff ff       	call   4250 <_ZdlPv@plt>
    61e9:	48 89 df             	mov    %rbx,%rdi
    61ec:	4c 89 f3             	mov    %r14,%rbx
    61ef:	e8 3c 94 00 00       	call   f630 <_ZN2ML11LayerParamsD1Ev>
    61f4:	48 8b bc 24 20 01 00 	mov    0x120(%rsp),%rdi
    61fb:	00 
    61fc:	48 85 ff             	test   %rdi,%rdi
    61ff:	0f 85 1d 02 00 00    	jne    6422 <_ZN2ML13buildToyModelENS_4PathE.cold+0x676>
    6205:	4c 89 e7             	mov    %r12,%rdi
    6208:	e8 23 94 00 00       	call   f630 <_ZN2ML11LayerParamsD1Ev>
    620d:	48 8b bc 24 a0 01 00 	mov    0x1a0(%rsp),%rdi
    6214:	00 
    6215:	48 8b 44 24 60       	mov    0x60(%rsp),%rax
    621a:	48 39 c7             	cmp    %rax,%rdi
    621d:	74 05                	je     6224 <_ZN2ML13buildToyModelENS_4PathE.cold+0x478>
    621f:	e8 2c e0 ff ff       	call   4250 <_ZdlPv@plt>
    6224:	48 8b bc 24 40 01 00 	mov    0x140(%rsp),%rdi
    622b:	00 
    622c:	48 85 ff             	test   %rdi,%rdi
    622f:	75 4e                	jne    627f <_ZN2ML13buildToyModelENS_4PathE.cold+0x4d3>
    6231:	4c 89 ef             	mov    %r13,%rdi
    6234:	e8 f7 93 00 00       	call   f630 <_ZN2ML11LayerParamsD1Ev>
    6239:	48 8b bc 24 c0 01 00 	mov    0x1c0(%rsp),%rdi
    6240:	00 
    6241:	48 8b 44 24 58       	mov    0x58(%rsp),%rax
    6246:	48 39 c7             	cmp    %rax,%rdi
    6249:	74 05                	je     6250 <_ZN2ML13buildToyModelENS_4PathE.cold+0x4a4>
    624b:	e8 00 e0 ff ff       	call   4250 <_ZdlPv@plt>
    6250:	48 8b bc 24 60 01 00 	mov    0x160(%rsp),%rdi
    6257:	00 
    6258:	48 85 ff             	test   %rdi,%rdi
    625b:	0f 84 e0 fb ff ff    	je     5e41 <_ZN2ML13buildToyModelENS_4PathE.cold+0x95>
    6261:	e8 ea df ff ff       	call   4250 <_ZdlPv@plt>
    6266:	e9 d6 fb ff ff       	jmp    5e41 <_ZN2ML13buildToyModelENS_4PathE.cold+0x95>
    626b:	e8 e0 df ff ff       	call   4250 <_ZdlPv@plt>
    6270:	e9 42 fe ff ff       	jmp    60b7 <_ZN2ML13buildToyModelENS_4PathE.cold+0x30b>
    6275:	e8 d6 df ff ff       	call   4250 <_ZdlPv@plt>
    627a:	e9 68 fe ff ff       	jmp    60e7 <_ZN2ML13buildToyModelENS_4PathE.cold+0x33b>
    627f:	e8 cc df ff ff       	call   4250 <_ZdlPv@plt>
    6284:	eb ab                	jmp    6231 <_ZN2ML13buildToyModelENS_4PathE.cold+0x485>
    6286:	4c 89 f7             	mov    %r14,%rdi
    6289:	c5 f8 77             	vzeroupper
    628c:	4d 89 fe             	mov    %r15,%r14
    628f:	e8 9c 93 00 00       	call   f630 <_ZN2ML11LayerParamsD1Ev>
    6294:	48 8b bc 24 e0 00 00 	mov    0xe0(%rsp),%rdi
    629b:	00 
    629c:	48 85 ff             	test   %rdi,%rdi
    629f:	74 05                	je     62a6 <_ZN2ML13buildToyModelENS_4PathE.cold+0x4fa>
    62a1:	e8 aa df ff ff       	call   4250 <_ZdlPv@plt>
    62a6:	48 89 df             	mov    %rbx,%rdi
    62a9:	4c 89 f3             	mov    %r14,%rbx
    62ac:	e8 7f 93 00 00       	call   f630 <_ZN2ML11LayerParamsD1Ev>
    62b1:	48 8b bc 24 20 01 00 	mov    0x120(%rsp),%rdi
    62b8:	00 
    62b9:	48 85 ff             	test   %rdi,%rdi
    62bc:	75 66                	jne    6324 <_ZN2ML13buildToyModelENS_4PathE.cold+0x578>
    62be:	4c 89 e7             	mov    %r12,%rdi
    62c1:	e8 6a 93 00 00       	call   f630 <_ZN2ML11LayerParamsD1Ev>
    62c6:	48 8b bc 24 a0 01 00 	mov    0x1a0(%rsp),%rdi
    62cd:	00 
    62ce:	48 8b 44 24 60       	mov    0x60(%rsp),%rax
    62d3:	48 39 c7             	cmp    %rax,%rdi
    62d6:	74 05                	je     62dd <_ZN2ML13buildToyModelENS_4PathE.cold+0x531>
    62d8:	e8 73 df ff ff       	call   4250 <_ZdlPv@plt>
    62dd:	48 8b bc 24 40 01 00 	mov    0x140(%rsp),%rdi
    62e4:	00 
    62e5:	48 85 ff             	test   %rdi,%rdi
    62e8:	75 41                	jne    632b <_ZN2ML13buildToyModelENS_4PathE.cold+0x57f>
    62ea:	4c 89 ef             	mov    %r13,%rdi
    62ed:	e8 3e 93 00 00       	call   f630 <_ZN2ML11LayerParamsD1Ev>
    62f2:	48 8b bc 24 c0 01 00 	mov    0x1c0(%rsp),%rdi
    62f9:	00 
    62fa:	48 8b 44 24 58       	mov    0x58(%rsp),%rax
    62ff:	48 39 c7             	cmp    %rax,%rdi
    6302:	74 05                	je     6309 <_ZN2ML13buildToyModelENS_4PathE.cold+0x55d>
    6304:	e8 47 df ff ff       	call   4250 <_ZdlPv@plt>
    6309:	48 8b bc 24 60 01 00 	mov    0x160(%rsp),%rdi
    6310:	00 
    6311:	48 85 ff             	test   %rdi,%rdi
    6314:	0f 84 27 fb ff ff    	je     5e41 <_ZN2ML13buildToyModelENS_4PathE.cold+0x95>
    631a:	e8 31 df ff ff       	call   4250 <_ZdlPv@plt>
    631f:	e9 1d fb ff ff       	jmp    5e41 <_ZN2ML13buildToyModelENS_4PathE.cold+0x95>
    6324:	e8 27 df ff ff       	call   4250 <_ZdlPv@plt>
    6329:	eb 93                	jmp    62be <_ZN2ML13buildToyModelENS_4PathE.cold+0x512>
    632b:	e8 20 df ff ff       	call   4250 <_ZdlPv@plt>
    6330:	eb b8                	jmp    62ea <_ZN2ML13buildToyModelENS_4PathE.cold+0x53e>
    6332:	4c 89 e7             	mov    %r12,%rdi
    6335:	c5 f8 77             	vzeroupper
    6338:	e8 f3 92 00 00       	call   f630 <_ZN2ML11LayerParamsD1Ev>
    633d:	48 8b bc 24 c0 01 00 	mov    0x1c0(%rsp),%rdi
    6344:	00 
    6345:	48 85 ff             	test   %rdi,%rdi
    6348:	0f 85 ca 00 00 00    	jne    6418 <_ZN2ML13buildToyModelENS_4PathE.cold+0x66c>
    634e:	4c 89 ef             	mov    %r13,%rdi
    6351:	e8 da 92 00 00       	call   f630 <_ZN2ML11LayerParamsD1Ev>
    6356:	48 8b bc 24 20 02 00 	mov    0x220(%rsp),%rdi
    635d:	00 
    635e:	48 85 ff             	test   %rdi,%rdi
    6361:	0f 84 da fa ff ff    	je     5e41 <_ZN2ML13buildToyModelENS_4PathE.cold+0x95>
    6367:	e8 e4 de ff ff       	call   4250 <_ZdlPv@plt>
    636c:	e9 d0 fa ff ff       	jmp    5e41 <_ZN2ML13buildToyModelENS_4PathE.cold+0x95>
    6371:	4c 89 f7             	mov    %r14,%rdi
    6374:	c5 f8 77             	vzeroupper
    6377:	4d 89 fe             	mov    %r15,%r14
    637a:	e8 b1 92 00 00       	call   f630 <_ZN2ML11LayerParamsD1Ev>
    637f:	48 8b bc 24 e0 00 00 	mov    0xe0(%rsp),%rdi
    6386:	00 
    6387:	48 85 ff             	test   %rdi,%rdi
    638a:	74 05                	je     6391 <_ZN2ML13buildToyModelENS_4PathE.cold+0x5e5>
    638c:	e8 bf de ff ff       	call   4250 <_ZdlPv@plt>
    6391:	48 89 df             	mov    %rbx,%rdi
    6394:	4c 89 f3             	mov    %r14,%rbx
    6397:	e8 94 92 00 00       	call   f630 <_ZN2ML11LayerParamsD1Ev>
    639c:	48 8b bc 24 20 01 00 	mov    0x120(%rsp),%rdi
    63a3:	00 
    63a4:	48 85 ff             	test   %rdi,%rdi
    63a7:	0f 85 bf 00 00 00    	jne    646c <_ZN2ML13buildToyModelENS_4PathE.cold+0x6c0>
    63ad:	4c 89 e7             	mov    %r12,%rdi
    63b0:	e8 7b 92 00 00       	call   f630 <_ZN2ML11LayerParamsD1Ev>
    63b5:	48 8b bc 24 a0 01 00 	mov    0x1a0(%rsp),%rdi
    63bc:	00 
    63bd:	48 8b 44 24 60       	mov    0x60(%rsp),%rax
    63c2:	48 39 c7             	cmp    %rax,%rdi
    63c5:	74 05                	je     63cc <_ZN2ML13buildToyModelENS_4PathE.cold+0x620>
    63c7:	e8 84 de ff ff       	call   4250 <_ZdlPv@plt>
    63cc:	48 8b bc 24 40 01 00 	mov    0x140(%rsp),%rdi
    63d3:	00 
    63d4:	48 85 ff             	test   %rdi,%rdi
    63d7:	74 05                	je     63de <_ZN2ML13buildToyModelENS_4PathE.cold+0x632>
    63d9:	e8 72 de ff ff       	call   4250 <_ZdlPv@plt>
    63de:	4c 89 ef             	mov    %r13,%rdi
    63e1:	e8 4a 92 00 00       	call   f630 <_ZN2ML11LayerParamsD1Ev>
    63e6:	48 8b bc 24 c0 01 00 	mov    0x1c0(%rsp),%rdi
    63ed:	00 
    63ee:	48 8b 44 24 58       	mov    0x58(%rsp),%rax
    63f3:	48 39 c7             	cmp    %rax,%rdi
    63f6:	74 05                	je     63fd <_ZN2ML13buildToyModelENS_4PathE.cold+0x651>
    63f8:	e8 53 de ff ff       	call   4250 <_ZdlPv@plt>
    63fd:	48 8b bc 24 60 01 00 	mov    0x160(%rsp),%rdi
    6404:	00 
    6405:	48 85 ff             	test   %rdi,%rdi
    6408:	0f 84 33 fa ff ff    	je     5e41 <_ZN2ML13buildToyModelENS_4PathE.cold+0x95>
    640e:	e8 3d de ff ff       	call   4250 <_ZdlPv@plt>
    6413:	e9 29 fa ff ff       	jmp    5e41 <_ZN2ML13buildToyModelENS_4PathE.cold+0x95>
    6418:	e8 33 de ff ff       	call   4250 <_ZdlPv@plt>
    641d:	e9 2c ff ff ff       	jmp    634e <_ZN2ML13buildToyModelENS_4PathE.cold+0x5a2>
    6422:	e8 29 de ff ff       	call   4250 <_ZdlPv@plt>
    6427:	e9 d9 fd ff ff       	jmp    6205 <_ZN2ML13buildToyModelENS_4PathE.cold+0x459>
    642c:	4c 89 e7             	mov    %r12,%rdi
    642f:	c5 f8 77             	vzeroupper
    6432:	e8 f9 91 00 00       	call   f630 <_ZN2ML11LayerParamsD1Ev>
    6437:	48 8b bc 24 c0 01 00 	mov    0x1c0(%rsp),%rdi
    643e:	00 
    643f:	48 85 ff             	test   %rdi,%rdi
    6442:	74 05                	je     6449 <_ZN2ML13buildToyModelENS_4PathE.cold+0x69d>
    6444:	e8 07 de ff ff       	call   4250 <_ZdlPv@plt>
    6449:	4c 89 ef             	mov    %r13,%rdi
    644c:	e8 df 91 00 00       	call   f630 <_ZN2ML11LayerParamsD1Ev>
    6451:	48 8b bc 24 20 02 00 	mov    0x220(%rsp),%rdi
    6458:	00 
    6459:	48 85 ff             	test   %rdi,%rdi
    645c:	0f 84 df f9 ff ff    	je     5e41 <_ZN2ML13buildToyModelENS_4PathE.cold+0x95>
    6462:	e8 e9 dd ff ff       	call   4250 <_ZdlPv@plt>
    6467:	e9 d5 f9 ff ff       	jmp    5e41 <_ZN2ML13buildToyModelENS_4PathE.cold+0x95>
    646c:	e8 df dd ff ff       	call   4250 <_ZdlPv@plt>
    6471:	e9 37 ff ff ff       	jmp    63ad <_ZN2ML13buildToyModelENS_4PathE.cold+0x601>
    6476:	4c 89 e7             	mov    %r12,%rdi
    6479:	c5 f8 77             	vzeroupper
    647c:	e8 af 91 00 00       	call   f630 <_ZN2ML11LayerParamsD1Ev>
    6481:	48 8b bc 24 c0 01 00 	mov    0x1c0(%rsp),%rdi
    6488:	00 
    6489:	48 85 ff             	test   %rdi,%rdi
    648c:	74 05                	je     6493 <_ZN2ML13buildToyModelENS_4PathE.cold+0x6e7>
    648e:	e8 bd dd ff ff       	call   4250 <_ZdlPv@plt>
    6493:	4c 89 ef             	mov    %r13,%rdi
    6496:	e8 95 91 00 00       	call   f630 <_ZN2ML11LayerParamsD1Ev>
    649b:	48 8b bc 24 20 02 00 	mov    0x220(%rsp),%rdi
    64a2:	00 
    64a3:	48 85 ff             	test   %rdi,%rdi
    64a6:	0f 84 95 f9 ff ff    	je     5e41 <_ZN2ML13buildToyModelENS_4PathE.cold+0x95>
    64ac:	e8 9f dd ff ff       	call   4250 <_ZdlPv@plt>
    64b1:	e9 8b f9 ff ff       	jmp    5e41 <_ZN2ML13buildToyModelENS_4PathE.cold+0x95>

00000000000064b6 <_ZN2ML10formatDimsB5cxx11ERKSt6vectorImSaImEE.cold>:
    64b6:	49 8b 3e             	mov    (%r14),%rdi
    64b9:	48 39 fb             	cmp    %rdi,%rbx
    64bc:	0f 84 ec 00 00 00    	je     65ae <_ZN2ML10formatDimsB5cxx11ERKSt6vectorImSaImEE.cold+0xf8>
    64c2:	c5 f8 77             	vzeroupper
    64c5:	e8 86 dd ff ff       	call   4250 <_ZdlPv@plt>
    64ca:	48 8b 7c 24 30       	mov    0x30(%rsp),%rdi
    64cf:	e8 1c dd ff ff       	call   41f0 <_ZNSt7__cxx1118basic_stringstreamIcSt11char_traitsIcESaIcEED1Ev@plt>
    64d4:	4c 89 e7             	mov    %r12,%rdi
    64d7:	e8 74 df ff ff       	call   4450 <_Unwind_Resume@plt>
    64dc:	48 8b bc 24 a0 00 00 	mov    0xa0(%rsp),%rdi
    64e3:	00 
    64e4:	48 8b 44 24 18       	mov    0x18(%rsp),%rax
    64e9:	48 89 5c 24 58       	mov    %rbx,0x58(%rsp)
    64ee:	48 39 c7             	cmp    %rax,%rdi
    64f1:	0f 85 aa 00 00 00    	jne    65a1 <_ZN2ML10formatDimsB5cxx11ERKSt6vectorImSaImEE.cold+0xeb>
    64f7:	c5 f8 77             	vzeroupper
    64fa:	48 8b 7c 24 20       	mov    0x20(%rsp),%rdi
    64ff:	48 8d 05 1a 15 03 00 	lea    0x3151a(%rip),%rax        # 37a20 <_ZTVSt15basic_streambufIcSt11char_traitsIcEE@GLIBCXX_3.4+0x10>
    6506:	48 89 44 24 58       	mov    %rax,0x58(%rsp)
    650b:	e8 20 de ff ff       	call   4330 <_ZNSt6localeD1Ev@plt>
    6510:	48 8b 05 b1 14 03 00 	mov    0x314b1(%rip),%rax        # 379c8 <_ZTTNSt7__cxx1118basic_stringstreamIcSt11char_traitsIcESaIcEEE@GLIBCXX_3.4.21+0x8>
    6517:	48 8b 0d d2 14 03 00 	mov    0x314d2(%rip),%rcx        # 379f0 <_ZTTNSt7__cxx1118basic_stringstreamIcSt11char_traitsIcESaIcEEE@GLIBCXX_3.4.21+0x30>
    651e:	48 8b 40 e8          	mov    -0x18(%rax),%rax
    6522:	48 89 4c 04 40       	mov    %rcx,0x40(%rsp,%rax,1)
    6527:	48 8b 05 b2 14 03 00 	mov    0x314b2(%rip),%rax        # 379e0 <_ZTTNSt7__cxx1118basic_stringstreamIcSt11char_traitsIcESaIcEEE@GLIBCXX_3.4.21+0x20>
    652e:	48 8b 0d b3 14 03 00 	mov    0x314b3(%rip),%rcx        # 379e8 <_ZTTNSt7__cxx1118basic_stringstreamIcSt11char_traitsIcESaIcEEE@GLIBCXX_3.4.21+0x28>
    6535:	48 89 44 24 50       	mov    %rax,0x50(%rsp)
    653a:	48 8b 40 e8          	mov    -0x18(%rax),%rax
    653e:	48 89 4c 04 50       	mov    %rcx,0x50(%rsp,%rax,1)
    6543:	49 8b 47 e8          	mov    -0x18(%r15),%rax
    6547:	48 8b 0d 8a 14 03 00 	mov    0x3148a(%rip),%rcx        # 379d8 <_ZTTNSt7__cxx1118basic_stringstreamIcSt11char_traitsIcESaIcEEE@GLIBCXX_3.4.21+0x18>
    654e:	4c 89 7c 24 40       	mov    %r15,0x40(%rsp)
    6553:	48 89 4c 04 40       	mov    %rcx,0x40(%rsp,%rax,1)
    6558:	31 c0                	xor    %eax,%eax
    655a:	48 89 44 24 48       	mov    %rax,0x48(%rsp)
    655f:	eb 1f                	jmp    6580 <_ZN2ML10formatDimsB5cxx11ERKSt6vectorImSaImEE.cold+0xca>
    6561:	49 8b 47 e8          	mov    -0x18(%r15),%rax
    6565:	48 8b 0d 6c 14 03 00 	mov    0x3146c(%rip),%rcx        # 379d8 <_ZTTNSt7__cxx1118basic_stringstreamIcSt11char_traitsIcESaIcEEE@GLIBCXX_3.4.21+0x18>
    656c:	31 d2                	xor    %edx,%edx
    656e:	4c 89 7c 24 40       	mov    %r15,0x40(%rsp)
    6573:	48 89 4c 04 40       	mov    %rcx,0x40(%rsp,%rax,1)
    6578:	48 89 54 24 48       	mov    %rdx,0x48(%rsp)
    657d:	c5 f8 77             	vzeroupper
    6580:	48 8b 7c 24 38       	mov    0x38(%rsp),%rdi
    6585:	48 8d 05 24 14 03 00 	lea    0x31424(%rip),%rax        # 379b0 <_ZTVSt9basic_iosIcSt11char_traitsIcEE@GLIBCXX_3.4+0x10>
    658c:	48 89 84 24 c0 00 00 	mov    %rax,0xc0(%rsp)
    6593:	00 
    6594:	e8 47 db ff ff       	call   40e0 <_ZNSt8ios_baseD2Ev@plt>
    6599:	4c 89 e7             	mov    %r12,%rdi
    659c:	e8 af de ff ff       	call   4450 <_Unwind_Resume@plt>
    65a1:	c5 f8 77             	vzeroupper
    65a4:	e8 a7 dc ff ff       	call   4250 <_ZdlPv@plt>
    65a9:	e9 4c ff ff ff       	jmp    64fa <_ZN2ML10formatDimsB5cxx11ERKSt6vectorImSaImEE.cold+0x44>
    65ae:	c5 f8 77             	vzeroupper
    65b1:	e9 14 ff ff ff       	jmp    64ca <_ZN2ML10formatDimsB5cxx11ERKSt6vectorImSaImEE.cold+0x14>

00000000000065b6 <_ZN2ML15runInfTestQuantERKNS_5ModelENS_4PathEiPK7QParams.cold>:
    65b6:	48 8b 7c 24 60       	mov    0x60(%rsp),%rdi
    65bb:	48 39 df             	cmp    %rbx,%rdi
    65be:	74 4c                	je     660c <_ZN2ML15runInfTestQuantERKNS_5ModelENS_4PathEiPK7QParams.cold+0x56>
    65c0:	c5 f8 77             	vzeroupper
    65c3:	e8 88 dc ff ff       	call   4250 <_ZdlPv@plt>
    65c8:	4c 89 ef             	mov    %r13,%rdi
    65cb:	e8 c0 4c 02 00       	call   2b290 <_ZN2ML9LayerDataD1Ev>
    65d0:	4c 89 e7             	mov    %r12,%rdi
    65d3:	e8 78 de ff ff       	call   4450 <_Unwind_Resume@plt>
    65d8:	48 8b 7c 24 60       	mov    0x60(%rsp),%rdi
    65dd:	48 39 df             	cmp    %rbx,%rdi
    65e0:	75 20                	jne    6602 <_ZN2ML15runInfTestQuantERKNS_5ModelENS_4PathEiPK7QParams.cold+0x4c>
    65e2:	c5 f8 77             	vzeroupper
    65e5:	4c 89 e7             	mov    %r12,%rdi
    65e8:	e8 63 de ff ff       	call   4450 <_Unwind_Resume@plt>
    65ed:	48 8b 7c 24 60       	mov    0x60(%rsp),%rdi
    65f2:	48 39 df             	cmp    %rbx,%rdi
    65f5:	75 1a                	jne    6611 <_ZN2ML15runInfTestQuantERKNS_5ModelENS_4PathEiPK7QParams.cold+0x5b>
    65f7:	c5 f8 77             	vzeroupper
    65fa:	4c 89 e7             	mov    %r12,%rdi
    65fd:	e8 4e de ff ff       	call   4450 <_Unwind_Resume@plt>
    6602:	c5 f8 77             	vzeroupper
    6605:	e8 46 dc ff ff       	call   4250 <_ZdlPv@plt>
    660a:	eb d9                	jmp    65e5 <_ZN2ML15runInfTestQuantERKNS_5ModelENS_4PathEiPK7QParams.cold+0x2f>
    660c:	c5 f8 77             	vzeroupper
    660f:	eb b7                	jmp    65c8 <_ZN2ML15runInfTestQuantERKNS_5ModelENS_4PathEiPK7QParams.cold+0x12>
    6611:	c5 f8 77             	vzeroupper
    6614:	e8 37 dc ff ff       	call   4250 <_ZdlPv@plt>
    6619:	eb df                	jmp    65fa <_ZN2ML15runInfTestQuantERKNS_5ModelENS_4PathEiPK7QParams.cold+0x44>

000000000000661b <_ZN2ML16runInferenceTestERKNS_5ModelERKNS_4PathE.cold>:
    661b:	48 8b bd 30 ff ff ff 	mov    -0xd0(%rbp),%rdi
    6622:	4c 39 e7             	cmp    %r12,%rdi
    6625:	0f 84 ba 00 00 00    	je     66e5 <_ZN2ML16runInferenceTestERKNS_5ModelERKNS_4PathE.cold+0xca>
    662b:	c5 f8 77             	vzeroupper
    662e:	e8 1d dc ff ff       	call   4250 <_ZdlPv@plt>
    6633:	4c 89 f7             	mov    %r14,%rdi
    6636:	e8 55 4c 02 00       	call   2b290 <_ZN2ML9LayerDataD1Ev>
    663b:	48 8b bd 60 fe ff ff 	mov    -0x1a0(%rbp),%rdi
    6642:	48 8b 85 c0 fd ff ff 	mov    -0x240(%rbp),%rax
    6649:	48 39 c7             	cmp    %rax,%rdi
    664c:	74 05                	je     6653 <_ZN2ML16runInferenceTestERKNS_5ModelERKNS_4PathE.cold+0x38>
    664e:	e8 fd db ff ff       	call   4250 <_ZdlPv@plt>
    6653:	4c 89 ef             	mov    %r13,%rdi
    6656:	e8 35 4c 02 00       	call   2b290 <_ZN2ML9LayerDataD1Ev>
    665b:	48 89 df             	mov    %rbx,%rdi
    665e:	e8 ed dd ff ff       	call   4450 <_Unwind_Resume@plt>
    6663:	48 8b bd 30 ff ff ff 	mov    -0xd0(%rbp),%rdi
    666a:	4c 39 e7             	cmp    %r12,%rdi
    666d:	75 6c                	jne    66db <_ZN2ML16runInferenceTestERKNS_5ModelERKNS_4PathE.cold+0xc0>
    666f:	c5 f8 77             	vzeroupper
    6672:	48 8b bd d0 fd ff ff 	mov    -0x230(%rbp),%rdi
    6679:	48 8d 85 e0 fd ff ff 	lea    -0x220(%rbp),%rax
    6680:	48 39 c7             	cmp    %rax,%rdi
    6683:	74 05                	je     668a <_ZN2ML16runInferenceTestERKNS_5ModelERKNS_4PathE.cold+0x6f>
    6685:	e8 c6 db ff ff       	call   4250 <_ZdlPv@plt>
    668a:	48 8b bd 30 fe ff ff 	mov    -0x1d0(%rbp),%rdi
    6691:	48 8d 85 40 fe ff ff 	lea    -0x1c0(%rbp),%rax
    6698:	48 39 c7             	cmp    %rax,%rdi
    669b:	74 05                	je     66a2 <_ZN2ML16runInferenceTestERKNS_5ModelERKNS_4PathE.cold+0x87>
    669d:	e8 ae db ff ff       	call   4250 <_ZdlPv@plt>
    66a2:	48 8b bd 10 fe ff ff 	mov    -0x1f0(%rbp),%rdi
    66a9:	48 8d 85 20 fe ff ff 	lea    -0x1e0(%rbp),%rax
    66b0:	48 39 c7             	cmp    %rax,%rdi
    66b3:	74 05                	je     66ba <_ZN2ML16runInferenceTestERKNS_5ModelERKNS_4PathE.cold+0x9f>
    66b5:	e8 96 db ff ff       	call   4250 <_ZdlPv@plt>
    66ba:	48 8b bd f0 fd ff ff 	mov    -0x210(%rbp),%rdi
    66c1:	48 8d 85 00 fe ff ff 	lea    -0x200(%rbp),%rax
    66c8:	48 39 c7             	cmp    %rax,%rdi
    66cb:	0f 84 6a ff ff ff    	je     663b <_ZN2ML16runInferenceTestERKNS_5ModelERKNS_4PathE.cold+0x20>
    66d1:	e8 7a db ff ff       	call   4250 <_ZdlPv@plt>
    66d6:	e9 60 ff ff ff       	jmp    663b <_ZN2ML16runInferenceTestERKNS_5ModelERKNS_4PathE.cold+0x20>
    66db:	c5 f8 77             	vzeroupper
    66de:	e8 6d db ff ff       	call   4250 <_ZdlPv@plt>
    66e3:	eb 8d                	jmp    6672 <_ZN2ML16runInferenceTestERKNS_5ModelERKNS_4PathE.cold+0x57>
    66e5:	c5 f8 77             	vzeroupper
    66e8:	e9 46 ff ff ff       	jmp    6633 <_ZN2ML16runInferenceTestERKNS_5ModelERKNS_4PathE.cold+0x18>
    66ed:	48 8b bd 30 ff ff ff 	mov    -0xd0(%rbp),%rdi
    66f4:	4c 39 e7             	cmp    %r12,%rdi
    66f7:	74 2b                	je     6724 <_ZN2ML16runInferenceTestERKNS_5ModelERKNS_4PathE.cold+0x109>
    66f9:	c5 f8 77             	vzeroupper
    66fc:	e8 4f db ff ff       	call   4250 <_ZdlPv@plt>
    6701:	e9 4d ff ff ff       	jmp    6653 <_ZN2ML16runInferenceTestERKNS_5ModelERKNS_4PathE.cold+0x38>
    6706:	48 8b bd 30 ff ff ff 	mov    -0xd0(%rbp),%rdi
    670d:	48 8d 85 40 ff ff ff 	lea    -0xc0(%rbp),%rax
    6714:	48 39 c7             	cmp    %rax,%rdi
    6717:	75 4b                	jne    6764 <_ZN2ML16runInferenceTestERKNS_5ModelERKNS_4PathE.cold+0x149>
    6719:	c5 f8 77             	vzeroupper
    671c:	48 89 df             	mov    %rbx,%rdi
    671f:	e8 2c dd ff ff       	call   4450 <_Unwind_Resume@plt>
    6724:	c5 f8 77             	vzeroupper
    6727:	e9 27 ff ff ff       	jmp    6653 <_ZN2ML16runInferenceTestERKNS_5ModelERKNS_4PathE.cold+0x38>
    672c:	48 8b bd 30 ff ff ff 	mov    -0xd0(%rbp),%rdi
    6733:	4c 39 e7             	cmp    %r12,%rdi
    6736:	74 24                	je     675c <_ZN2ML16runInferenceTestERKNS_5ModelERKNS_4PathE.cold+0x141>
    6738:	c5 f8 77             	vzeroupper
    673b:	e8 10 db ff ff       	call   4250 <_ZdlPv@plt>
    6740:	e9 0e ff ff ff       	jmp    6653 <_ZN2ML16runInferenceTestERKNS_5ModelERKNS_4PathE.cold+0x38>
    6745:	48 8b bd 30 ff ff ff 	mov    -0xd0(%rbp),%rdi
    674c:	4c 39 e7             	cmp    %r12,%rdi
    674f:	75 1d                	jne    676e <_ZN2ML16runInferenceTestERKNS_5ModelERKNS_4PathE.cold+0x153>
    6751:	c5 f8 77             	vzeroupper
    6754:	48 89 df             	mov    %rbx,%rdi
    6757:	e8 f4 dc ff ff       	call   4450 <_Unwind_Resume@plt>
    675c:	c5 f8 77             	vzeroupper
    675f:	e9 ef fe ff ff       	jmp    6653 <_ZN2ML16runInferenceTestERKNS_5ModelERKNS_4PathE.cold+0x38>
    6764:	c5 f8 77             	vzeroupper
    6767:	e8 e4 da ff ff       	call   4250 <_ZdlPv@plt>
    676c:	eb ae                	jmp    671c <_ZN2ML16runInferenceTestERKNS_5ModelERKNS_4PathE.cold+0x101>
    676e:	c5 f8 77             	vzeroupper
    6771:	e8 da da ff ff       	call   4250 <_ZdlPv@plt>
    6776:	eb dc                	jmp    6754 <_ZN2ML16runInferenceTestERKNS_5ModelERKNS_4PathE.cold+0x139>

0000000000006778 <_ZN2ML21inspectQuantizedLayerERKNS_4PathERKNSt7__cxx1112basic_stringIcSt11char_traitsIcESaIcEEERKSt6vectorImSaImEESF_.cold>:
    6778:	48 8b bc 24 70 01 00 	mov    0x170(%rsp),%rdi
    677f:	00 
    6780:	48 8d 84 24 80 01 00 	lea    0x180(%rsp),%rax
    6787:	00 
    6788:	48 39 c7             	cmp    %rax,%rdi
    678b:	0f 85 de 00 00 00    	jne    686f <_ZN2ML21inspectQuantizedLayerERKNS_4PathERKNSt7__cxx1112basic_stringIcSt11char_traitsIcESaIcEEERKSt6vectorImSaImEESF_.cold+0xf7>
    6791:	c5 f8 77             	vzeroupper
    6794:	48 89 df             	mov    %rbx,%rdi
    6797:	e8 b4 dc ff ff       	call   4450 <_Unwind_Resume@plt>
    679c:	48 8b bc 24 80 00 00 	mov    0x80(%rsp),%rdi
    67a3:	00 
    67a4:	48 8d 84 24 90 00 00 	lea    0x90(%rsp),%rax
    67ab:	00 
    67ac:	48 39 c7             	cmp    %rax,%rdi
    67af:	0f 84 94 01 00 00    	je     6949 <_ZN2ML21inspectQuantizedLayerERKNS_4PathERKNSt7__cxx1112basic_stringIcSt11char_traitsIcESaIcEEERKSt6vectorImSaImEESF_.cold+0x1d1>
    67b5:	c5 f8 77             	vzeroupper
    67b8:	e8 93 da ff ff       	call   4250 <_ZdlPv@plt>
    67bd:	4c 89 e7             	mov    %r12,%rdi
    67c0:	e8 cb 4a 02 00       	call   2b290 <_ZN2ML9LayerDataD1Ev>
    67c5:	48 8b 7c 24 18       	mov    0x18(%rsp),%rdi
    67ca:	e8 61 8e 00 00       	call   f630 <_ZN2ML11LayerParamsD1Ev>
    67cf:	48 8b 7c 24 08       	mov    0x8(%rsp),%rdi
    67d4:	e8 b7 4a 02 00       	call   2b290 <_ZN2ML9LayerDataD1Ev>
    67d9:	48 8b 7c 24 10       	mov    0x10(%rsp),%rdi
    67de:	e8 4d 8e 00 00       	call   f630 <_ZN2ML11LayerParamsD1Ev>
    67e3:	48 89 e8             	mov    %rbp,%rax
    67e6:	48 83 e8 01          	sub    $0x1,%rax
    67ea:	0f 85 74 01 00 00    	jne    6964 <_ZN2ML21inspectQuantizedLayerERKNS_4PathERKNSt7__cxx1112basic_stringIcSt11char_traitsIcESaIcEEERKSt6vectorImSaImEESF_.cold+0x1ec>
    67f0:	48 89 df             	mov    %rbx,%rdi
    67f3:	e8 18 d9 ff ff       	call   4110 <__cxa_begin_catch@plt>
    67f8:	48 8b 74 24 40       	mov    0x40(%rsp),%rsi
    67fd:	48 8d 3d fc 81 02 00 	lea    0x281fc(%rip),%rdi        # 2ea00 <_ZTSN2ML12SoftmaxLayerE+0x780>
    6804:	48 89 c3             	mov    %rax,%rbx
    6807:	31 c0                	xor    %eax,%eax
    6809:	e8 42 d8 ff ff       	call   4050 <printf@plt>
    680e:	48 8d 2d 8b 1b 03 00 	lea    0x31b8b(%rip),%rbp        # 383a0 <_ZSt4cerr@GLIBCXX_3.4>
    6815:	ba 0a 00 00 00       	mov    $0xa,%edx
    681a:	48 8d 35 42 8a 02 00 	lea    0x28a42(%rip),%rsi        # 2f263 <_ZTSN2ML12SoftmaxLayerE+0xfe3>
    6821:	48 89 ef             	mov    %rbp,%rdi
    6824:	e8 77 da ff ff       	call   42a0 <_ZSt16__ostream_insertIcSt11char_traitsIcEERSt13basic_ostreamIT_T0_ES6_PKS3_l@plt>
    6829:	48 8b 03             	mov    (%rbx),%rax
    682c:	48 89 df             	mov    %rbx,%rdi
    682f:	ff 50 10             	call   *0x10(%rax)
    6832:	48 89 ef             	mov    %rbp,%rdi
    6835:	48 89 c6             	mov    %rax,%rsi
    6838:	e8 23 da ff ff       	call   4260 <_ZStlsISt11char_traitsIcEERSt13basic_ostreamIcT_ES5_PKc@plt>
    683d:	c6 84 24 70 01 00 00 	movb   $0xa,0x170(%rsp)
    6844:	0a 
    6845:	48 89 c7             	mov    %rax,%rdi
    6848:	48 8b 00             	mov    (%rax),%rax
    684b:	48 8b 40 e8          	mov    -0x18(%rax),%rax
    684f:	48 83 7c 07 10 00    	cmpq   $0x0,0x10(%rdi,%rax,1)
    6855:	0f 85 1f 01 00 00    	jne    697a <_ZN2ML21inspectQuantizedLayerERKNS_4PathERKNSt7__cxx1112basic_stringIcSt11char_traitsIcESaIcEEERKSt6vectorImSaImEESF_.cold+0x202>
    685b:	be 0a 00 00 00       	mov    $0xa,%esi
    6860:	e8 db d7 ff ff       	call   4040 <_ZNSo3putEc@plt>
    6865:	e8 76 db ff ff       	call   43e0 <__cxa_end_catch@plt>
    686a:	e9 1b 3e 01 00       	jmp    1a68a <_ZN2ML21inspectQuantizedLayerERKNS_4PathERKNSt7__cxx1112basic_stringIcSt11char_traitsIcESaIcEEERKSt6vectorImSaImEESF_+0x34a>
    686f:	c5 f8 77             	vzeroupper
    6872:	e8 d9 d9 ff ff       	call   4250 <_ZdlPv@plt>
    6877:	e9 18 ff ff ff       	jmp    6794 <_ZN2ML21inspectQuantizedLayerERKNS_4PathERKNSt7__cxx1112basic_stringIcSt11char_traitsIcESaIcEEERKSt6vectorImSaImEESF_.cold+0x1c>
    687c:	48 8b bc 24 70 01 00 	mov    0x170(%rsp),%rdi
    6883:	00 
    6884:	4c 39 f7             	cmp    %r14,%rdi
    6887:	75 1d                	jne    68a6 <_ZN2ML21inspectQuantizedLayerERKNS_4PathERKNSt7__cxx1112basic_stringIcSt11char_traitsIcESaIcEEERKSt6vectorImSaImEESF_.cold+0x12e>
    6889:	c5 f8 77             	vzeroupper
    688c:	48 8b bc 24 20 01 00 	mov    0x120(%rsp),%rdi
    6893:	00 
    6894:	48 85 ff             	test   %rdi,%rdi
    6897:	74 05                	je     689e <_ZN2ML21inspectQuantizedLayerERKNS_4PathERKNSt7__cxx1112basic_stringIcSt11char_traitsIcESaIcEEERKSt6vectorImSaImEESF_.cold+0x126>
    6899:	e8 b2 d9 ff ff       	call   4250 <_ZdlPv@plt>
    689e:	48 89 e8             	mov    %rbp,%rax
    68a1:	e9 40 ff ff ff       	jmp    67e6 <_ZN2ML21inspectQuantizedLayerERKNS_4PathERKNSt7__cxx1112basic_stringIcSt11char_traitsIcESaIcEEERKSt6vectorImSaImEESF_.cold+0x6e>
    68a6:	c5 f8 77             	vzeroupper
    68a9:	e8 a2 d9 ff ff       	call   4250 <_ZdlPv@plt>
    68ae:	eb dc                	jmp    688c <_ZN2ML21inspectQuantizedLayerERKNS_4PathERKNSt7__cxx1112basic_stringIcSt11char_traitsIcESaIcEEERKSt6vectorImSaImEESF_.cold+0x114>
    68b0:	48 8b bc 24 70 01 00 	mov    0x170(%rsp),%rdi
    68b7:	00 
    68b8:	4c 39 f7             	cmp    %r14,%rdi
    68bb:	74 23                	je     68e0 <_ZN2ML21inspectQuantizedLayerERKNS_4PathERKNSt7__cxx1112basic_stringIcSt11char_traitsIcESaIcEEERKSt6vectorImSaImEESF_.cold+0x168>
    68bd:	c5 f8 77             	vzeroupper
    68c0:	e8 8b d9 ff ff       	call   4250 <_ZdlPv@plt>
    68c5:	48 8b bc 24 80 00 00 	mov    0x80(%rsp),%rdi
    68cc:	00 
    68cd:	48 85 ff             	test   %rdi,%rdi
    68d0:	0f 84 f9 fe ff ff    	je     67cf <_ZN2ML21inspectQuantizedLayerERKNS_4PathERKNSt7__cxx1112basic_stringIcSt11char_traitsIcESaIcEEERKSt6vectorImSaImEESF_.cold+0x57>
    68d6:	e8 75 d9 ff ff       	call   4250 <_ZdlPv@plt>
    68db:	e9 ef fe ff ff       	jmp    67cf <_ZN2ML21inspectQuantizedLayerERKNS_4PathERKNSt7__cxx1112basic_stringIcSt11char_traitsIcESaIcEEERKSt6vectorImSaImEESF_.cold+0x57>
    68e0:	c5 f8 77             	vzeroupper
    68e3:	eb e0                	jmp    68c5 <_ZN2ML21inspectQuantizedLayerERKNS_4PathERKNSt7__cxx1112basic_stringIcSt11char_traitsIcESaIcEEERKSt6vectorImSaImEESF_.cold+0x14d>
    68e5:	48 8b bc 24 70 01 00 	mov    0x170(%rsp),%rdi
    68ec:	00 
    68ed:	4c 39 f7             	cmp    %r14,%rdi
    68f0:	74 38                	je     692a <_ZN2ML21inspectQuantizedLayerERKNS_4PathERKNSt7__cxx1112basic_stringIcSt11char_traitsIcESaIcEEERKSt6vectorImSaImEESF_.cold+0x1b2>
    68f2:	c5 f8 77             	vzeroupper
    68f5:	e8 56 d9 ff ff       	call   4250 <_ZdlPv@plt>
    68fa:	48 8b 7c 24 40       	mov    0x40(%rsp),%rdi
    68ff:	48 8d 44 24 50       	lea    0x50(%rsp),%rax
    6904:	48 39 c7             	cmp    %rax,%rdi
    6907:	74 05                	je     690e <_ZN2ML21inspectQuantizedLayerERKNS_4PathERKNSt7__cxx1112basic_stringIcSt11char_traitsIcESaIcEEERKSt6vectorImSaImEESF_.cold+0x196>
    6909:	e8 42 d9 ff ff       	call   4250 <_ZdlPv@plt>
    690e:	48 8b 7c 24 20       	mov    0x20(%rsp),%rdi
    6913:	48 8d 44 24 30       	lea    0x30(%rsp),%rax
    6918:	48 39 c7             	cmp    %rax,%rdi
    691b:	74 05                	je     6922 <_ZN2ML21inspectQuantizedLayerERKNS_4PathERKNSt7__cxx1112basic_stringIcSt11char_traitsIcESaIcEEERKSt6vectorImSaImEESF_.cold+0x1aa>
    691d:	e8 2e d9 ff ff       	call   4250 <_ZdlPv@plt>
    6922:	48 89 df             	mov    %rbx,%rdi
    6925:	e8 26 db ff ff       	call   4450 <_Unwind_Resume@plt>
    692a:	c5 f8 77             	vzeroupper
    692d:	eb cb                	jmp    68fa <_ZN2ML21inspectQuantizedLayerERKNS_4PathERKNSt7__cxx1112basic_stringIcSt11char_traitsIcESaIcEEERKSt6vectorImSaImEESF_.cold+0x182>
    692f:	48 8b bc 24 70 01 00 	mov    0x170(%rsp),%rdi
    6936:	00 
    6937:	4c 39 f7             	cmp    %r14,%rdi
    693a:	74 15                	je     6951 <_ZN2ML21inspectQuantizedLayerERKNS_4PathERKNSt7__cxx1112basic_stringIcSt11char_traitsIcESaIcEEERKSt6vectorImSaImEESF_.cold+0x1d9>
    693c:	c5 f8 77             	vzeroupper
    693f:	e8 0c d9 ff ff       	call   4250 <_ZdlPv@plt>
    6944:	e9 86 fe ff ff       	jmp    67cf <_ZN2ML21inspectQuantizedLayerERKNS_4PathERKNSt7__cxx1112basic_stringIcSt11char_traitsIcESaIcEEERKSt6vectorImSaImEESF_.cold+0x57>
    6949:	c5 f8 77             	vzeroupper
    694c:	e9 6c fe ff ff       	jmp    67bd <_ZN2ML21inspectQuantizedLayerERKNS_4PathERKNSt7__cxx1112basic_stringIcSt11char_traitsIcESaIcEEERKSt6vectorImSaImEESF_.cold+0x45>
    6951:	c5 f8 77             	vzeroupper
    6954:	e9 76 fe ff ff       	jmp    67cf <_ZN2ML21inspectQuantizedLayerERKNS_4PathERKNSt7__cxx1112basic_stringIcSt11char_traitsIcESaIcEEERKSt6vectorImSaImEESF_.cold+0x57>
    6959:	48 89 c3             	mov    %rax,%rbx
    695c:	c5 f8 77             	vzeroupper
    695f:	e8 7c da ff ff       	call   43e0 <__cxa_end_catch@plt>
    6964:	48 8b 7c 24 60       	mov    0x60(%rsp),%rdi
    6969:	48 8d 44 24 70       	lea    0x70(%rsp),%rax
    696e:	48 39 c7             	cmp    %rax,%rdi
    6971:	74 87                	je     68fa <_ZN2ML21inspectQuantizedLayerERKNS_4PathERKNSt7__cxx1112basic_stringIcSt11char_traitsIcESaIcEEERKSt6vectorImSaImEESF_.cold+0x182>
    6973:	e8 d8 d8 ff ff       	call   4250 <_ZdlPv@plt>
    6978:	eb 80                	jmp    68fa <_ZN2ML21inspectQuantizedLayerERKNS_4PathERKNSt7__cxx1112basic_stringIcSt11char_traitsIcESaIcEEERKSt6vectorImSaImEESF_.cold+0x182>
    697a:	ba 01 00 00 00       	mov    $0x1,%edx
    697f:	4c 89 e6             	mov    %r12,%rsi
    6982:	e8 19 d9 ff ff       	call   42a0 <_ZSt16__ostream_insertIcSt11char_traitsIcEERSt13basic_ostreamIT_T0_ES6_PKS3_l@plt>
    6987:	e9 d9 fe ff ff       	jmp    6865 <_ZN2ML21inspectQuantizedLayerERKNS_4PathERKNSt7__cxx1112basic_stringIcSt11char_traitsIcESaIcEEERKSt6vectorImSaImEESF_.cold+0xed>
    698c:	48 8b bc 24 70 01 00 	mov    0x170(%rsp),%rdi
    6993:	00 
    6994:	4c 39 f7             	cmp    %r14,%rdi
    6997:	74 0d                	je     69a6 <_ZN2ML21inspectQuantizedLayerERKNS_4PathERKNSt7__cxx1112basic_stringIcSt11char_traitsIcESaIcEEERKSt6vectorImSaImEESF_.cold+0x22e>
    6999:	c5 f8 77             	vzeroupper
    699c:	e8 af d8 ff ff       	call   4250 <_ZdlPv@plt>
    69a1:	e9 68 ff ff ff       	jmp    690e <_ZN2ML21inspectQuantizedLayerERKNS_4PathERKNSt7__cxx1112basic_stringIcSt11char_traitsIcESaIcEEERKSt6vectorImSaImEESF_.cold+0x196>
    69a6:	c5 f8 77             	vzeroupper
    69a9:	e9 60 ff ff ff       	jmp    690e <_ZN2ML21inspectQuantizedLayerERKNS_4PathERKNSt7__cxx1112basic_stringIcSt11char_traitsIcESaIcEEERKSt6vectorImSaImEESF_.cold+0x196>

00000000000069ae <_ZN2ML12runBasicTestERKNS_5ModelERKNS_4PathE.cold>:
    69ae:	48 8b bd 10 ff ff ff 	mov    -0xf0(%rbp),%rdi
    69b5:	4c 39 ff             	cmp    %r15,%rdi
    69b8:	75 1b                	jne    69d5 <_ZN2ML12runBasicTestERKNS_5ModelERKNS_4PathE.cold+0x27>
    69ba:	c5 f8 77             	vzeroupper
    69bd:	48 89 df             	mov    %rbx,%rdi
    69c0:	e8 cb 48 02 00       	call   2b290 <_ZN2ML9LayerDataD1Ev>
    69c5:	4c 89 e7             	mov    %r12,%rdi
    69c8:	e8 c3 48 02 00       	call   2b290 <_ZN2ML9LayerDataD1Ev>
    69cd:	4c 89 ef             	mov    %r13,%rdi
    69d0:	e8 7b da ff ff       	call   4450 <_Unwind_Resume@plt>
    69d5:	c5 f8 77             	vzeroupper
    69d8:	e8 73 d8 ff ff       	call   4250 <_ZdlPv@plt>
    69dd:	eb de                	jmp    69bd <_ZN2ML12runBasicTestERKNS_5ModelERKNS_4PathE.cold+0xf>
    69df:	48 89 df             	mov    %rbx,%rdi
    69e2:	c5 f8 77             	vzeroupper
    69e5:	4c 89 e3             	mov    %r12,%rbx
    69e8:	e8 43 8c 00 00       	call   f630 <_ZN2ML11LayerParamsD1Ev>
    69ed:	48 8b bd 10 ff ff ff 	mov    -0xf0(%rbp),%rdi
    69f4:	48 8d 85 20 ff ff ff 	lea    -0xe0(%rbp),%rax
    69fb:	48 39 c7             	cmp    %rax,%rdi
    69fe:	74 05                	je     6a05 <_ZN2ML12runBasicTestERKNS_5ModelERKNS_4PathE.cold+0x57>
    6a00:	e8 4b d8 ff ff       	call   4250 <_ZdlPv@plt>
    6a05:	48 8b bd f0 fe ff ff 	mov    -0x110(%rbp),%rdi
    6a0c:	48 85 ff             	test   %rdi,%rdi
    6a0f:	74 05                	je     6a16 <_ZN2ML12runBasicTestERKNS_5ModelERKNS_4PathE.cold+0x68>
    6a11:	e8 3a d8 ff ff       	call   4250 <_ZdlPv@plt>
    6a16:	48 89 df             	mov    %rbx,%rdi
    6a19:	e8 32 da ff ff       	call   4450 <_Unwind_Resume@plt>
    6a1e:	e8 1d d9 ff ff       	call   4340 <__cxa_throw_bad_array_new_length@plt>
    6a23:	48 8b 7d c0          	mov    -0x40(%rbp),%rdi
    6a27:	49 89 c5             	mov    %rax,%r13
    6a2a:	48 85 ff             	test   %rdi,%rdi
    6a2d:	75 2b                	jne    6a5a <_ZN2ML12runBasicTestERKNS_5ModelERKNS_4PathE.cold+0xac>
    6a2f:	c5 f8 77             	vzeroupper
    6a32:	48 89 df             	mov    %rbx,%rdi
    6a35:	e8 f6 8b 00 00       	call   f630 <_ZN2ML11LayerParamsD1Ev>
    6a3a:	eb 89                	jmp    69c5 <_ZN2ML12runBasicTestERKNS_5ModelERKNS_4PathE.cold+0x17>
    6a3c:	48 8b 7d 80          	mov    -0x80(%rbp),%rdi
    6a40:	4c 39 ef             	cmp    %r13,%rdi
    6a43:	75 0b                	jne    6a50 <_ZN2ML12runBasicTestERKNS_5ModelERKNS_4PathE.cold+0xa2>
    6a45:	c5 f8 77             	vzeroupper
    6a48:	49 89 dd             	mov    %rbx,%r13
    6a4b:	e9 75 ff ff ff       	jmp    69c5 <_ZN2ML12runBasicTestERKNS_5ModelERKNS_4PathE.cold+0x17>
    6a50:	c5 f8 77             	vzeroupper
    6a53:	e8 f8 d7 ff ff       	call   4250 <_ZdlPv@plt>
    6a58:	eb ee                	jmp    6a48 <_ZN2ML12runBasicTestERKNS_5ModelERKNS_4PathE.cold+0x9a>
    6a5a:	c5 f8 77             	vzeroupper
    6a5d:	e8 8e d8 ff ff       	call   42f0 <_ZdaPv@plt>
    6a62:	eb ce                	jmp    6a32 <_ZN2ML12runBasicTestERKNS_5ModelERKNS_4PathE.cold+0x84>
    6a64:	48 8b 7d 80          	mov    -0x80(%rbp),%rdi
    6a68:	48 8d 45 90          	lea    -0x70(%rbp),%rax
    6a6c:	48 39 c7             	cmp    %rax,%rdi
    6a6f:	74 10                	je     6a81 <_ZN2ML12runBasicTestERKNS_5ModelERKNS_4PathE.cold+0xd3>
    6a71:	c5 f8 77             	vzeroupper
    6a74:	e8 d7 d7 ff ff       	call   4250 <_ZdlPv@plt>
    6a79:	48 89 df             	mov    %rbx,%rdi
    6a7c:	e8 cf d9 ff ff       	call   4450 <_Unwind_Resume@plt>
    6a81:	c5 f8 77             	vzeroupper
    6a84:	eb f3                	jmp    6a79 <_ZN2ML12runBasicTestERKNS_5ModelERKNS_4PathE.cold+0xcb>

0000000000006a86 <_ZN2ML12runLayerTestEmRKNS_5ModelERKNS_4PathE.cold>:
    6a86:	48 89 df             	mov    %rbx,%rdi
    6a89:	c5 f8 77             	vzeroupper
    6a8c:	4c 89 e3             	mov    %r12,%rbx
    6a8f:	e8 9c 8b 00 00       	call   f630 <_ZN2ML11LayerParamsD1Ev>
    6a94:	48 8b bd f0 fe ff ff 	mov    -0x110(%rbp),%rdi
    6a9b:	4c 39 f7             	cmp    %r14,%rdi
    6a9e:	74 05                	je     6aa5 <_ZN2ML12runLayerTestEmRKNS_5ModelERKNS_4PathE.cold+0x1f>
    6aa0:	e8 ab d7 ff ff       	call   4250 <_ZdlPv@plt>
    6aa5:	48 8b bd d0 fe ff ff 	mov    -0x130(%rbp),%rdi
    6aac:	48 85 ff             	test   %rdi,%rdi
    6aaf:	74 05                	je     6ab6 <_ZN2ML12runLayerTestEmRKNS_5ModelERKNS_4PathE.cold+0x30>
    6ab1:	e8 9a d7 ff ff       	call   4250 <_ZdlPv@plt>
    6ab6:	48 8b bd 70 fe ff ff 	mov    -0x190(%rbp),%rdi
    6abd:	48 85 ff             	test   %rdi,%rdi
    6ac0:	74 05                	je     6ac7 <_ZN2ML12runLayerTestEmRKNS_5ModelERKNS_4PathE.cold+0x41>
    6ac2:	e8 89 d7 ff ff       	call   4250 <_ZdlPv@plt>
    6ac7:	48 89 df             	mov    %rbx,%rdi
    6aca:	e8 81 d9 ff ff       	call   4450 <_Unwind_Resume@plt>
    6acf:	48 8b bd b0 fe ff ff 	mov    -0x150(%rbp),%rdi
    6ad6:	4c 39 f7             	cmp    %r14,%rdi
    6ad9:	74 2e                	je     6b09 <_ZN2ML12runLayerTestEmRKNS_5ModelERKNS_4PathE.cold+0x83>
    6adb:	c5 f8 77             	vzeroupper
    6ade:	e8 6d d7 ff ff       	call   4250 <_ZdlPv@plt>
    6ae3:	48 89 df             	mov    %rbx,%rdi
    6ae6:	4c 89 fb             	mov    %r15,%rbx
    6ae9:	e8 a2 47 02 00       	call   2b290 <_ZN2ML9LayerDataD1Ev>
    6aee:	48 8b bd 00 ff ff ff 	mov    -0x100(%rbp),%rdi
    6af5:	4c 39 ef             	cmp    %r13,%rdi
    6af8:	74 05                	je     6aff <_ZN2ML12runLayerTestEmRKNS_5ModelERKNS_4PathE.cold+0x79>
    6afa:	e8 51 d7 ff ff       	call   4250 <_ZdlPv@plt>
    6aff:	4c 89 e7             	mov    %r12,%rdi
    6b02:	e8 89 47 02 00       	call   2b290 <_ZN2ML9LayerDataD1Ev>
    6b07:	eb ad                	jmp    6ab6 <_ZN2ML12runLayerTestEmRKNS_5ModelERKNS_4PathE.cold+0x30>
    6b09:	c5 f8 77             	vzeroupper
    6b0c:	eb d5                	jmp    6ae3 <_ZN2ML12runLayerTestEmRKNS_5ModelERKNS_4PathE.cold+0x5d>
    6b0e:	48 8b bd b0 fe ff ff 	mov    -0x150(%rbp),%rdi
    6b15:	48 8d 85 c0 fe ff ff 	lea    -0x140(%rbp),%rax
    6b1c:	48 39 c7             	cmp    %rax,%rdi
    6b1f:	74 22                	je     6b43 <_ZN2ML12runLayerTestEmRKNS_5ModelERKNS_4PathE.cold+0xbd>
    6b21:	c5 f8 77             	vzeroupper
    6b24:	e8 27 d7 ff ff       	call   4250 <_ZdlPv@plt>
    6b29:	48 8b bd 90 fe ff ff 	mov    -0x170(%rbp),%rdi
    6b30:	48 8d 85 a0 fe ff ff 	lea    -0x160(%rbp),%rax
    6b37:	48 39 c7             	cmp    %rax,%rdi
    6b3a:	74 b2                	je     6aee <_ZN2ML12runLayerTestEmRKNS_5ModelERKNS_4PathE.cold+0x68>
    6b3c:	e8 0f d7 ff ff       	call   4250 <_ZdlPv@plt>
    6b41:	eb ab                	jmp    6aee <_ZN2ML12runLayerTestEmRKNS_5ModelERKNS_4PathE.cold+0x68>
    6b43:	c5 f8 77             	vzeroupper
    6b46:	eb e1                	jmp    6b29 <_ZN2ML12runLayerTestEmRKNS_5ModelERKNS_4PathE.cold+0xa3>
    6b48:	48 8b 7d 80          	mov    -0x80(%rbp),%rdi
    6b4c:	4c 39 ff             	cmp    %r15,%rdi
    6b4f:	0f 84 83 00 00 00    	je     6bd8 <_ZN2ML12runLayerTestEmRKNS_5ModelERKNS_4PathE.cold+0x152>
    6b55:	c5 f8 77             	vzeroupper
    6b58:	e8 f3 d6 ff ff       	call   4250 <_ZdlPv@plt>
    6b5d:	eb a0                	jmp    6aff <_ZN2ML12runLayerTestEmRKNS_5ModelERKNS_4PathE.cold+0x79>
    6b5f:	48 8b 7d 80          	mov    -0x80(%rbp),%rdi
    6b63:	48 8d 45 90          	lea    -0x70(%rbp),%rax
    6b67:	48 39 c7             	cmp    %rax,%rdi
    6b6a:	74 51                	je     6bbd <_ZN2ML12runLayerTestEmRKNS_5ModelERKNS_4PathE.cold+0x137>
    6b6c:	c5 f8 77             	vzeroupper
    6b6f:	e8 dc d6 ff ff       	call   4250 <_ZdlPv@plt>
    6b74:	48 8b bd 30 ff ff ff 	mov    -0xd0(%rbp),%rdi
    6b7b:	48 8d 85 40 ff ff ff 	lea    -0xc0(%rbp),%rax
    6b82:	48 39 c7             	cmp    %rax,%rdi
    6b85:	74 05                	je     6b8c <_ZN2ML12runLayerTestEmRKNS_5ModelERKNS_4PathE.cold+0x106>
    6b87:	e8 c4 d6 ff ff       	call   4250 <_ZdlPv@plt>
    6b8c:	48 8b bd d0 fe ff ff 	mov    -0x130(%rbp),%rdi
    6b93:	48 8b 85 58 fe ff ff 	mov    -0x1a8(%rbp),%rax
    6b9a:	48 39 c7             	cmp    %rax,%rdi
    6b9d:	74 05                	je     6ba4 <_ZN2ML12runLayerTestEmRKNS_5ModelERKNS_4PathE.cold+0x11e>
    6b9f:	e8 ac d6 ff ff       	call   4250 <_ZdlPv@plt>
    6ba4:	48 8b bd f0 fe ff ff 	mov    -0x110(%rbp),%rdi
    6bab:	4c 39 f7             	cmp    %r14,%rdi
    6bae:	74 05                	je     6bb5 <_ZN2ML12runLayerTestEmRKNS_5ModelERKNS_4PathE.cold+0x12f>
    6bb0:	e8 9b d6 ff ff       	call   4250 <_ZdlPv@plt>
    6bb5:	48 89 df             	mov    %rbx,%rdi
    6bb8:	e8 93 d8 ff ff       	call   4450 <_Unwind_Resume@plt>
    6bbd:	c5 f8 77             	vzeroupper
    6bc0:	eb b2                	jmp    6b74 <_ZN2ML12runLayerTestEmRKNS_5ModelERKNS_4PathE.cold+0xee>
    6bc2:	48 8b 7d 80          	mov    -0x80(%rbp),%rdi
    6bc6:	4c 39 ff             	cmp    %r15,%rdi
    6bc9:	74 15                	je     6be0 <_ZN2ML12runLayerTestEmRKNS_5ModelERKNS_4PathE.cold+0x15a>
    6bcb:	c5 f8 77             	vzeroupper
    6bce:	e8 7d d6 ff ff       	call   4250 <_ZdlPv@plt>
    6bd3:	e9 27 ff ff ff       	jmp    6aff <_ZN2ML12runLayerTestEmRKNS_5ModelERKNS_4PathE.cold+0x79>
    6bd8:	c5 f8 77             	vzeroupper
    6bdb:	e9 1f ff ff ff       	jmp    6aff <_ZN2ML12runLayerTestEmRKNS_5ModelERKNS_4PathE.cold+0x79>
    6be0:	c5 f8 77             	vzeroupper
    6be3:	e9 17 ff ff ff       	jmp    6aff <_ZN2ML12runLayerTestEmRKNS_5ModelERKNS_4PathE.cold+0x79>

0000000000006be8 <_ZN2ML16profileFp32ModelERKNS_5ModelERKNS_4PathEi.cold>:
    6be8:	48 8b bd 40 ff ff ff 	mov    -0xc0(%rbp),%rdi
    6bef:	48 8b 85 70 fe ff ff 	mov    -0x190(%rbp),%rax
    6bf6:	48 39 c7             	cmp    %rax,%rdi
    6bf9:	74 4a                	je     6c45 <_ZN2ML16profileFp32ModelERKNS_5ModelERKNS_4PathEi.cold+0x5d>
    6bfb:	c5 f8 77             	vzeroupper
    6bfe:	e8 4d d6 ff ff       	call   4250 <_ZdlPv@plt>
    6c03:	48 8b bd 58 fe ff ff 	mov    -0x1a8(%rbp),%rdi
    6c0a:	e8 81 46 02 00       	call   2b290 <_ZN2ML9LayerDataD1Ev>
    6c0f:	48 8b bd c0 fe ff ff 	mov    -0x140(%rbp),%rdi
    6c16:	48 8d 85 d0 fe ff ff 	lea    -0x130(%rbp),%rax
    6c1d:	48 39 c7             	cmp    %rax,%rdi
    6c20:	74 05                	je     6c27 <_ZN2ML16profileFp32ModelERKNS_5ModelERKNS_4PathEi.cold+0x3f>
    6c22:	e8 29 d6 ff ff       	call   4250 <_ZdlPv@plt>
    6c27:	48 83 bd 78 fe ff ff 	cmpq   $0x0,-0x188(%rbp)
    6c2e:	00 
    6c2f:	74 0c                	je     6c3d <_ZN2ML16profileFp32ModelERKNS_5ModelERKNS_4PathEi.cold+0x55>
    6c31:	48 8b bd 78 fe ff ff 	mov    -0x188(%rbp),%rdi
    6c38:	e8 13 d6 ff ff       	call   4250 <_ZdlPv@plt>
    6c3d:	48 89 df             	mov    %rbx,%rdi
    6c40:	e8 0b d8 ff ff       	call   4450 <_Unwind_Resume@plt>
    6c45:	c5 f8 77             	vzeroupper
    6c48:	eb b9                	jmp    6c03 <_ZN2ML16profileFp32ModelERKNS_5ModelERKNS_4PathEi.cold+0x1b>
    6c4a:	48 8b bd 00 ff ff ff 	mov    -0x100(%rbp),%rdi
    6c51:	48 8b 85 a8 fe ff ff 	mov    -0x158(%rbp),%rax
    6c58:	48 39 c7             	cmp    %rax,%rdi
    6c5b:	0f 84 18 01 00 00    	je     6d79 <_ZN2ML16profileFp32ModelERKNS_5ModelERKNS_4PathEi.cold+0x191>
    6c61:	c5 f8 77             	vzeroupper
    6c64:	e8 e7 d5 ff ff       	call   4250 <_ZdlPv@plt>
    6c69:	48 8b bd e0 fe ff ff 	mov    -0x120(%rbp),%rdi
    6c70:	48 8b 85 98 fe ff ff 	mov    -0x168(%rbp),%rax
    6c77:	48 39 c7             	cmp    %rax,%rdi
    6c7a:	74 87                	je     6c03 <_ZN2ML16profileFp32ModelERKNS_5ModelERKNS_4PathEi.cold+0x1b>
    6c7c:	e8 cf d5 ff ff       	call   4250 <_ZdlPv@plt>
    6c81:	eb 80                	jmp    6c03 <_ZN2ML16profileFp32ModelERKNS_5ModelERKNS_4PathEi.cold+0x1b>
    6c83:	48 8b bd 50 ff ff ff 	mov    -0xb0(%rbp),%rdi
    6c8a:	4c 39 f7             	cmp    %r14,%rdi
    6c8d:	74 0d                	je     6c9c <_ZN2ML16profileFp32ModelERKNS_5ModelERKNS_4PathEi.cold+0xb4>
    6c8f:	c5 f8 77             	vzeroupper
    6c92:	e8 b9 d5 ff ff       	call   4250 <_ZdlPv@plt>
    6c97:	e9 67 ff ff ff       	jmp    6c03 <_ZN2ML16profileFp32ModelERKNS_5ModelERKNS_4PathEi.cold+0x1b>
    6c9c:	c5 f8 77             	vzeroupper
    6c9f:	e9 5f ff ff ff       	jmp    6c03 <_ZN2ML16profileFp32ModelERKNS_5ModelERKNS_4PathEi.cold+0x1b>
    6ca4:	48 8b 7d 80          	mov    -0x80(%rbp),%rdi
    6ca8:	48 8b 85 48 fe ff ff 	mov    -0x1b8(%rbp),%rax
    6caf:	48 39 c7             	cmp    %rax,%rdi
    6cb2:	74 2f                	je     6ce3 <_ZN2ML16profileFp32ModelERKNS_5ModelERKNS_4PathEi.cold+0xfb>
    6cb4:	c5 f8 77             	vzeroupper
    6cb7:	e8 94 d5 ff ff       	call   4250 <_ZdlPv@plt>
    6cbc:	e9 66 ff ff ff       	jmp    6c27 <_ZN2ML16profileFp32ModelERKNS_5ModelERKNS_4PathEi.cold+0x3f>
    6cc1:	48 8b 7d 80          	mov    -0x80(%rbp),%rdi
    6cc5:	48 8d 45 90          	lea    -0x70(%rbp),%rax
    6cc9:	48 39 c7             	cmp    %rax,%rdi
    6ccc:	74 0d                	je     6cdb <_ZN2ML16profileFp32ModelERKNS_5ModelERKNS_4PathEi.cold+0xf3>
    6cce:	c5 f8 77             	vzeroupper
    6cd1:	e8 7a d5 ff ff       	call   4250 <_ZdlPv@plt>
    6cd6:	e9 62 ff ff ff       	jmp    6c3d <_ZN2ML16profileFp32ModelERKNS_5ModelERKNS_4PathEi.cold+0x55>
    6cdb:	c5 f8 77             	vzeroupper
    6cde:	e9 5a ff ff ff       	jmp    6c3d <_ZN2ML16profileFp32ModelERKNS_5ModelERKNS_4PathEi.cold+0x55>
    6ce3:	c5 f8 77             	vzeroupper
    6ce6:	e9 3c ff ff ff       	jmp    6c27 <_ZN2ML16profileFp32ModelERKNS_5ModelERKNS_4PathEi.cold+0x3f>
    6ceb:	48 8b bd 00 ff ff ff 	mov    -0x100(%rbp),%rdi
    6cf2:	48 8d 85 10 ff ff ff 	lea    -0xf0(%rbp),%rax
    6cf9:	48 39 c7             	cmp    %rax,%rdi
    6cfc:	74 76                	je     6d74 <_ZN2ML16profileFp32ModelERKNS_5ModelERKNS_4PathEi.cold+0x18c>
    6cfe:	c5 f8 77             	vzeroupper
    6d01:	e8 4a d5 ff ff       	call   4250 <_ZdlPv@plt>
    6d06:	48 8b bd e0 fe ff ff 	mov    -0x120(%rbp),%rdi
    6d0d:	48 8d 85 f0 fe ff ff 	lea    -0x110(%rbp),%rax
    6d14:	48 39 c7             	cmp    %rax,%rdi
    6d17:	74 05                	je     6d1e <_ZN2ML16profileFp32ModelERKNS_5ModelERKNS_4PathEi.cold+0x136>
    6d19:	e8 32 d5 ff ff       	call   4250 <_ZdlPv@plt>
    6d1e:	48 8b 7d 80          	mov    -0x80(%rbp),%rdi
    6d22:	48 8b 85 48 fe ff ff 	mov    -0x1b8(%rbp),%rax
    6d29:	48 39 c7             	cmp    %rax,%rdi
    6d2c:	74 05                	je     6d33 <_ZN2ML16profileFp32ModelERKNS_5ModelERKNS_4PathEi.cold+0x14b>
    6d2e:	e8 1d d5 ff ff       	call   4250 <_ZdlPv@plt>
    6d33:	48 8b bd 40 ff ff ff 	mov    -0xc0(%rbp),%rdi
    6d3a:	48 8b 85 70 fe ff ff 	mov    -0x190(%rbp),%rax
    6d41:	48 39 c7             	cmp    %rax,%rdi
    6d44:	0f 84 dd fe ff ff    	je     6c27 <_ZN2ML16profileFp32ModelERKNS_5ModelERKNS_4PathEi.cold+0x3f>
    6d4a:	e8 01 d5 ff ff       	call   4250 <_ZdlPv@plt>
    6d4f:	e9 d3 fe ff ff       	jmp    6c27 <_ZN2ML16profileFp32ModelERKNS_5ModelERKNS_4PathEi.cold+0x3f>
    6d54:	48 8b bd 40 ff ff ff 	mov    -0xc0(%rbp),%rdi
    6d5b:	48 8b 85 70 fe ff ff 	mov    -0x190(%rbp),%rax
    6d62:	48 39 c7             	cmp    %rax,%rdi
    6d65:	74 1a                	je     6d81 <_ZN2ML16profileFp32ModelERKNS_5ModelERKNS_4PathEi.cold+0x199>
    6d67:	c5 f8 77             	vzeroupper
    6d6a:	e8 e1 d4 ff ff       	call   4250 <_ZdlPv@plt>
    6d6f:	e9 9b fe ff ff       	jmp    6c0f <_ZN2ML16profileFp32ModelERKNS_5ModelERKNS_4PathEi.cold+0x27>
    6d74:	c5 f8 77             	vzeroupper
    6d77:	eb 8d                	jmp    6d06 <_ZN2ML16profileFp32ModelERKNS_5ModelERKNS_4PathEi.cold+0x11e>
    6d79:	c5 f8 77             	vzeroupper
    6d7c:	e9 e8 fe ff ff       	jmp    6c69 <_ZN2ML16profileFp32ModelERKNS_5ModelERKNS_4PathEi.cold+0x81>
    6d81:	c5 f8 77             	vzeroupper
    6d84:	e9 86 fe ff ff       	jmp    6c0f <_ZN2ML16profileFp32ModelERKNS_5ModelERKNS_4PathEi.cold+0x27>

0000000000006d89 <_ZN2ML22profileModelWithTilingERKNS_5ModelERKNS_4PathEi.cold>:
    6d89:	48 8b bd 70 ff ff ff 	mov    -0x90(%rbp),%rdi
    6d90:	48 8b 85 d8 fd ff ff 	mov    -0x228(%rbp),%rax
    6d97:	48 39 c7             	cmp    %rax,%rdi
    6d9a:	0f 85 b8 00 00 00    	jne    6e58 <_ZN2ML22profileModelWithTilingERKNS_5ModelERKNS_4PathEi.cold+0xcf>
    6da0:	c5 f8 77             	vzeroupper
    6da3:	48 8b bd 70 fe ff ff 	mov    -0x190(%rbp),%rdi
    6daa:	4c 39 ef             	cmp    %r13,%rdi
    6dad:	74 05                	je     6db4 <_ZN2ML22profileModelWithTilingERKNS_5ModelERKNS_4PathEi.cold+0x2b>
    6daf:	e8 9c d4 ff ff       	call   4250 <_ZdlPv@plt>
    6db4:	48 8b bd d0 fe ff ff 	mov    -0x130(%rbp),%rdi
    6dbb:	48 8b 85 20 fe ff ff 	mov    -0x1e0(%rbp),%rax
    6dc2:	48 39 c7             	cmp    %rax,%rdi
    6dc5:	74 05                	je     6dcc <_ZN2ML22profileModelWithTilingERKNS_5ModelERKNS_4PathEi.cold+0x43>
    6dc7:	e8 84 d4 ff ff       	call   4250 <_ZdlPv@plt>
    6dcc:	48 8b bd b0 fe ff ff 	mov    -0x150(%rbp),%rdi
    6dd3:	48 8b 85 18 fe ff ff 	mov    -0x1e8(%rbp),%rax
    6dda:	48 39 c7             	cmp    %rax,%rdi
    6ddd:	74 05                	je     6de4 <_ZN2ML22profileModelWithTilingERKNS_5ModelERKNS_4PathEi.cold+0x5b>
    6ddf:	e8 6c d4 ff ff       	call   4250 <_ZdlPv@plt>
    6de4:	48 83 bd e0 fd ff ff 	cmpq   $0x0,-0x220(%rbp)
    6deb:	00 
    6dec:	74 0c                	je     6dfa <_ZN2ML22profileModelWithTilingERKNS_5ModelERKNS_4PathEi.cold+0x71>
    6dee:	48 8b bd e0 fd ff ff 	mov    -0x220(%rbp),%rdi
    6df5:	e8 56 d4 ff ff       	call   4250 <_ZdlPv@plt>
    6dfa:	48 8b bd 30 fe ff ff 	mov    -0x1d0(%rbp),%rdi
    6e01:	48 85 ff             	test   %rdi,%rdi
    6e04:	74 05                	je     6e0b <_ZN2ML22profileModelWithTilingERKNS_5ModelERKNS_4PathEi.cold+0x82>
    6e06:	e8 45 d4 ff ff       	call   4250 <_ZdlPv@plt>
    6e0b:	48 89 df             	mov    %rbx,%rdi
    6e0e:	e8 3d d6 ff ff       	call   4450 <_Unwind_Resume@plt>
    6e13:	48 8b bd 30 ff ff ff 	mov    -0xd0(%rbp),%rdi
    6e1a:	48 8b 85 f8 fd ff ff 	mov    -0x208(%rbp),%rax
    6e21:	48 39 c7             	cmp    %rax,%rdi
    6e24:	0f 84 e2 02 00 00    	je     710c <_ZN2ML22profileModelWithTilingERKNS_5ModelERKNS_4PathEi.cold+0x383>
    6e2a:	c5 f8 77             	vzeroupper
    6e2d:	e8 1e d4 ff ff       	call   4250 <_ZdlPv@plt>
    6e32:	48 8b bd e8 fd ff ff 	mov    -0x218(%rbp),%rdi
    6e39:	e8 52 44 02 00       	call   2b290 <_ZN2ML9LayerDataD1Ev>
    6e3e:	48 8b bd 50 fe ff ff 	mov    -0x1b0(%rbp),%rdi
    6e45:	48 8b 85 a8 fd ff ff 	mov    -0x258(%rbp),%rax
    6e4c:	48 39 c7             	cmp    %rax,%rdi
    6e4f:	74 93                	je     6de4 <_ZN2ML22profileModelWithTilingERKNS_5ModelERKNS_4PathEi.cold+0x5b>
    6e51:	e8 fa d3 ff ff       	call   4250 <_ZdlPv@plt>
    6e56:	eb 8c                	jmp    6de4 <_ZN2ML22profileModelWithTilingERKNS_5ModelERKNS_4PathEi.cold+0x5b>
    6e58:	c5 f8 77             	vzeroupper
    6e5b:	e8 f0 d3 ff ff       	call   4250 <_ZdlPv@plt>
    6e60:	e9 3e ff ff ff       	jmp    6da3 <_ZN2ML22profileModelWithTilingERKNS_5ModelERKNS_4PathEi.cold+0x1a>
    6e65:	48 8b bd 30 ff ff ff 	mov    -0xd0(%rbp),%rdi
    6e6c:	48 8b 85 f8 fd ff ff 	mov    -0x208(%rbp),%rax
    6e73:	48 39 c7             	cmp    %rax,%rdi
    6e76:	0f 85 cf 00 00 00    	jne    6f4b <_ZN2ML22profileModelWithTilingERKNS_5ModelERKNS_4PathEi.cold+0x1c2>
    6e7c:	c5 f8 77             	vzeroupper
    6e7f:	48 8b bd 70 ff ff ff 	mov    -0x90(%rbp),%rdi
    6e86:	48 8b 85 d8 fd ff ff 	mov    -0x228(%rbp),%rax
    6e8d:	48 39 c7             	cmp    %rax,%rdi
    6e90:	0f 85 19 ff ff ff    	jne    6daf <_ZN2ML22profileModelWithTilingERKNS_5ModelERKNS_4PathEi.cold+0x26>
    6e96:	e9 19 ff ff ff       	jmp    6db4 <_ZN2ML22profileModelWithTilingERKNS_5ModelERKNS_4PathEi.cold+0x2b>
    6e9b:	48 8b bd 70 ff ff ff 	mov    -0x90(%rbp),%rdi
    6ea2:	48 8b 85 d8 fd ff ff 	mov    -0x228(%rbp),%rax
    6ea9:	48 39 c7             	cmp    %rax,%rdi
    6eac:	0f 84 25 01 00 00    	je     6fd7 <_ZN2ML22profileModelWithTilingERKNS_5ModelERKNS_4PathEi.cold+0x24e>
    6eb2:	c5 f8 77             	vzeroupper
    6eb5:	e8 96 d3 ff ff       	call   4250 <_ZdlPv@plt>
    6eba:	48 8b bd 30 ff ff ff 	mov    -0xd0(%rbp),%rdi
    6ec1:	48 8b 85 f8 fd ff ff 	mov    -0x208(%rbp),%rax
    6ec8:	48 39 c7             	cmp    %rax,%rdi
    6ecb:	74 05                	je     6ed2 <_ZN2ML22profileModelWithTilingERKNS_5ModelERKNS_4PathEi.cold+0x149>
    6ecd:	e8 7e d3 ff ff       	call   4250 <_ZdlPv@plt>
    6ed2:	48 8b bd d0 fe ff ff 	mov    -0x130(%rbp),%rdi
    6ed9:	48 8d 85 e0 fe ff ff 	lea    -0x120(%rbp),%rax
    6ee0:	48 39 c7             	cmp    %rax,%rdi
    6ee3:	0f 84 11 ff ff ff    	je     6dfa <_ZN2ML22profileModelWithTilingERKNS_5ModelERKNS_4PathEi.cold+0x71>
    6ee9:	e8 62 d3 ff ff       	call   4250 <_ZdlPv@plt>
    6eee:	e9 07 ff ff ff       	jmp    6dfa <_ZN2ML22profileModelWithTilingERKNS_5ModelERKNS_4PathEi.cold+0x71>
    6ef3:	48 8b bd 70 ff ff ff 	mov    -0x90(%rbp),%rdi
    6efa:	48 8b 85 d8 fd ff ff 	mov    -0x228(%rbp),%rax
    6f01:	48 39 c7             	cmp    %rax,%rdi
    6f04:	0f 84 0a 02 00 00    	je     7114 <_ZN2ML22profileModelWithTilingERKNS_5ModelERKNS_4PathEi.cold+0x38b>
    6f0a:	c5 f8 77             	vzeroupper
    6f0d:	e8 3e d3 ff ff       	call   4250 <_ZdlPv@plt>
    6f12:	48 8b bd 30 ff ff ff 	mov    -0xd0(%rbp),%rdi
    6f19:	48 8b 85 f8 fd ff ff 	mov    -0x208(%rbp),%rax
    6f20:	48 39 c7             	cmp    %rax,%rdi
    6f23:	74 05                	je     6f2a <_ZN2ML22profileModelWithTilingERKNS_5ModelERKNS_4PathEi.cold+0x1a1>
    6f25:	e8 26 d3 ff ff       	call   4250 <_ZdlPv@plt>
    6f2a:	48 8b bd d0 fe ff ff 	mov    -0x130(%rbp),%rdi
    6f31:	48 8b 85 20 fe ff ff 	mov    -0x1e0(%rbp),%rax
    6f38:	48 39 c7             	cmp    %rax,%rdi
    6f3b:	0f 84 a3 fe ff ff    	je     6de4 <_ZN2ML22profileModelWithTilingERKNS_5ModelERKNS_4PathEi.cold+0x5b>
    6f41:	e8 0a d3 ff ff       	call   4250 <_ZdlPv@plt>
    6f46:	e9 99 fe ff ff       	jmp    6de4 <_ZN2ML22profileModelWithTilingERKNS_5ModelERKNS_4PathEi.cold+0x5b>
    6f4b:	c5 f8 77             	vzeroupper
    6f4e:	e8 fd d2 ff ff       	call   4250 <_ZdlPv@plt>
    6f53:	e9 27 ff ff ff       	jmp    6e7f <_ZN2ML22profileModelWithTilingERKNS_5ModelERKNS_4PathEi.cold+0xf6>
    6f58:	48 8b bd 70 ff ff ff 	mov    -0x90(%rbp),%rdi
    6f5f:	48 8d 45 80          	lea    -0x80(%rbp),%rax
    6f63:	48 39 c7             	cmp    %rax,%rdi
    6f66:	74 62                	je     6fca <_ZN2ML22profileModelWithTilingERKNS_5ModelERKNS_4PathEi.cold+0x241>
    6f68:	c5 f8 77             	vzeroupper
    6f6b:	e8 e0 d2 ff ff       	call   4250 <_ZdlPv@plt>
    6f70:	e9 96 fe ff ff       	jmp    6e0b <_ZN2ML22profileModelWithTilingERKNS_5ModelERKNS_4PathEi.cold+0x82>
    6f75:	48 8b bd 78 ff ff ff 	mov    -0x88(%rbp),%rdi
    6f7c:	48 85 ff             	test   %rdi,%rdi
    6f7f:	74 51                	je     6fd2 <_ZN2ML22profileModelWithTilingERKNS_5ModelERKNS_4PathEi.cold+0x249>
    6f81:	c5 f8 77             	vzeroupper
    6f84:	e8 c7 d2 ff ff       	call   4250 <_ZdlPv@plt>
    6f89:	48 85 db             	test   %rbx,%rbx
    6f8c:	75 51                	jne    6fdf <_ZN2ML22profileModelWithTilingERKNS_5ModelERKNS_4PathEi.cold+0x256>
    6f8e:	4c 89 e3             	mov    %r12,%rbx
    6f91:	48 8b bd 30 ff ff ff 	mov    -0xd0(%rbp),%rdi
    6f98:	48 8b 85 f8 fd ff ff 	mov    -0x208(%rbp),%rax
    6f9f:	48 39 c7             	cmp    %rax,%rdi
    6fa2:	74 05                	je     6fa9 <_ZN2ML22profileModelWithTilingERKNS_5ModelERKNS_4PathEi.cold+0x220>
    6fa4:	e8 a7 d2 ff ff       	call   4250 <_ZdlPv@plt>
    6fa9:	48 8b bd d0 fe ff ff 	mov    -0x130(%rbp),%rdi
    6fb0:	48 8b 85 20 fe ff ff 	mov    -0x1e0(%rbp),%rax
    6fb7:	48 39 c7             	cmp    %rax,%rdi
    6fba:	0f 84 7e fe ff ff    	je     6e3e <_ZN2ML22profileModelWithTilingERKNS_5ModelERKNS_4PathEi.cold+0xb5>
    6fc0:	e8 8b d2 ff ff       	call   4250 <_ZdlPv@plt>
    6fc5:	e9 74 fe ff ff       	jmp    6e3e <_ZN2ML22profileModelWithTilingERKNS_5ModelERKNS_4PathEi.cold+0xb5>
    6fca:	c5 f8 77             	vzeroupper
    6fcd:	e9 39 fe ff ff       	jmp    6e0b <_ZN2ML22profileModelWithTilingERKNS_5ModelERKNS_4PathEi.cold+0x82>
    6fd2:	c5 f8 77             	vzeroupper
    6fd5:	eb b2                	jmp    6f89 <_ZN2ML22profileModelWithTilingERKNS_5ModelERKNS_4PathEi.cold+0x200>
    6fd7:	c5 f8 77             	vzeroupper
    6fda:	e9 db fe ff ff       	jmp    6eba <_ZN2ML22profileModelWithTilingERKNS_5ModelERKNS_4PathEi.cold+0x131>
    6fdf:	48 89 df             	mov    %rbx,%rdi
    6fe2:	e8 69 d2 ff ff       	call   4250 <_ZdlPv@plt>
    6fe7:	eb a5                	jmp    6f8e <_ZN2ML22profileModelWithTilingERKNS_5ModelERKNS_4PathEi.cold+0x205>
    6fe9:	48 8b bd 70 ff ff ff 	mov    -0x90(%rbp),%rdi
    6ff0:	48 8b 85 d8 fd ff ff 	mov    -0x228(%rbp),%rax
    6ff7:	48 39 c7             	cmp    %rax,%rdi
    6ffa:	0f 84 1c 01 00 00    	je     711c <_ZN2ML22profileModelWithTilingERKNS_5ModelERKNS_4PathEi.cold+0x393>
    7000:	c5 f8 77             	vzeroupper
    7003:	e8 48 d2 ff ff       	call   4250 <_ZdlPv@plt>
    7008:	48 8b bd 90 fe ff ff 	mov    -0x170(%rbp),%rdi
    700f:	48 39 df             	cmp    %rbx,%rdi
    7012:	74 05                	je     7019 <_ZN2ML22profileModelWithTilingERKNS_5ModelERKNS_4PathEi.cold+0x290>
    7014:	e8 37 d2 ff ff       	call   4250 <_ZdlPv@plt>
    7019:	4c 89 e3             	mov    %r12,%rbx
    701c:	e9 82 fd ff ff       	jmp    6da3 <_ZN2ML22profileModelWithTilingERKNS_5ModelERKNS_4PathEi.cold+0x1a>
    7021:	48 8b bd 30 ff ff ff 	mov    -0xd0(%rbp),%rdi
    7028:	48 8b 85 f8 fd ff ff 	mov    -0x208(%rbp),%rax
    702f:	48 39 c7             	cmp    %rax,%rdi
    7032:	75 24                	jne    7058 <_ZN2ML22profileModelWithTilingERKNS_5ModelERKNS_4PathEi.cold+0x2cf>
    7034:	c5 f8 77             	vzeroupper
    7037:	48 8b bd 70 ff ff ff 	mov    -0x90(%rbp),%rdi
    703e:	48 8b 85 d8 fd ff ff 	mov    -0x228(%rbp),%rax
    7045:	48 39 c7             	cmp    %rax,%rdi
    7048:	0f 84 55 fd ff ff    	je     6da3 <_ZN2ML22profileModelWithTilingERKNS_5ModelERKNS_4PathEi.cold+0x1a>
    704e:	e8 fd d1 ff ff       	call   4250 <_ZdlPv@plt>
    7053:	e9 4b fd ff ff       	jmp    6da3 <_ZN2ML22profileModelWithTilingERKNS_5ModelERKNS_4PathEi.cold+0x1a>
    7058:	c5 f8 77             	vzeroupper
    705b:	e8 f0 d1 ff ff       	call   4250 <_ZdlPv@plt>
    7060:	eb d5                	jmp    7037 <_ZN2ML22profileModelWithTilingERKNS_5ModelERKNS_4PathEi.cold+0x2ae>
    7062:	48 8b bd d0 fe ff ff 	mov    -0x130(%rbp),%rdi
    7069:	48 8b 85 20 fe ff ff 	mov    -0x1e0(%rbp),%rax
    7070:	48 39 c7             	cmp    %rax,%rdi
    7073:	75 24                	jne    7099 <_ZN2ML22profileModelWithTilingERKNS_5ModelERKNS_4PathEi.cold+0x310>
    7075:	c5 f8 77             	vzeroupper
    7078:	48 8b bd b0 fe ff ff 	mov    -0x150(%rbp),%rdi
    707f:	48 8b 85 18 fe ff ff 	mov    -0x1e8(%rbp),%rax
    7086:	48 39 c7             	cmp    %rax,%rdi
    7089:	0f 84 a3 fd ff ff    	je     6e32 <_ZN2ML22profileModelWithTilingERKNS_5ModelERKNS_4PathEi.cold+0xa9>
    708f:	e8 bc d1 ff ff       	call   4250 <_ZdlPv@plt>
    7094:	e9 99 fd ff ff       	jmp    6e32 <_ZN2ML22profileModelWithTilingERKNS_5ModelERKNS_4PathEi.cold+0xa9>
    7099:	c5 f8 77             	vzeroupper
    709c:	e8 af d1 ff ff       	call   4250 <_ZdlPv@plt>
    70a1:	eb d5                	jmp    7078 <_ZN2ML22profileModelWithTilingERKNS_5ModelERKNS_4PathEi.cold+0x2ef>
    70a3:	48 8b bd 30 ff ff ff 	mov    -0xd0(%rbp),%rdi
    70aa:	48 8b 85 f8 fd ff ff 	mov    -0x208(%rbp),%rax
    70b1:	48 39 c7             	cmp    %rax,%rdi
    70b4:	75 44                	jne    70fa <_ZN2ML22profileModelWithTilingERKNS_5ModelERKNS_4PathEi.cold+0x371>
    70b6:	c5 f8 77             	vzeroupper
    70b9:	48 8b bd 70 ff ff ff 	mov    -0x90(%rbp),%rdi
    70c0:	48 8b 85 d8 fd ff ff 	mov    -0x228(%rbp),%rax
    70c7:	48 39 c7             	cmp    %rax,%rdi
    70ca:	0f 84 38 ff ff ff    	je     7008 <_ZN2ML22profileModelWithTilingERKNS_5ModelERKNS_4PathEi.cold+0x27f>
    70d0:	e8 7b d1 ff ff       	call   4250 <_ZdlPv@plt>
    70d5:	e9 2e ff ff ff       	jmp    7008 <_ZN2ML22profileModelWithTilingERKNS_5ModelERKNS_4PathEi.cold+0x27f>
    70da:	48 8b bd 40 ff ff ff 	mov    -0xc0(%rbp),%rdi
    70e1:	48 8b 85 00 fe ff ff 	mov    -0x200(%rbp),%rax
    70e8:	48 39 c7             	cmp    %rax,%rdi
    70eb:	74 17                	je     7104 <_ZN2ML22profileModelWithTilingERKNS_5ModelERKNS_4PathEi.cold+0x37b>
    70ed:	c5 f8 77             	vzeroupper
    70f0:	e8 5b d1 ff ff       	call   4250 <_ZdlPv@plt>
    70f5:	e9 38 fd ff ff       	jmp    6e32 <_ZN2ML22profileModelWithTilingERKNS_5ModelERKNS_4PathEi.cold+0xa9>
    70fa:	c5 f8 77             	vzeroupper
    70fd:	e8 4e d1 ff ff       	call   4250 <_ZdlPv@plt>
    7102:	eb b5                	jmp    70b9 <_ZN2ML22profileModelWithTilingERKNS_5ModelERKNS_4PathEi.cold+0x330>
    7104:	c5 f8 77             	vzeroupper
    7107:	e9 26 fd ff ff       	jmp    6e32 <_ZN2ML22profileModelWithTilingERKNS_5ModelERKNS_4PathEi.cold+0xa9>
    710c:	c5 f8 77             	vzeroupper
    710f:	e9 1e fd ff ff       	jmp    6e32 <_ZN2ML22profileModelWithTilingERKNS_5ModelERKNS_4PathEi.cold+0xa9>
    7114:	c5 f8 77             	vzeroupper
    7117:	e9 f6 fd ff ff       	jmp    6f12 <_ZN2ML22profileModelWithTilingERKNS_5ModelERKNS_4PathEi.cold+0x189>
    711c:	c5 f8 77             	vzeroupper
    711f:	e9 e4 fe ff ff       	jmp    7008 <_ZN2ML22profileModelWithTilingERKNS_5ModelERKNS_4PathEi.cold+0x27f>
    7124:	48 8b bd 70 ff ff ff 	mov    -0x90(%rbp),%rdi
    712b:	48 8b 85 d8 fd ff ff 	mov    -0x228(%rbp),%rax
    7132:	48 39 c7             	cmp    %rax,%rdi
    7135:	74 0d                	je     7144 <_ZN2ML22profileModelWithTilingERKNS_5ModelERKNS_4PathEi.cold+0x3bb>
    7137:	c5 f8 77             	vzeroupper
    713a:	e8 11 d1 ff ff       	call   4250 <_ZdlPv@plt>
    713f:	e9 70 fc ff ff       	jmp    6db4 <_ZN2ML22profileModelWithTilingERKNS_5ModelERKNS_4PathEi.cold+0x2b>
    7144:	c5 f8 77             	vzeroupper
    7147:	e9 68 fc ff ff       	jmp    6db4 <_ZN2ML22profileModelWithTilingERKNS_5ModelERKNS_4PathEi.cold+0x2b>

000000000000714c <_ZN2ML25profileModelWithThreadingERKNS_5ModelERKNS_4PathEi.cold>:
    714c:	48 8b 7d 80          	mov    -0x80(%rbp),%rdi
    7150:	48 8b 85 e8 fd ff ff 	mov    -0x218(%rbp),%rax
    7157:	48 39 c7             	cmp    %rax,%rdi
    715a:	0f 85 b8 00 00 00    	jne    7218 <_ZN2ML25profileModelWithThreadingERKNS_5ModelERKNS_4PathEi.cold+0xcc>
    7160:	c5 f8 77             	vzeroupper
    7163:	48 8b bd 80 fe ff ff 	mov    -0x180(%rbp),%rdi
    716a:	4c 39 ef             	cmp    %r13,%rdi
    716d:	74 05                	je     7174 <_ZN2ML25profileModelWithThreadingERKNS_5ModelERKNS_4PathEi.cold+0x28>
    716f:	e8 dc d0 ff ff       	call   4250 <_ZdlPv@plt>
    7174:	48 8b bd e0 fe ff ff 	mov    -0x120(%rbp),%rdi
    717b:	48 8b 85 30 fe ff ff 	mov    -0x1d0(%rbp),%rax
    7182:	48 39 c7             	cmp    %rax,%rdi
    7185:	74 05                	je     718c <_ZN2ML25profileModelWithThreadingERKNS_5ModelERKNS_4PathEi.cold+0x40>
    7187:	e8 c4 d0 ff ff       	call   4250 <_ZdlPv@plt>
    718c:	48 8b bd c0 fe ff ff 	mov    -0x140(%rbp),%rdi
    7193:	48 8b 85 28 fe ff ff 	mov    -0x1d8(%rbp),%rax
    719a:	48 39 c7             	cmp    %rax,%rdi
    719d:	74 05                	je     71a4 <_ZN2ML25profileModelWithThreadingERKNS_5ModelERKNS_4PathEi.cold+0x58>
    719f:	e8 ac d0 ff ff       	call   4250 <_ZdlPv@plt>
    71a4:	48 83 bd f0 fd ff ff 	cmpq   $0x0,-0x210(%rbp)
    71ab:	00 
    71ac:	74 0c                	je     71ba <_ZN2ML25profileModelWithThreadingERKNS_5ModelERKNS_4PathEi.cold+0x6e>
    71ae:	48 8b bd f0 fd ff ff 	mov    -0x210(%rbp),%rdi
    71b5:	e8 96 d0 ff ff       	call   4250 <_ZdlPv@plt>
    71ba:	48 8b bd 40 fe ff ff 	mov    -0x1c0(%rbp),%rdi
    71c1:	48 85 ff             	test   %rdi,%rdi
    71c4:	74 05                	je     71cb <_ZN2ML25profileModelWithThreadingERKNS_5ModelERKNS_4PathEi.cold+0x7f>
    71c6:	e8 85 d0 ff ff       	call   4250 <_ZdlPv@plt>
    71cb:	48 89 df             	mov    %rbx,%rdi
    71ce:	e8 7d d2 ff ff       	call   4450 <_Unwind_Resume@plt>
    71d3:	48 8b bd 40 ff ff ff 	mov    -0xc0(%rbp),%rdi
    71da:	48 8b 85 08 fe ff ff 	mov    -0x1f8(%rbp),%rax
    71e1:	48 39 c7             	cmp    %rax,%rdi
    71e4:	0f 84 ca 02 00 00    	je     74b4 <_ZN2ML25profileModelWithThreadingERKNS_5ModelERKNS_4PathEi.cold+0x368>
    71ea:	c5 f8 77             	vzeroupper
    71ed:	e8 5e d0 ff ff       	call   4250 <_ZdlPv@plt>
    71f2:	48 8b bd f8 fd ff ff 	mov    -0x208(%rbp),%rdi
    71f9:	e8 92 40 02 00       	call   2b290 <_ZN2ML9LayerDataD1Ev>
    71fe:	48 8b bd 60 fe ff ff 	mov    -0x1a0(%rbp),%rdi
    7205:	48 8b 85 b8 fd ff ff 	mov    -0x248(%rbp),%rax
    720c:	48 39 c7             	cmp    %rax,%rdi
    720f:	74 93                	je     71a4 <_ZN2ML25profileModelWithThreadingERKNS_5ModelERKNS_4PathEi.cold+0x58>
    7211:	e8 3a d0 ff ff       	call   4250 <_ZdlPv@plt>
    7216:	eb 8c                	jmp    71a4 <_ZN2ML25profileModelWithThreadingERKNS_5ModelERKNS_4PathEi.cold+0x58>
    7218:	c5 f8 77             	vzeroupper
    721b:	e8 30 d0 ff ff       	call   4250 <_ZdlPv@plt>
    7220:	e9 3e ff ff ff       	jmp    7163 <_ZN2ML25profileModelWithThreadingERKNS_5ModelERKNS_4PathEi.cold+0x17>
    7225:	48 8b bd 40 ff ff ff 	mov    -0xc0(%rbp),%rdi
    722c:	48 8b 85 08 fe ff ff 	mov    -0x1f8(%rbp),%rax
    7233:	48 39 c7             	cmp    %rax,%rdi
    7236:	0f 85 c6 00 00 00    	jne    7302 <_ZN2ML25profileModelWithThreadingERKNS_5ModelERKNS_4PathEi.cold+0x1b6>
    723c:	c5 f8 77             	vzeroupper
    723f:	48 8b 7d 80          	mov    -0x80(%rbp),%rdi
    7243:	48 8b 85 e8 fd ff ff 	mov    -0x218(%rbp),%rax
    724a:	48 39 c7             	cmp    %rax,%rdi
    724d:	0f 85 1c ff ff ff    	jne    716f <_ZN2ML25profileModelWithThreadingERKNS_5ModelERKNS_4PathEi.cold+0x23>
    7253:	e9 1c ff ff ff       	jmp    7174 <_ZN2ML25profileModelWithThreadingERKNS_5ModelERKNS_4PathEi.cold+0x28>
    7258:	48 8b 7d 80          	mov    -0x80(%rbp),%rdi
    725c:	48 8b 85 e8 fd ff ff 	mov    -0x218(%rbp),%rax
    7263:	48 39 c7             	cmp    %rax,%rdi
    7266:	0f 84 1c 01 00 00    	je     7388 <_ZN2ML25profileModelWithThreadingERKNS_5ModelERKNS_4PathEi.cold+0x23c>
    726c:	c5 f8 77             	vzeroupper
    726f:	e8 dc cf ff ff       	call   4250 <_ZdlPv@plt>
    7274:	48 8b bd 40 ff ff ff 	mov    -0xc0(%rbp),%rdi
    727b:	48 8b 85 08 fe ff ff 	mov    -0x1f8(%rbp),%rax
    7282:	48 39 c7             	cmp    %rax,%rdi
    7285:	74 05                	je     728c <_ZN2ML25profileModelWithThreadingERKNS_5ModelERKNS_4PathEi.cold+0x140>
    7287:	e8 c4 cf ff ff       	call   4250 <_ZdlPv@plt>
    728c:	48 8b bd e0 fe ff ff 	mov    -0x120(%rbp),%rdi
    7293:	48 8d 85 f0 fe ff ff 	lea    -0x110(%rbp),%rax
    729a:	48 39 c7             	cmp    %rax,%rdi
    729d:	0f 84 17 ff ff ff    	je     71ba <_ZN2ML25profileModelWithThreadingERKNS_5ModelERKNS_4PathEi.cold+0x6e>
    72a3:	e8 a8 cf ff ff       	call   4250 <_ZdlPv@plt>
    72a8:	e9 0d ff ff ff       	jmp    71ba <_ZN2ML25profileModelWithThreadingERKNS_5ModelERKNS_4PathEi.cold+0x6e>
    72ad:	48 8b 7d 80          	mov    -0x80(%rbp),%rdi
    72b1:	48 8b 85 e8 fd ff ff 	mov    -0x218(%rbp),%rax
    72b8:	48 39 c7             	cmp    %rax,%rdi
    72bb:	0f 84 fb 01 00 00    	je     74bc <_ZN2ML25profileModelWithThreadingERKNS_5ModelERKNS_4PathEi.cold+0x370>
    72c1:	c5 f8 77             	vzeroupper
    72c4:	e8 87 cf ff ff       	call   4250 <_ZdlPv@plt>
    72c9:	48 8b bd 40 ff ff ff 	mov    -0xc0(%rbp),%rdi
    72d0:	48 8b 85 08 fe ff ff 	mov    -0x1f8(%rbp),%rax
    72d7:	48 39 c7             	cmp    %rax,%rdi
    72da:	74 05                	je     72e1 <_ZN2ML25profileModelWithThreadingERKNS_5ModelERKNS_4PathEi.cold+0x195>
    72dc:	e8 6f cf ff ff       	call   4250 <_ZdlPv@plt>
    72e1:	48 8b bd e0 fe ff ff 	mov    -0x120(%rbp),%rdi
    72e8:	48 8b 85 30 fe ff ff 	mov    -0x1d0(%rbp),%rax
    72ef:	48 39 c7             	cmp    %rax,%rdi
    72f2:	0f 84 ac fe ff ff    	je     71a4 <_ZN2ML25profileModelWithThreadingERKNS_5ModelERKNS_4PathEi.cold+0x58>
    72f8:	e8 53 cf ff ff       	call   4250 <_ZdlPv@plt>
    72fd:	e9 a2 fe ff ff       	jmp    71a4 <_ZN2ML25profileModelWithThreadingERKNS_5ModelERKNS_4PathEi.cold+0x58>
    7302:	c5 f8 77             	vzeroupper
    7305:	e8 46 cf ff ff       	call   4250 <_ZdlPv@plt>
    730a:	e9 30 ff ff ff       	jmp    723f <_ZN2ML25profileModelWithThreadingERKNS_5ModelERKNS_4PathEi.cold+0xf3>
    730f:	48 8b 7d 80          	mov    -0x80(%rbp),%rdi
    7313:	48 8d 45 90          	lea    -0x70(%rbp),%rax
    7317:	48 39 c7             	cmp    %rax,%rdi
    731a:	74 5f                	je     737b <_ZN2ML25profileModelWithThreadingERKNS_5ModelERKNS_4PathEi.cold+0x22f>
    731c:	c5 f8 77             	vzeroupper
    731f:	e8 2c cf ff ff       	call   4250 <_ZdlPv@plt>
    7324:	e9 a2 fe ff ff       	jmp    71cb <_ZN2ML25profileModelWithThreadingERKNS_5ModelERKNS_4PathEi.cold+0x7f>
    7329:	48 8b 7d 88          	mov    -0x78(%rbp),%rdi
    732d:	48 85 ff             	test   %rdi,%rdi
    7330:	74 51                	je     7383 <_ZN2ML25profileModelWithThreadingERKNS_5ModelERKNS_4PathEi.cold+0x237>
    7332:	c5 f8 77             	vzeroupper
    7335:	e8 16 cf ff ff       	call   4250 <_ZdlPv@plt>
    733a:	48 85 db             	test   %rbx,%rbx
    733d:	75 51                	jne    7390 <_ZN2ML25profileModelWithThreadingERKNS_5ModelERKNS_4PathEi.cold+0x244>
    733f:	4c 89 e3             	mov    %r12,%rbx
    7342:	48 8b bd 40 ff ff ff 	mov    -0xc0(%rbp),%rdi
    7349:	48 8b 85 08 fe ff ff 	mov    -0x1f8(%rbp),%rax
    7350:	48 39 c7             	cmp    %rax,%rdi
    7353:	74 05                	je     735a <_ZN2ML25profileModelWithThreadingERKNS_5ModelERKNS_4PathEi.cold+0x20e>
    7355:	e8 f6 ce ff ff       	call   4250 <_ZdlPv@plt>
    735a:	48 8b bd e0 fe ff ff 	mov    -0x120(%rbp),%rdi
    7361:	48 8b 85 30 fe ff ff 	mov    -0x1d0(%rbp),%rax
    7368:	48 39 c7             	cmp    %rax,%rdi
    736b:	0f 84 8d fe ff ff    	je     71fe <_ZN2ML25profileModelWithThreadingERKNS_5ModelERKNS_4PathEi.cold+0xb2>
    7371:	e8 da ce ff ff       	call   4250 <_ZdlPv@plt>
    7376:	e9 83 fe ff ff       	jmp    71fe <_ZN2ML25profileModelWithThreadingERKNS_5ModelERKNS_4PathEi.cold+0xb2>
    737b:	c5 f8 77             	vzeroupper
    737e:	e9 48 fe ff ff       	jmp    71cb <_ZN2ML25profileModelWithThreadingERKNS_5ModelERKNS_4PathEi.cold+0x7f>
    7383:	c5 f8 77             	vzeroupper
    7386:	eb b2                	jmp    733a <_ZN2ML25profileModelWithThreadingERKNS_5ModelERKNS_4PathEi.cold+0x1ee>
    7388:	c5 f8 77             	vzeroupper
    738b:	e9 e4 fe ff ff       	jmp    7274 <_ZN2ML25profileModelWithThreadingERKNS_5ModelERKNS_4PathEi.cold+0x128>
    7390:	48 89 df             	mov    %rbx,%rdi
    7393:	e8 b8 ce ff ff       	call   4250 <_ZdlPv@plt>
    7398:	eb a5                	jmp    733f <_ZN2ML25profileModelWithThreadingERKNS_5ModelERKNS_4PathEi.cold+0x1f3>
    739a:	48 8b 7d 80          	mov    -0x80(%rbp),%rdi
    739e:	48 8b 85 e8 fd ff ff 	mov    -0x218(%rbp),%rax
    73a5:	48 39 c7             	cmp    %rax,%rdi
    73a8:	0f 84 16 01 00 00    	je     74c4 <_ZN2ML25profileModelWithThreadingERKNS_5ModelERKNS_4PathEi.cold+0x378>
    73ae:	c5 f8 77             	vzeroupper
    73b1:	e8 9a ce ff ff       	call   4250 <_ZdlPv@plt>
    73b6:	48 8b bd a0 fe ff ff 	mov    -0x160(%rbp),%rdi
    73bd:	48 39 df             	cmp    %rbx,%rdi
    73c0:	74 05                	je     73c7 <_ZN2ML25profileModelWithThreadingERKNS_5ModelERKNS_4PathEi.cold+0x27b>
    73c2:	e8 89 ce ff ff       	call   4250 <_ZdlPv@plt>
    73c7:	4c 89 e3             	mov    %r12,%rbx
    73ca:	e9 94 fd ff ff       	jmp    7163 <_ZN2ML25profileModelWithThreadingERKNS_5ModelERKNS_4PathEi.cold+0x17>
    73cf:	48 8b bd 40 ff ff ff 	mov    -0xc0(%rbp),%rdi
    73d6:	48 8b 85 08 fe ff ff 	mov    -0x1f8(%rbp),%rax
    73dd:	48 39 c7             	cmp    %rax,%rdi
    73e0:	75 21                	jne    7403 <_ZN2ML25profileModelWithThreadingERKNS_5ModelERKNS_4PathEi.cold+0x2b7>
    73e2:	c5 f8 77             	vzeroupper
    73e5:	48 8b 7d 80          	mov    -0x80(%rbp),%rdi
    73e9:	48 8b 85 e8 fd ff ff 	mov    -0x218(%rbp),%rax
    73f0:	48 39 c7             	cmp    %rax,%rdi
    73f3:	0f 84 6a fd ff ff    	je     7163 <_ZN2ML25profileModelWithThreadingERKNS_5ModelERKNS_4PathEi.cold+0x17>
    73f9:	e8 52 ce ff ff       	call   4250 <_ZdlPv@plt>
    73fe:	e9 60 fd ff ff       	jmp    7163 <_ZN2ML25profileModelWithThreadingERKNS_5ModelERKNS_4PathEi.cold+0x17>
    7403:	c5 f8 77             	vzeroupper
    7406:	e8 45 ce ff ff       	call   4250 <_ZdlPv@plt>
    740b:	eb d8                	jmp    73e5 <_ZN2ML25profileModelWithThreadingERKNS_5ModelERKNS_4PathEi.cold+0x299>
    740d:	48 8b bd e0 fe ff ff 	mov    -0x120(%rbp),%rdi
    7414:	48 8b 85 30 fe ff ff 	mov    -0x1d0(%rbp),%rax
    741b:	48 39 c7             	cmp    %rax,%rdi
    741e:	75 24                	jne    7444 <_ZN2ML25profileModelWithThreadingERKNS_5ModelERKNS_4PathEi.cold+0x2f8>
    7420:	c5 f8 77             	vzeroupper
    7423:	48 8b bd c0 fe ff ff 	mov    -0x140(%rbp),%rdi
    742a:	48 8b 85 28 fe ff ff 	mov    -0x1d8(%rbp),%rax
    7431:	48 39 c7             	cmp    %rax,%rdi
    7434:	0f 84 b8 fd ff ff    	je     71f2 <_ZN2ML25profileModelWithThreadingERKNS_5ModelERKNS_4PathEi.cold+0xa6>
    743a:	e8 11 ce ff ff       	call   4250 <_ZdlPv@plt>
    743f:	e9 ae fd ff ff       	jmp    71f2 <_ZN2ML25profileModelWithThreadingERKNS_5ModelERKNS_4PathEi.cold+0xa6>
    7444:	c5 f8 77             	vzeroupper
    7447:	e8 04 ce ff ff       	call   4250 <_ZdlPv@plt>
    744c:	eb d5                	jmp    7423 <_ZN2ML25profileModelWithThreadingERKNS_5ModelERKNS_4PathEi.cold+0x2d7>
    744e:	48 8b bd 40 ff ff ff 	mov    -0xc0(%rbp),%rdi
    7455:	48 8b 85 08 fe ff ff 	mov    -0x1f8(%rbp),%rax
    745c:	48 39 c7             	cmp    %rax,%rdi
    745f:	75 41                	jne    74a2 <_ZN2ML25profileModelWithThreadingERKNS_5ModelERKNS_4PathEi.cold+0x356>
    7461:	c5 f8 77             	vzeroupper
    7464:	48 8b 7d 80          	mov    -0x80(%rbp),%rdi
    7468:	48 8b 85 e8 fd ff ff 	mov    -0x218(%rbp),%rax
    746f:	48 39 c7             	cmp    %rax,%rdi
    7472:	0f 84 3e ff ff ff    	je     73b6 <_ZN2ML25profileModelWithThreadingERKNS_5ModelERKNS_4PathEi.cold+0x26a>
    7478:	e8 d3 cd ff ff       	call   4250 <_ZdlPv@plt>
    747d:	e9 34 ff ff ff       	jmp    73b6 <_ZN2ML25profileModelWithThreadingERKNS_5ModelERKNS_4PathEi.cold+0x26a>
    7482:	48 8b bd 50 ff ff ff 	mov    -0xb0(%rbp),%rdi
    7489:	48 8b 85 10 fe ff ff 	mov    -0x1f0(%rbp),%rax
    7490:	48 39 c7             	cmp    %rax,%rdi
    7493:	74 17                	je     74ac <_ZN2ML25profileModelWithThreadingERKNS_5ModelERKNS_4PathEi.cold+0x360>
    7495:	c5 f8 77             	vzeroupper
    7498:	e8 b3 cd ff ff       	call   4250 <_ZdlPv@plt>
    749d:	e9 50 fd ff ff       	jmp    71f2 <_ZN2ML25profileModelWithThreadingERKNS_5ModelERKNS_4PathEi.cold+0xa6>
    74a2:	c5 f8 77             	vzeroupper
    74a5:	e8 a6 cd ff ff       	call   4250 <_ZdlPv@plt>
    74aa:	eb b8                	jmp    7464 <_ZN2ML25profileModelWithThreadingERKNS_5ModelERKNS_4PathEi.cold+0x318>
    74ac:	c5 f8 77             	vzeroupper
    74af:	e9 3e fd ff ff       	jmp    71f2 <_ZN2ML25profileModelWithThreadingERKNS_5ModelERKNS_4PathEi.cold+0xa6>
    74b4:	c5 f8 77             	vzeroupper
    74b7:	e9 36 fd ff ff       	jmp    71f2 <_ZN2ML25profileModelWithThreadingERKNS_5ModelERKNS_4PathEi.cold+0xa6>
    74bc:	c5 f8 77             	vzeroupper
    74bf:	e9 05 fe ff ff       	jmp    72c9 <_ZN2ML25profileModelWithThreadingERKNS_5ModelERKNS_4PathEi.cold+0x17d>
    74c4:	c5 f8 77             	vzeroupper
    74c7:	e9 ea fe ff ff       	jmp    73b6 <_ZN2ML25profileModelWithThreadingERKNS_5ModelERKNS_4PathEi.cold+0x26a>
    74cc:	48 8b 7d 80          	mov    -0x80(%rbp),%rdi
    74d0:	48 8b 85 e8 fd ff ff 	mov    -0x218(%rbp),%rax
    74d7:	48 39 c7             	cmp    %rax,%rdi
    74da:	74 0d                	je     74e9 <_ZN2ML25profileModelWithThreadingERKNS_5ModelERKNS_4PathEi.cold+0x39d>
    74dc:	c5 f8 77             	vzeroupper
    74df:	e8 6c cd ff ff       	call   4250 <_ZdlPv@plt>
    74e4:	e9 8b fc ff ff       	jmp    7174 <_ZN2ML25profileModelWithThreadingERKNS_5ModelERKNS_4PathEi.cold+0x28>
    74e9:	c5 f8 77             	vzeroupper
    74ec:	e9 83 fc ff ff       	jmp    7174 <_ZN2ML25profileModelWithThreadingERKNS_5ModelERKNS_4PathEi.cold+0x28>

00000000000074f1 <_ZN2ML20checkMaxPoolingLayerERKNS_4PathEiRKNS_11LayerParamsES5_.cold>:
    74f1:	48 8b bc 24 a0 01 00 	mov    0x1a0(%rsp),%rdi
    74f8:	00 
    74f9:	4c 39 f7             	cmp    %r14,%rdi
    74fc:	74 36                	je     7534 <_ZN2ML20checkMaxPoolingLayerERKNS_4PathEiRKNS_11LayerParamsES5_.cold+0x43>
    74fe:	c5 f8 77             	vzeroupper
    7501:	e8 4a cd ff ff       	call   4250 <_ZdlPv@plt>
    7506:	48 8b bc 24 50 01 00 	mov    0x150(%rsp),%rdi
    750d:	00 
    750e:	48 39 ef             	cmp    %rbp,%rdi
    7511:	74 05                	je     7518 <_ZN2ML20checkMaxPoolingLayerERKNS_4PathEiRKNS_11LayerParamsES5_.cold+0x27>
    7513:	e8 38 cd ff ff       	call   4250 <_ZdlPv@plt>
    7518:	48 8b 7c 24 20       	mov    0x20(%rsp),%rdi
    751d:	48 8d 44 24 30       	lea    0x30(%rsp),%rax
    7522:	48 39 c7             	cmp    %rax,%rdi
    7525:	74 05                	je     752c <_ZN2ML20checkMaxPoolingLayerERKNS_4PathEiRKNS_11LayerParamsES5_.cold+0x3b>
    7527:	e8 24 cd ff ff       	call   4250 <_ZdlPv@plt>
    752c:	48 89 df             	mov    %rbx,%rdi
    752f:	e8 1c cf ff ff       	call   4450 <_Unwind_Resume@plt>
    7534:	c5 f8 77             	vzeroupper
    7537:	eb cd                	jmp    7506 <_ZN2ML20checkMaxPoolingLayerERKNS_4PathEiRKNS_11LayerParamsES5_.cold+0x15>
    7539:	48 8b bc 24 a0 01 00 	mov    0x1a0(%rsp),%rdi
    7540:	00 
    7541:	48 8d 84 24 b0 01 00 	lea    0x1b0(%rsp),%rax
    7548:	00 
    7549:	48 39 c7             	cmp    %rax,%rdi
    754c:	75 25                	jne    7573 <_ZN2ML20checkMaxPoolingLayerERKNS_4PathEiRKNS_11LayerParamsES5_.cold+0x82>
    754e:	c5 f8 77             	vzeroupper
    7551:	48 8b bc 24 50 01 00 	mov    0x150(%rsp),%rdi
    7558:	00 
    7559:	48 8d 84 24 60 01 00 	lea    0x160(%rsp),%rax
    7560:	00 
    7561:	48 39 c7             	cmp    %rax,%rdi
    7564:	74 05                	je     756b <_ZN2ML20checkMaxPoolingLayerERKNS_4PathEiRKNS_11LayerParamsES5_.cold+0x7a>
    7566:	e8 e5 cc ff ff       	call   4250 <_ZdlPv@plt>
    756b:	48 89 df             	mov    %rbx,%rdi
    756e:	e8 dd ce ff ff       	call   4450 <_Unwind_Resume@plt>
    7573:	c5 f8 77             	vzeroupper
    7576:	e8 d5 cc ff ff       	call   4250 <_ZdlPv@plt>
    757b:	eb d4                	jmp    7551 <_ZN2ML20checkMaxPoolingLayerERKNS_4PathEiRKNS_11LayerParamsES5_.cold+0x60>
    757d:	48 8b bc 24 a0 00 00 	mov    0xa0(%rsp),%rdi
    7584:	00 
    7585:	48 39 ef             	cmp    %rbp,%rdi
    7588:	0f 84 56 01 00 00    	je     76e4 <_ZN2ML20checkMaxPoolingLayerERKNS_4PathEiRKNS_11LayerParamsES5_.cold+0x1f3>
    758e:	c5 f8 77             	vzeroupper
    7591:	e8 ba cc ff ff       	call   4250 <_ZdlPv@plt>
    7596:	48 89 df             	mov    %rbx,%rdi
    7599:	4c 89 e3             	mov    %r12,%rbx
    759c:	e8 ef 3c 02 00       	call   2b290 <_ZN2ML9LayerDataD1Ev>
    75a1:	e9 1c 01 00 00       	jmp    76c2 <_ZN2ML20checkMaxPoolingLayerERKNS_4PathEiRKNS_11LayerParamsES5_.cold+0x1d1>
    75a6:	48 8b bc 24 a0 00 00 	mov    0xa0(%rsp),%rdi
    75ad:	00 
    75ae:	48 39 ef             	cmp    %rbp,%rdi
    75b1:	74 0a                	je     75bd <_ZN2ML20checkMaxPoolingLayerERKNS_4PathEiRKNS_11LayerParamsES5_.cold+0xcc>
    75b3:	c5 f8 77             	vzeroupper
    75b6:	e8 95 cc ff ff       	call   4250 <_ZdlPv@plt>
    75bb:	eb d9                	jmp    7596 <_ZN2ML20checkMaxPoolingLayerERKNS_4PathEiRKNS_11LayerParamsES5_.cold+0xa5>
    75bd:	c5 f8 77             	vzeroupper
    75c0:	eb d4                	jmp    7596 <_ZN2ML20checkMaxPoolingLayerERKNS_4PathEiRKNS_11LayerParamsES5_.cold+0xa5>
    75c2:	48 8b bc 24 50 01 00 	mov    0x150(%rsp),%rdi
    75c9:	00 
    75ca:	48 39 ef             	cmp    %rbp,%rdi
    75cd:	0f 84 21 01 00 00    	je     76f4 <_ZN2ML20checkMaxPoolingLayerERKNS_4PathEiRKNS_11LayerParamsES5_.cold+0x203>
    75d3:	c5 f8 77             	vzeroupper
    75d6:	e8 75 cc ff ff       	call   4250 <_ZdlPv@plt>
    75db:	48 8b bc 24 a0 00 00 	mov    0xa0(%rsp),%rdi
    75e2:	00 
    75e3:	48 8d 84 24 b0 00 00 	lea    0xb0(%rsp),%rax
    75ea:	00 
    75eb:	48 39 c7             	cmp    %rax,%rdi
    75ee:	74 05                	je     75f5 <_ZN2ML20checkMaxPoolingLayerERKNS_4PathEiRKNS_11LayerParamsES5_.cold+0x104>
    75f0:	e8 5b cc ff ff       	call   4250 <_ZdlPv@plt>
    75f5:	48 8b bc 24 d0 00 00 	mov    0xd0(%rsp),%rdi
    75fc:	00 
    75fd:	4c 39 ff             	cmp    %r15,%rdi
    7600:	75 38                	jne    763a <_ZN2ML20checkMaxPoolingLayerERKNS_4PathEiRKNS_11LayerParamsES5_.cold+0x149>
    7602:	4c 89 f7             	mov    %r14,%rdi
    7605:	e8 86 3c 02 00       	call   2b290 <_ZN2ML9LayerDataD1Ev>
    760a:	48 8b 7c 24 40       	mov    0x40(%rsp),%rdi
    760f:	48 8d 44 24 50       	lea    0x50(%rsp),%rax
    7614:	48 39 c7             	cmp    %rax,%rdi
    7617:	74 05                	je     761e <_ZN2ML20checkMaxPoolingLayerERKNS_4PathEiRKNS_11LayerParamsES5_.cold+0x12d>
    7619:	e8 32 cc ff ff       	call   4250 <_ZdlPv@plt>
    761e:	48 8d 05 83 ff 02 00 	lea    0x2ff83(%rip),%rax        # 375a8 <_ZTVN2ML15MaxPoolingLayerE+0x10>
    7625:	4c 89 ef             	mov    %r13,%rdi
    7628:	48 89 84 24 a0 01 00 	mov    %rax,0x1a0(%rsp)
    762f:	00 
    7630:	e8 9b 3c 02 00       	call   2b2d0 <_ZN2ML5LayerD1Ev>
    7635:	e9 de fe ff ff       	jmp    7518 <_ZN2ML20checkMaxPoolingLayerERKNS_4PathEiRKNS_11LayerParamsES5_.cold+0x27>
    763a:	e8 11 cc ff ff       	call   4250 <_ZdlPv@plt>
    763f:	eb c1                	jmp    7602 <_ZN2ML20checkMaxPoolingLayerERKNS_4PathEiRKNS_11LayerParamsES5_.cold+0x111>
    7641:	48 8b bc 24 50 01 00 	mov    0x150(%rsp),%rdi
    7648:	00 
    7649:	48 39 ef             	cmp    %rbp,%rdi
    764c:	74 21                	je     766f <_ZN2ML20checkMaxPoolingLayerERKNS_4PathEiRKNS_11LayerParamsES5_.cold+0x17e>
    764e:	c5 f8 77             	vzeroupper
    7651:	e8 fa cb ff ff       	call   4250 <_ZdlPv@plt>
    7656:	eb aa                	jmp    7602 <_ZN2ML20checkMaxPoolingLayerERKNS_4PathEiRKNS_11LayerParamsES5_.cold+0x111>
    7658:	48 8b bc 24 50 01 00 	mov    0x150(%rsp),%rdi
    765f:	00 
    7660:	48 39 ef             	cmp    %rbp,%rdi
    7663:	74 0f                	je     7674 <_ZN2ML20checkMaxPoolingLayerERKNS_4PathEiRKNS_11LayerParamsES5_.cold+0x183>
    7665:	c5 f8 77             	vzeroupper
    7668:	e8 e3 cb ff ff       	call   4250 <_ZdlPv@plt>
    766d:	eb 93                	jmp    7602 <_ZN2ML20checkMaxPoolingLayerERKNS_4PathEiRKNS_11LayerParamsES5_.cold+0x111>
    766f:	c5 f8 77             	vzeroupper
    7672:	eb 8e                	jmp    7602 <_ZN2ML20checkMaxPoolingLayerERKNS_4PathEiRKNS_11LayerParamsES5_.cold+0x111>
    7674:	c5 f8 77             	vzeroupper
    7677:	eb 89                	jmp    7602 <_ZN2ML20checkMaxPoolingLayerERKNS_4PathEiRKNS_11LayerParamsES5_.cold+0x111>
    7679:	48 8b bc 24 50 01 00 	mov    0x150(%rsp),%rdi
    7680:	00 
    7681:	48 39 ef             	cmp    %rbp,%rdi
    7684:	74 66                	je     76ec <_ZN2ML20checkMaxPoolingLayerERKNS_4PathEiRKNS_11LayerParamsES5_.cold+0x1fb>
    7686:	c5 f8 77             	vzeroupper
    7689:	e8 c2 cb ff ff       	call   4250 <_ZdlPv@plt>
    768e:	e9 77 ff ff ff       	jmp    760a <_ZN2ML20checkMaxPoolingLayerERKNS_4PathEiRKNS_11LayerParamsES5_.cold+0x119>
    7693:	48 8b bc 24 a0 00 00 	mov    0xa0(%rsp),%rdi
    769a:	00 
    769b:	48 39 ef             	cmp    %rbp,%rdi
    769e:	74 3f                	je     76df <_ZN2ML20checkMaxPoolingLayerERKNS_4PathEiRKNS_11LayerParamsES5_.cold+0x1ee>
    76a0:	c5 f8 77             	vzeroupper
    76a3:	e8 a8 cb ff ff       	call   4250 <_ZdlPv@plt>
    76a8:	48 8b bc 24 80 00 00 	mov    0x80(%rsp),%rdi
    76af:	00 
    76b0:	48 8d 84 24 90 00 00 	lea    0x90(%rsp),%rax
    76b7:	00 
    76b8:	48 39 c7             	cmp    %rax,%rdi
    76bb:	74 05                	je     76c2 <_ZN2ML20checkMaxPoolingLayerERKNS_4PathEiRKNS_11LayerParamsES5_.cold+0x1d1>
    76bd:	e8 8e cb ff ff       	call   4250 <_ZdlPv@plt>
    76c2:	48 8b 7c 24 60       	mov    0x60(%rsp),%rdi
    76c7:	48 8d 44 24 70       	lea    0x70(%rsp),%rax
    76cc:	48 39 c7             	cmp    %rax,%rdi
    76cf:	0f 84 20 ff ff ff    	je     75f5 <_ZN2ML20checkMaxPoolingLayerERKNS_4PathEiRKNS_11LayerParamsES5_.cold+0x104>
    76d5:	e8 76 cb ff ff       	call   4250 <_ZdlPv@plt>
    76da:	e9 16 ff ff ff       	jmp    75f5 <_ZN2ML20checkMaxPoolingLayerERKNS_4PathEiRKNS_11LayerParamsES5_.cold+0x104>
    76df:	c5 f8 77             	vzeroupper
    76e2:	eb c4                	jmp    76a8 <_ZN2ML20checkMaxPoolingLayerERKNS_4PathEiRKNS_11LayerParamsES5_.cold+0x1b7>
    76e4:	c5 f8 77             	vzeroupper
    76e7:	e9 aa fe ff ff       	jmp    7596 <_ZN2ML20checkMaxPoolingLayerERKNS_4PathEiRKNS_11LayerParamsES5_.cold+0xa5>
    76ec:	c5 f8 77             	vzeroupper
    76ef:	e9 16 ff ff ff       	jmp    760a <_ZN2ML20checkMaxPoolingLayerERKNS_4PathEiRKNS_11LayerParamsES5_.cold+0x119>
    76f4:	c5 f8 77             	vzeroupper
    76f7:	e9 df fe ff ff       	jmp    75db <_ZN2ML20checkMaxPoolingLayerERKNS_4PathEiRKNS_11LayerParamsES5_.cold+0xea>

00000000000076fc <_ZN2ML17checkFlattenLayerERKNS_4PathEiRKNS_11LayerParamsES5_.cold>:
    76fc:	48 8b bc 24 a0 01 00 	mov    0x1a0(%rsp),%rdi
    7703:	00 
    7704:	4c 39 f7             	cmp    %r14,%rdi
    7707:	74 36                	je     773f <_ZN2ML17checkFlattenLayerERKNS_4PathEiRKNS_11LayerParamsES5_.cold+0x43>
    7709:	c5 f8 77             	vzeroupper
    770c:	e8 3f cb ff ff       	call   4250 <_ZdlPv@plt>
    7711:	48 8b bc 24 50 01 00 	mov    0x150(%rsp),%rdi
    7718:	00 
    7719:	48 39 ef             	cmp    %rbp,%rdi
    771c:	74 05                	je     7723 <_ZN2ML17checkFlattenLayerERKNS_4PathEiRKNS_11LayerParamsES5_.cold+0x27>
    771e:	e8 2d cb ff ff       	call   4250 <_ZdlPv@plt>
    7723:	48 8b 7c 24 20       	mov    0x20(%rsp),%rdi
    7728:	48 8d 44 24 30       	lea    0x30(%rsp),%rax
    772d:	48 39 c7             	cmp    %rax,%rdi
    7730:	74 05                	je     7737 <_ZN2ML17checkFlattenLayerERKNS_4PathEiRKNS_11LayerParamsES5_.cold+0x3b>
    7732:	e8 19 cb ff ff       	call   4250 <_ZdlPv@plt>
    7737:	48 89 df             	mov    %rbx,%rdi
    773a:	e8 11 cd ff ff       	call   4450 <_Unwind_Resume@plt>
    773f:	c5 f8 77             	vzeroupper
    7742:	eb cd                	jmp    7711 <_ZN2ML17checkFlattenLayerERKNS_4PathEiRKNS_11LayerParamsES5_.cold+0x15>
    7744:	48 8b bc 24 a0 01 00 	mov    0x1a0(%rsp),%rdi
    774b:	00 
    774c:	48 8d 84 24 b0 01 00 	lea    0x1b0(%rsp),%rax
    7753:	00 
    7754:	48 39 c7             	cmp    %rax,%rdi
    7757:	75 25                	jne    777e <_ZN2ML17checkFlattenLayerERKNS_4PathEiRKNS_11LayerParamsES5_.cold+0x82>
    7759:	c5 f8 77             	vzeroupper
    775c:	48 8b bc 24 50 01 00 	mov    0x150(%rsp),%rdi
    7763:	00 
    7764:	48 8d 84 24 60 01 00 	lea    0x160(%rsp),%rax
    776b:	00 
    776c:	48 39 c7             	cmp    %rax,%rdi
    776f:	74 05                	je     7776 <_ZN2ML17checkFlattenLayerERKNS_4PathEiRKNS_11LayerParamsES5_.cold+0x7a>
    7771:	e8 da ca ff ff       	call   4250 <_ZdlPv@plt>
    7776:	48 89 df             	mov    %rbx,%rdi
    7779:	e8 d2 cc ff ff       	call   4450 <_Unwind_Resume@plt>
    777e:	c5 f8 77             	vzeroupper
    7781:	e8 ca ca ff ff       	call   4250 <_ZdlPv@plt>
    7786:	eb d4                	jmp    775c <_ZN2ML17checkFlattenLayerERKNS_4PathEiRKNS_11LayerParamsES5_.cold+0x60>
    7788:	48 8b bc 24 a0 00 00 	mov    0xa0(%rsp),%rdi
    778f:	00 
    7790:	48 39 ef             	cmp    %rbp,%rdi
    7793:	0f 84 56 01 00 00    	je     78ef <_ZN2ML17checkFlattenLayerERKNS_4PathEiRKNS_11LayerParamsES5_.cold+0x1f3>
    7799:	c5 f8 77             	vzeroupper
    779c:	e8 af ca ff ff       	call   4250 <_ZdlPv@plt>
    77a1:	48 89 df             	mov    %rbx,%rdi
    77a4:	4c 89 e3             	mov    %r12,%rbx
    77a7:	e8 e4 3a 02 00       	call   2b290 <_ZN2ML9LayerDataD1Ev>
    77ac:	e9 1c 01 00 00       	jmp    78cd <_ZN2ML17checkFlattenLayerERKNS_4PathEiRKNS_11LayerParamsES5_.cold+0x1d1>
    77b1:	48 8b bc 24 a0 00 00 	mov    0xa0(%rsp),%rdi
    77b8:	00 
    77b9:	48 39 ef             	cmp    %rbp,%rdi
    77bc:	74 0a                	je     77c8 <_ZN2ML17checkFlattenLayerERKNS_4PathEiRKNS_11LayerParamsES5_.cold+0xcc>
    77be:	c5 f8 77             	vzeroupper
    77c1:	e8 8a ca ff ff       	call   4250 <_ZdlPv@plt>
    77c6:	eb d9                	jmp    77a1 <_ZN2ML17checkFlattenLayerERKNS_4PathEiRKNS_11LayerParamsES5_.cold+0xa5>
    77c8:	c5 f8 77             	vzeroupper
    77cb:	eb d4                	jmp    77a1 <_ZN2ML17checkFlattenLayerERKNS_4PathEiRKNS_11LayerParamsES5_.cold+0xa5>
    77cd:	48 8b bc 24 50 01 00 	mov    0x150(%rsp),%rdi
    77d4:	00 
    77d5:	48 39 ef             	cmp    %rbp,%rdi
    77d8:	0f 84 21 01 00 00    	je     78ff <_ZN2ML17checkFlattenLayerERKNS_4PathEiRKNS_11LayerParamsES5_.cold+0x203>
    77de:	c5 f8 77             	vzeroupper
    77e1:	e8 6a ca ff ff       	call   4250 <_ZdlPv@plt>
    77e6:	48 8b bc 24 a0 00 00 	mov    0xa0(%rsp),%rdi
    77ed:	00 
    77ee:	48 8d 84 24 b0 00 00 	lea    0xb0(%rsp),%rax
    77f5:	00 
    77f6:	48 39 c7             	cmp    %rax,%rdi
    77f9:	74 05                	je     7800 <_ZN2ML17checkFlattenLayerERKNS_4PathEiRKNS_11LayerParamsES5_.cold+0x104>
    77fb:	e8 50 ca ff ff       	call   4250 <_ZdlPv@plt>
    7800:	48 8b bc 24 d0 00 00 	mov    0xd0(%rsp),%rdi
    7807:	00 
    7808:	4c 39 ff             	cmp    %r15,%rdi
    780b:	75 38                	jne    7845 <_ZN2ML17checkFlattenLayerERKNS_4PathEiRKNS_11LayerParamsES5_.cold+0x149>
    780d:	4c 89 f7             	mov    %r14,%rdi
    7810:	e8 7b 3a 02 00       	call   2b290 <_ZN2ML9LayerDataD1Ev>
    7815:	48 8b 7c 24 40       	mov    0x40(%rsp),%rdi
    781a:	48 8d 44 24 50       	lea    0x50(%rsp),%rax
    781f:	48 39 c7             	cmp    %rax,%rdi
    7822:	74 05                	je     7829 <_ZN2ML17checkFlattenLayerERKNS_4PathEiRKNS_11LayerParamsES5_.cold+0x12d>
    7824:	e8 27 ca ff ff       	call   4250 <_ZdlPv@plt>
    7829:	48 8d 05 18 fd 02 00 	lea    0x2fd18(%rip),%rax        # 37548 <_ZTVN2ML12FlattenLayerE+0x10>
    7830:	4c 89 ef             	mov    %r13,%rdi
    7833:	48 89 84 24 a0 01 00 	mov    %rax,0x1a0(%rsp)
    783a:	00 
    783b:	e8 90 3a 02 00       	call   2b2d0 <_ZN2ML5LayerD1Ev>
    7840:	e9 de fe ff ff       	jmp    7723 <_ZN2ML17checkFlattenLayerERKNS_4PathEiRKNS_11LayerParamsES5_.cold+0x27>
    7845:	e8 06 ca ff ff       	call   4250 <_ZdlPv@plt>
    784a:	eb c1                	jmp    780d <_ZN2ML17checkFlattenLayerERKNS_4PathEiRKNS_11LayerParamsES5_.cold+0x111>
    784c:	48 8b bc 24 50 01 00 	mov    0x150(%rsp),%rdi
    7853:	00 
    7854:	48 39 ef             	cmp    %rbp,%rdi
    7857:	74 21                	je     787a <_ZN2ML17checkFlattenLayerERKNS_4PathEiRKNS_11LayerParamsES5_.cold+0x17e>
    7859:	c5 f8 77             	vzeroupper
    785c:	e8 ef c9 ff ff       	call   4250 <_ZdlPv@plt>
    7861:	eb aa                	jmp    780d <_ZN2ML17checkFlattenLayerERKNS_4PathEiRKNS_11LayerParamsES5_.cold+0x111>
    7863:	48 8b bc 24 50 01 00 	mov    0x150(%rsp),%rdi
    786a:	00 
    786b:	48 39 ef             	cmp    %rbp,%rdi
    786e:	74 0f                	je     787f <_ZN2ML17checkFlattenLayerERKNS_4PathEiRKNS_11LayerParamsES5_.cold+0x183>
    7870:	c5 f8 77             	vzeroupper
    7873:	e8 d8 c9 ff ff       	call   4250 <_ZdlPv@plt>
    7878:	eb 93                	jmp    780d <_ZN2ML17checkFlattenLayerERKNS_4PathEiRKNS_11LayerParamsES5_.cold+0x111>
    787a:	c5 f8 77             	vzeroupper
    787d:	eb 8e                	jmp    780d <_ZN2ML17checkFlattenLayerERKNS_4PathEiRKNS_11LayerParamsES5_.cold+0x111>
    787f:	c5 f8 77             	vzeroupper
    7882:	eb 89                	jmp    780d <_ZN2ML17checkFlattenLayerERKNS_4PathEiRKNS_11LayerParamsES5_.cold+0x111>
    7884:	48 8b bc 24 50 01 00 	mov    0x150(%rsp),%rdi
    788b:	00 
    788c:	48 39 ef             	cmp    %rbp,%rdi
    788f:	74 66                	je     78f7 <_ZN2ML17checkFlattenLayerERKNS_4PathEiRKNS_11LayerParamsES5_.cold+0x1fb>
    7891:	c5 f8 77             	vzeroupper
    7894:	e8 b7 c9 ff ff       	call   4250 <_ZdlPv@plt>
    7899:	e9 77 ff ff ff       	jmp    7815 <_ZN2ML17checkFlattenLayerERKNS_4PathEiRKNS_11LayerParamsES5_.cold+0x119>
    789e:	48 8b bc 24 a0 00 00 	mov    0xa0(%rsp),%rdi
    78a5:	00 
    78a6:	48 39 ef             	cmp    %rbp,%rdi
    78a9:	74 3f                	je     78ea <_ZN2ML17checkFlattenLayerERKNS_4PathEiRKNS_11LayerParamsES5_.cold+0x1ee>
    78ab:	c5 f8 77             	vzeroupper
    78ae:	e8 9d c9 ff ff       	call   4250 <_ZdlPv@plt>
    78b3:	48 8b bc 24 80 00 00 	mov    0x80(%rsp),%rdi
    78ba:	00 
    78bb:	48 8d 84 24 90 00 00 	lea    0x90(%rsp),%rax
    78c2:	00 
    78c3:	48 39 c7             	cmp    %rax,%rdi
    78c6:	74 05                	je     78cd <_ZN2ML17checkFlattenLayerERKNS_4PathEiRKNS_11LayerParamsES5_.cold+0x1d1>
    78c8:	e8 83 c9 ff ff       	call   4250 <_ZdlPv@plt>
    78cd:	48 8b 7c 24 60       	mov    0x60(%rsp),%rdi
    78d2:	48 8d 44 24 70       	lea    0x70(%rsp),%rax
    78d7:	48 39 c7             	cmp    %rax,%rdi
    78da:	0f 84 20 ff ff ff    	je     7800 <_ZN2ML17checkFlattenLayerERKNS_4PathEiRKNS_11LayerParamsES5_.cold+0x104>
    78e0:	e8 6b c9 ff ff       	call   4250 <_ZdlPv@plt>
    78e5:	e9 16 ff ff ff       	jmp    7800 <_ZN2ML17checkFlattenLayerERKNS_4PathEiRKNS_11LayerParamsES5_.cold+0x104>
    78ea:	c5 f8 77             	vzeroupper
    78ed:	eb c4                	jmp    78b3 <_ZN2ML17checkFlattenLayerERKNS_4PathEiRKNS_11LayerParamsES5_.cold+0x1b7>
    78ef:	c5 f8 77             	vzeroupper
    78f2:	e9 aa fe ff ff       	jmp    77a1 <_ZN2ML17checkFlattenLayerERKNS_4PathEiRKNS_11LayerParamsES5_.cold+0xa5>
    78f7:	c5 f8 77             	vzeroupper
    78fa:	e9 16 ff ff ff       	jmp    7815 <_ZN2ML17checkFlattenLayerERKNS_4PathEiRKNS_11LayerParamsES5_.cold+0x119>
    78ff:	c5 f8 77             	vzeroupper
    7902:	e9 df fe ff ff       	jmp    77e6 <_ZN2ML17checkFlattenLayerERKNS_4PathEiRKNS_11LayerParamsES5_.cold+0xea>

0000000000007907 <_ZN2ML8runTestsEv.cold>:
    7907:	48 8b 7d 80          	mov    -0x80(%rbp),%rdi
    790b:	48 8b 85 08 fd ff ff 	mov    -0x2f8(%rbp),%rax
    7912:	48 39 c7             	cmp    %rax,%rdi
    7915:	0f 84 cb 03 00 00    	je     7ce6 <_ZN2ML8runTestsEv.cold+0x3df>
    791b:	c5 f8 77             	vzeroupper
    791e:	e8 2d c9 ff ff       	call   4250 <_ZdlPv@plt>
    7923:	48 8b bd 30 fe ff ff 	mov    -0x1d0(%rbp),%rdi
    792a:	4c 39 e7             	cmp    %r12,%rdi
    792d:	74 05                	je     7934 <_ZN2ML8runTestsEv.cold+0x2d>
    792f:	e8 1c c9 ff ff       	call   4250 <_ZdlPv@plt>
    7934:	48 8b bd 50 fe ff ff 	mov    -0x1b0(%rbp),%rdi
    793b:	48 8b 85 20 fd ff ff 	mov    -0x2e0(%rbp),%rax
    7942:	48 39 c7             	cmp    %rax,%rdi
    7945:	74 05                	je     794c <_ZN2ML8runTestsEv.cold+0x45>
    7947:	e8 04 c9 ff ff       	call   4250 <_ZdlPv@plt>
    794c:	48 83 bd 18 fd ff ff 	cmpq   $0x0,-0x2e8(%rbp)
    7953:	00 
    7954:	74 0c                	je     7962 <_ZN2ML8runTestsEv.cold+0x5b>
    7956:	48 8b bd 18 fd ff ff 	mov    -0x2e8(%rbp),%rdi
    795d:	e8 ee c8 ff ff       	call   4250 <_ZdlPv@plt>
    7962:	48 8b bd 90 fd ff ff 	mov    -0x270(%rbp),%rdi
    7969:	48 85 ff             	test   %rdi,%rdi
    796c:	75 68                	jne    79d6 <_ZN2ML8runTestsEv.cold+0xcf>
    796e:	48 8b bd 10 fd ff ff 	mov    -0x2f0(%rbp),%rdi
    7975:	e8 86 41 02 00       	call   2bb00 <_ZNSt6vectorISt10unique_ptrIN2ML5LayerESt14default_deleteIS2_EESaIS5_EED1Ev>
    797a:	48 8b bd c8 fc ff ff 	mov    -0x338(%rbp),%rdi
    7981:	e8 0a 39 02 00       	call   2b290 <_ZN2ML9LayerDataD1Ev>
    7986:	48 8b bd f0 fd ff ff 	mov    -0x210(%rbp),%rdi
    798d:	48 8b 85 a8 fc ff ff 	mov    -0x358(%rbp),%rax
    7994:	48 39 c7             	cmp    %rax,%rdi
    7997:	74 05                	je     799e <_ZN2ML8runTestsEv.cold+0x97>
    7999:	e8 b2 c8 ff ff       	call   4250 <_ZdlPv@plt>
    799e:	48 8b bd d0 fd ff ff 	mov    -0x230(%rbp),%rdi
    79a5:	48 8d 85 e0 fd ff ff 	lea    -0x220(%rbp),%rax
    79ac:	48 39 c7             	cmp    %rax,%rdi
    79af:	74 05                	je     79b6 <_ZN2ML8runTestsEv.cold+0xaf>
    79b1:	e8 9a c8 ff ff       	call   4250 <_ZdlPv@plt>
    79b6:	48 8b bd b0 fd ff ff 	mov    -0x250(%rbp),%rdi
    79bd:	48 8b 85 b0 fc ff ff 	mov    -0x350(%rbp),%rax
    79c4:	48 39 c7             	cmp    %rax,%rdi
    79c7:	74 05                	je     79ce <_ZN2ML8runTestsEv.cold+0xc7>
    79c9:	e8 82 c8 ff ff       	call   4250 <_ZdlPv@plt>
    79ce:	48 89 df             	mov    %rbx,%rdi
    79d1:	e8 7a ca ff ff       	call   4450 <_Unwind_Resume@plt>
    79d6:	e8 75 c8 ff ff       	call   4250 <_ZdlPv@plt>
    79db:	eb 91                	jmp    796e <_ZN2ML8runTestsEv.cold+0x67>
    79dd:	48 8b 7d 80          	mov    -0x80(%rbp),%rdi
    79e1:	48 8b 85 08 fd ff ff 	mov    -0x2f8(%rbp),%rax
    79e8:	48 39 c7             	cmp    %rax,%rdi
    79eb:	0f 84 ff 00 00 00    	je     7af0 <_ZN2ML8runTestsEv.cold+0x1e9>
    79f1:	c5 f8 77             	vzeroupper
    79f4:	e8 57 c8 ff ff       	call   4250 <_ZdlPv@plt>
    79f9:	e9 7c ff ff ff       	jmp    797a <_ZN2ML8runTestsEv.cold+0x73>
    79fe:	48 8b 7d 80          	mov    -0x80(%rbp),%rdi
    7a02:	48 8b 85 08 fd ff ff 	mov    -0x2f8(%rbp),%rax
    7a09:	48 39 c7             	cmp    %rax,%rdi
    7a0c:	75 58                	jne    7a66 <_ZN2ML8runTestsEv.cold+0x15f>
    7a0e:	c5 f8 77             	vzeroupper
    7a11:	48 8b bd d0 fe ff ff 	mov    -0x130(%rbp),%rdi
    7a18:	48 8b 85 68 fd ff ff 	mov    -0x298(%rbp),%rax
    7a1f:	48 39 c7             	cmp    %rax,%rdi
    7a22:	0f 84 fb fe ff ff    	je     7923 <_ZN2ML8runTestsEv.cold+0x1c>
    7a28:	e8 23 c8 ff ff       	call   4250 <_ZdlPv@plt>
    7a2d:	e9 f1 fe ff ff       	jmp    7923 <_ZN2ML8runTestsEv.cold+0x1c>
    7a32:	48 8b bd f0 fe ff ff 	mov    -0x110(%rbp),%rdi
    7a39:	48 8b 85 40 fd ff ff 	mov    -0x2c0(%rbp),%rax
    7a40:	48 39 c7             	cmp    %rax,%rdi
    7a43:	0f 84 95 02 00 00    	je     7cde <_ZN2ML8runTestsEv.cold+0x3d7>
    7a49:	c5 f8 77             	vzeroupper
    7a4c:	e8 ff c7 ff ff       	call   4250 <_ZdlPv@plt>
    7a51:	48 8b 7d 80          	mov    -0x80(%rbp),%rdi
    7a55:	48 8b 85 08 fd ff ff 	mov    -0x2f8(%rbp),%rax
    7a5c:	48 39 c7             	cmp    %rax,%rdi
    7a5f:	75 c7                	jne    7a28 <_ZN2ML8runTestsEv.cold+0x121>
    7a61:	e9 bd fe ff ff       	jmp    7923 <_ZN2ML8runTestsEv.cold+0x1c>
    7a66:	c5 f8 77             	vzeroupper
    7a69:	e8 e2 c7 ff ff       	call   4250 <_ZdlPv@plt>
    7a6e:	eb a1                	jmp    7a11 <_ZN2ML8runTestsEv.cold+0x10a>
    7a70:	48 8b bd 70 fe ff ff 	mov    -0x190(%rbp),%rdi
    7a77:	48 8b 85 60 fd ff ff 	mov    -0x2a0(%rbp),%rax
    7a7e:	48 39 c7             	cmp    %rax,%rdi
    7a81:	74 68                	je     7aeb <_ZN2ML8runTestsEv.cold+0x1e4>
    7a83:	c5 f8 77             	vzeroupper
    7a86:	e8 c5 c7 ff ff       	call   4250 <_ZdlPv@plt>
    7a8b:	48 8b bd d0 fe ff ff 	mov    -0x130(%rbp),%rdi
    7a92:	48 8b 85 68 fd ff ff 	mov    -0x298(%rbp),%rax
    7a99:	48 39 c7             	cmp    %rax,%rdi
    7a9c:	74 16                	je     7ab4 <_ZN2ML8runTestsEv.cold+0x1ad>
    7a9e:	e8 ad c7 ff ff       	call   4250 <_ZdlPv@plt>
    7aa3:	eb 0f                	jmp    7ab4 <_ZN2ML8runTestsEv.cold+0x1ad>
    7aa5:	48 8b bd 00 ff ff ff 	mov    -0x100(%rbp),%rdi
    7aac:	4c 39 ef             	cmp    %r13,%rdi
    7aaf:	75 30                	jne    7ae1 <_ZN2ML8runTestsEv.cold+0x1da>
    7ab1:	c5 f8 77             	vzeroupper
    7ab4:	48 8b bd 28 fd ff ff 	mov    -0x2d8(%rbp),%rdi
    7abb:	e8 d0 37 02 00       	call   2b290 <_ZN2ML9LayerDataD1Ev>
    7ac0:	48 8b bd 10 fe ff ff 	mov    -0x1f0(%rbp),%rdi
    7ac7:	48 8b 85 e0 fc ff ff 	mov    -0x320(%rbp),%rax
    7ace:	48 39 c7             	cmp    %rax,%rdi
    7ad1:	0f 84 75 fe ff ff    	je     794c <_ZN2ML8runTestsEv.cold+0x45>
    7ad7:	e8 74 c7 ff ff       	call   4250 <_ZdlPv@plt>
    7adc:	e9 6b fe ff ff       	jmp    794c <_ZN2ML8runTestsEv.cold+0x45>
    7ae1:	c5 f8 77             	vzeroupper
    7ae4:	e8 67 c7 ff ff       	call   4250 <_ZdlPv@plt>
    7ae9:	eb c9                	jmp    7ab4 <_ZN2ML8runTestsEv.cold+0x1ad>
    7aeb:	c5 f8 77             	vzeroupper
    7aee:	eb 9b                	jmp    7a8b <_ZN2ML8runTestsEv.cold+0x184>
    7af0:	c5 f8 77             	vzeroupper
    7af3:	e9 82 fe ff ff       	jmp    797a <_ZN2ML8runTestsEv.cold+0x73>
    7af8:	48 8b bd 28 fd ff ff 	mov    -0x2d8(%rbp),%rdi
    7aff:	c5 f8 77             	vzeroupper
    7b02:	e8 29 7b 00 00       	call   f630 <_ZN2ML11LayerParamsD1Ev>
    7b07:	48 8b bd d0 fe ff ff 	mov    -0x130(%rbp),%rdi
    7b0e:	48 85 ff             	test   %rdi,%rdi
    7b11:	74 05                	je     7b18 <_ZN2ML8runTestsEv.cold+0x211>
    7b13:	e8 38 c7 ff ff       	call   4250 <_ZdlPv@plt>
    7b18:	48 8b bd f0 fe ff ff 	mov    -0x110(%rbp),%rdi
    7b1f:	48 8b 85 40 fd ff ff 	mov    -0x2c0(%rbp),%rax
    7b26:	48 39 c7             	cmp    %rax,%rdi
    7b29:	0f 84 57 fe ff ff    	je     7986 <_ZN2ML8runTestsEv.cold+0x7f>
    7b2f:	e8 1c c7 ff ff       	call   4250 <_ZdlPv@plt>
    7b34:	e9 4d fe ff ff       	jmp    7986 <_ZN2ML8runTestsEv.cold+0x7f>
    7b39:	48 8b bd d0 fe ff ff 	mov    -0x130(%rbp),%rdi
    7b40:	48 8b 85 68 fd ff ff 	mov    -0x298(%rbp),%rax
    7b47:	48 39 c7             	cmp    %rax,%rdi
    7b4a:	74 3e                	je     7b8a <_ZN2ML8runTestsEv.cold+0x283>
    7b4c:	c5 f8 77             	vzeroupper
    7b4f:	e8 fc c6 ff ff       	call   4250 <_ZdlPv@plt>
    7b54:	48 8b bd f0 fe ff ff 	mov    -0x110(%rbp),%rdi
    7b5b:	48 8b 85 40 fd ff ff 	mov    -0x2c0(%rbp),%rax
    7b62:	48 39 c7             	cmp    %rax,%rdi
    7b65:	74 05                	je     7b6c <_ZN2ML8runTestsEv.cold+0x265>
    7b67:	e8 e4 c6 ff ff       	call   4250 <_ZdlPv@plt>
    7b6c:	48 8b 7d 80          	mov    -0x80(%rbp),%rdi
    7b70:	48 8b 85 08 fd ff ff 	mov    -0x2f8(%rbp),%rax
    7b77:	48 39 c7             	cmp    %rax,%rdi
    7b7a:	0f 84 e2 fd ff ff    	je     7962 <_ZN2ML8runTestsEv.cold+0x5b>
    7b80:	e8 cb c6 ff ff       	call   4250 <_ZdlPv@plt>
    7b85:	e9 d8 fd ff ff       	jmp    7962 <_ZN2ML8runTestsEv.cold+0x5b>
    7b8a:	c5 f8 77             	vzeroupper
    7b8d:	eb c5                	jmp    7b54 <_ZN2ML8runTestsEv.cold+0x24d>
    7b8f:	48 8b 7d 80          	mov    -0x80(%rbp),%rdi
    7b93:	48 8b 85 08 fd ff ff 	mov    -0x2f8(%rbp),%rax
    7b9a:	48 39 c7             	cmp    %rax,%rdi
    7b9d:	0f 85 07 01 00 00    	jne    7caa <_ZN2ML8runTestsEv.cold+0x3a3>
    7ba3:	c5 f8 77             	vzeroupper
    7ba6:	48 8b bd 70 fe ff ff 	mov    -0x190(%rbp),%rdi
    7bad:	48 8b 85 60 fd ff ff 	mov    -0x2a0(%rbp),%rax
    7bb4:	48 39 c7             	cmp    %rax,%rdi
    7bb7:	0f 84 54 fe ff ff    	je     7a11 <_ZN2ML8runTestsEv.cold+0x10a>
    7bbd:	e8 8e c6 ff ff       	call   4250 <_ZdlPv@plt>
    7bc2:	e9 4a fe ff ff       	jmp    7a11 <_ZN2ML8runTestsEv.cold+0x10a>
    7bc7:	48 8b bd f0 fe ff ff 	mov    -0x110(%rbp),%rdi
    7bce:	48 8b 85 40 fd ff ff 	mov    -0x2c0(%rbp),%rax
    7bd5:	48 39 c7             	cmp    %rax,%rdi
    7bd8:	0f 84 5e 01 00 00    	je     7d3c <_ZN2ML8runTestsEv.cold+0x435>
    7bde:	c5 f8 77             	vzeroupper
    7be1:	e8 6a c6 ff ff       	call   4250 <_ZdlPv@plt>
    7be6:	48 8b 7d 80          	mov    -0x80(%rbp),%rdi
    7bea:	48 8b 85 08 fd ff ff 	mov    -0x2f8(%rbp),%rax
    7bf1:	48 39 c7             	cmp    %rax,%rdi
    7bf4:	0f 84 17 fe ff ff    	je     7a11 <_ZN2ML8runTestsEv.cold+0x10a>
    7bfa:	e8 51 c6 ff ff       	call   4250 <_ZdlPv@plt>
    7bff:	e9 0d fe ff ff       	jmp    7a11 <_ZN2ML8runTestsEv.cold+0x10a>
    7c04:	48 8b 7d 88          	mov    -0x78(%rbp),%rdi
    7c08:	48 85 ff             	test   %rdi,%rdi
    7c0b:	0f 84 60 01 00 00    	je     7d71 <_ZN2ML8runTestsEv.cold+0x46a>
    7c11:	c5 f8 77             	vzeroupper
    7c14:	e8 37 c6 ff ff       	call   4250 <_ZdlPv@plt>
    7c19:	48 85 db             	test   %rbx,%rbx
    7c1c:	0f 85 d4 00 00 00    	jne    7cf6 <_ZN2ML8runTestsEv.cold+0x3ef>
    7c22:	4c 89 e3             	mov    %r12,%rbx
    7c25:	48 8b bd f0 fe ff ff 	mov    -0x110(%rbp),%rdi
    7c2c:	48 8b 85 40 fd ff ff 	mov    -0x2c0(%rbp),%rax
    7c33:	48 39 c7             	cmp    %rax,%rdi
    7c36:	74 05                	je     7c3d <_ZN2ML8runTestsEv.cold+0x336>
    7c38:	e8 13 c6 ff ff       	call   4250 <_ZdlPv@plt>
    7c3d:	48 8b bd d0 fe ff ff 	mov    -0x130(%rbp),%rdi
    7c44:	48 8b 85 68 fd ff ff 	mov    -0x298(%rbp),%rax
    7c4b:	48 39 c7             	cmp    %rax,%rdi
    7c4e:	0f 84 6c fe ff ff    	je     7ac0 <_ZN2ML8runTestsEv.cold+0x1b9>
    7c54:	e8 f7 c5 ff ff       	call   4250 <_ZdlPv@plt>
    7c59:	e9 62 fe ff ff       	jmp    7ac0 <_ZN2ML8runTestsEv.cold+0x1b9>
    7c5e:	48 8b bd d0 fe ff ff 	mov    -0x130(%rbp),%rdi
    7c65:	48 8b 85 68 fd ff ff 	mov    -0x298(%rbp),%rax
    7c6c:	48 39 c7             	cmp    %rax,%rdi
    7c6f:	75 46                	jne    7cb7 <_ZN2ML8runTestsEv.cold+0x3b0>
    7c71:	c5 f8 77             	vzeroupper
    7c74:	48 8b bd f0 fe ff ff 	mov    -0x110(%rbp),%rdi
    7c7b:	48 8b 85 40 fd ff ff 	mov    -0x2c0(%rbp),%rax
    7c82:	48 39 c7             	cmp    %rax,%rdi
    7c85:	74 05                	je     7c8c <_ZN2ML8runTestsEv.cold+0x385>
    7c87:	e8 c4 c5 ff ff       	call   4250 <_ZdlPv@plt>
    7c8c:	48 8b 7d 80          	mov    -0x80(%rbp),%rdi
    7c90:	48 8b 85 08 fd ff ff 	mov    -0x2f8(%rbp),%rax
    7c97:	48 39 c7             	cmp    %rax,%rdi
    7c9a:	0f 84 ac fc ff ff    	je     794c <_ZN2ML8runTestsEv.cold+0x45>
    7ca0:	e8 ab c5 ff ff       	call   4250 <_ZdlPv@plt>
    7ca5:	e9 a2 fc ff ff       	jmp    794c <_ZN2ML8runTestsEv.cold+0x45>
    7caa:	c5 f8 77             	vzeroupper
    7cad:	e8 9e c5 ff ff       	call   4250 <_ZdlPv@plt>
    7cb2:	e9 ef fe ff ff       	jmp    7ba6 <_ZN2ML8runTestsEv.cold+0x29f>
    7cb7:	c5 f8 77             	vzeroupper
    7cba:	e8 91 c5 ff ff       	call   4250 <_ZdlPv@plt>
    7cbf:	eb b3                	jmp    7c74 <_ZN2ML8runTestsEv.cold+0x36d>
    7cc1:	48 8b 7d 80          	mov    -0x80(%rbp),%rdi
    7cc5:	48 8b 85 08 fd ff ff 	mov    -0x2f8(%rbp),%rax
    7ccc:	48 39 c7             	cmp    %rax,%rdi
    7ccf:	74 1d                	je     7cee <_ZN2ML8runTestsEv.cold+0x3e7>
    7cd1:	c5 f8 77             	vzeroupper
    7cd4:	e8 77 c5 ff ff       	call   4250 <_ZdlPv@plt>
    7cd9:	e9 90 fc ff ff       	jmp    796e <_ZN2ML8runTestsEv.cold+0x67>
    7cde:	c5 f8 77             	vzeroupper
    7ce1:	e9 6b fd ff ff       	jmp    7a51 <_ZN2ML8runTestsEv.cold+0x14a>
    7ce6:	c5 f8 77             	vzeroupper
    7ce9:	e9 35 fc ff ff       	jmp    7923 <_ZN2ML8runTestsEv.cold+0x1c>
    7cee:	c5 f8 77             	vzeroupper
    7cf1:	e9 78 fc ff ff       	jmp    796e <_ZN2ML8runTestsEv.cold+0x67>
    7cf6:	48 89 df             	mov    %rbx,%rdi
    7cf9:	e8 52 c5 ff ff       	call   4250 <_ZdlPv@plt>
    7cfe:	e9 1f ff ff ff       	jmp    7c22 <_ZN2ML8runTestsEv.cold+0x31b>
    7d03:	48 8b bd f0 fe ff ff 	mov    -0x110(%rbp),%rdi
    7d0a:	48 8b 85 40 fd ff ff 	mov    -0x2c0(%rbp),%rax
    7d11:	48 39 c7             	cmp    %rax,%rdi
    7d14:	74 2e                	je     7d44 <_ZN2ML8runTestsEv.cold+0x43d>
    7d16:	c5 f8 77             	vzeroupper
    7d19:	e8 32 c5 ff ff       	call   4250 <_ZdlPv@plt>
    7d1e:	48 8b 7d 80          	mov    -0x80(%rbp),%rdi
    7d22:	48 8b 85 08 fd ff ff 	mov    -0x2f8(%rbp),%rax
    7d29:	48 39 c7             	cmp    %rax,%rdi
    7d2c:	0f 84 74 fe ff ff    	je     7ba6 <_ZN2ML8runTestsEv.cold+0x29f>
    7d32:	e8 19 c5 ff ff       	call   4250 <_ZdlPv@plt>
    7d37:	e9 6a fe ff ff       	jmp    7ba6 <_ZN2ML8runTestsEv.cold+0x29f>
    7d3c:	c5 f8 77             	vzeroupper
    7d3f:	e9 a2 fe ff ff       	jmp    7be6 <_ZN2ML8runTestsEv.cold+0x2df>
    7d44:	c5 f8 77             	vzeroupper
    7d47:	eb d5                	jmp    7d1e <_ZN2ML8runTestsEv.cold+0x417>
    7d49:	48 8b bd f0 fe ff ff 	mov    -0x110(%rbp),%rdi
    7d50:	48 8b 85 40 fd ff ff 	mov    -0x2c0(%rbp),%rax
    7d57:	48 39 c7             	cmp    %rax,%rdi
    7d5a:	74 0d                	je     7d69 <_ZN2ML8runTestsEv.cold+0x462>
    7d5c:	c5 f8 77             	vzeroupper
    7d5f:	e8 ec c4 ff ff       	call   4250 <_ZdlPv@plt>
    7d64:	e9 4b fd ff ff       	jmp    7ab4 <_ZN2ML8runTestsEv.cold+0x1ad>
    7d69:	c5 f8 77             	vzeroupper
    7d6c:	e9 43 fd ff ff       	jmp    7ab4 <_ZN2ML8runTestsEv.cold+0x1ad>
    7d71:	c5 f8 77             	vzeroupper
    7d74:	e9 a0 fe ff ff       	jmp    7c19 <_ZN2ML8runTestsEv.cold+0x312>

0000000000007d79 <_ZN2ML16test8BitAccuracyEv.cold>:
    7d79:	48 8b bd b0 fd ff ff 	mov    -0x250(%rbp),%rdi
    7d80:	48 8b 85 b0 fc ff ff 	mov    -0x350(%rbp),%rax
    7d87:	48 39 c7             	cmp    %rax,%rdi
    7d8a:	0f 84 94 02 00 00    	je     8024 <_ZN2ML16test8BitAccuracyEv.cold+0x2ab>
    7d90:	c5 f8 77             	vzeroupper
    7d93:	e8 b8 c4 ff ff       	call   4250 <_ZdlPv@plt>
    7d98:	48 8b bd 60 fd ff ff 	mov    -0x2a0(%rbp),%rdi
    7d9f:	4c 39 ff             	cmp    %r15,%rdi
    7da2:	74 05                	je     7da9 <_ZN2ML16test8BitAccuracyEv.cold+0x30>
    7da4:	e8 a7 c4 ff ff       	call   4250 <_ZdlPv@plt>
    7da9:	48 8b bd 50 fc ff ff 	mov    -0x3b0(%rbp),%rdi
    7db0:	e8 4b 3d 02 00       	call   2bb00 <_ZNSt6vectorISt10unique_ptrIN2ML5LayerESt14default_deleteIS2_EESaIS5_EED1Ev>
    7db5:	48 89 df             	mov    %rbx,%rdi
    7db8:	e8 93 c6 ff ff       	call   4450 <_Unwind_Resume@plt>
    7dbd:	48 8b bd b0 fd ff ff 	mov    -0x250(%rbp),%rdi
    7dc4:	48 8b 85 b0 fc ff ff 	mov    -0x350(%rbp),%rax
    7dcb:	48 39 c7             	cmp    %rax,%rdi
    7dce:	0f 85 a6 00 00 00    	jne    7e7a <_ZN2ML16test8BitAccuracyEv.cold+0x101>
    7dd4:	c5 f8 77             	vzeroupper
    7dd7:	48 8b bd 00 fd ff ff 	mov    -0x300(%rbp),%rdi
    7dde:	48 8b 85 88 fc ff ff 	mov    -0x378(%rbp),%rax
    7de5:	48 39 c7             	cmp    %rax,%rdi
    7de8:	74 05                	je     7def <_ZN2ML16test8BitAccuracyEv.cold+0x76>
    7dea:	e8 61 c4 ff ff       	call   4250 <_ZdlPv@plt>
    7def:	48 8b bd e0 fc ff ff 	mov    -0x320(%rbp),%rdi
    7df6:	48 8b 85 98 fc ff ff 	mov    -0x368(%rbp),%rax
    7dfd:	48 39 c7             	cmp    %rax,%rdi
    7e00:	74 a7                	je     7da9 <_ZN2ML16test8BitAccuracyEv.cold+0x30>
    7e02:	e8 49 c4 ff ff       	call   4250 <_ZdlPv@plt>
    7e07:	eb a0                	jmp    7da9 <_ZN2ML16test8BitAccuracyEv.cold+0x30>
    7e09:	48 8b bd b0 fc ff ff 	mov    -0x350(%rbp),%rdi
    7e10:	c5 f8 77             	vzeroupper
    7e13:	e8 78 c5 ff ff       	call   4390 <_ZNSt13basic_filebufIcSt11char_traitsIcEED1Ev@plt>
    7e18:	48 8b 05 c1 fd 02 00 	mov    0x2fdc1(%rip),%rax        # 37be0 <_ZTTSt14basic_ifstreamIcSt11char_traitsIcEE@GLIBCXX_3.4+0x8>
    7e1f:	48 8b 0d c2 fd 02 00 	mov    0x2fdc2(%rip),%rcx        # 37be8 <_ZTTSt14basic_ifstreamIcSt11char_traitsIcEE@GLIBCXX_3.4+0x10>
    7e26:	48 89 85 b0 fd ff ff 	mov    %rax,-0x250(%rbp)
    7e2d:	48 8b 40 e8          	mov    -0x18(%rax),%rax
    7e31:	48 89 8c 05 b0 fd ff 	mov    %rcx,-0x250(%rbp,%rax,1)
    7e38:	ff 
    7e39:	31 c0                	xor    %eax,%eax
    7e3b:	48 89 85 b8 fd ff ff 	mov    %rax,-0x248(%rbp)
    7e42:	4c 89 b5 b0 fe ff ff 	mov    %r14,-0x150(%rbp)
    7e49:	4c 89 e7             	mov    %r12,%rdi
    7e4c:	e8 8f c2 ff ff       	call   40e0 <_ZNSt8ios_baseD2Ev@plt>
    7e51:	48 8b bd 20 fd ff ff 	mov    -0x2e0(%rbp),%rdi
    7e58:	48 8b 85 78 fc ff ff 	mov    -0x388(%rbp),%rax
    7e5f:	48 39 c7             	cmp    %rax,%rdi
    7e62:	74 05                	je     7e69 <_ZN2ML16test8BitAccuracyEv.cold+0xf0>
    7e64:	e8 e7 c3 ff ff       	call   4250 <_ZdlPv@plt>
    7e69:	48 8b bd b8 fc ff ff 	mov    -0x348(%rbp),%rdi
    7e70:	e8 1b 34 02 00       	call   2b290 <_ZN2ML9LayerDataD1Ev>
    7e75:	e9 5d ff ff ff       	jmp    7dd7 <_ZN2ML16test8BitAccuracyEv.cold+0x5e>
    7e7a:	c5 f8 77             	vzeroupper
    7e7d:	e8 ce c3 ff ff       	call   4250 <_ZdlPv@plt>
    7e82:	e9 50 ff ff ff       	jmp    7dd7 <_ZN2ML16test8BitAccuracyEv.cold+0x5e>
    7e87:	48 8b bd b0 fd ff ff 	mov    -0x250(%rbp),%rdi
    7e8e:	48 8d 85 c0 fd ff ff 	lea    -0x240(%rbp),%rax
    7e95:	48 39 c7             	cmp    %rax,%rdi
    7e98:	75 69                	jne    7f03 <_ZN2ML16test8BitAccuracyEv.cold+0x18a>
    7e9a:	c5 f8 77             	vzeroupper
    7e9d:	48 89 df             	mov    %rbx,%rdi
    7ea0:	e8 ab c5 ff ff       	call   4450 <_Unwind_Resume@plt>
    7ea5:	48 8b bd 68 fd ff ff 	mov    -0x298(%rbp),%rdi
    7eac:	48 85 ff             	test   %rdi,%rdi
    7eaf:	0f 84 bc 01 00 00    	je     8071 <_ZN2ML16test8BitAccuracyEv.cold+0x2f8>
    7eb5:	c5 f8 77             	vzeroupper
    7eb8:	e8 93 c3 ff ff       	call   4250 <_ZdlPv@plt>
    7ebd:	4d 85 e4             	test   %r12,%r12
    7ec0:	74 08                	je     7eca <_ZN2ML16test8BitAccuracyEv.cold+0x151>
    7ec2:	4c 89 e7             	mov    %r12,%rdi
    7ec5:	e8 86 c3 ff ff       	call   4250 <_ZdlPv@plt>
    7eca:	48 8b bd b0 fd ff ff 	mov    -0x250(%rbp),%rdi
    7ed1:	48 8b 85 b0 fc ff ff 	mov    -0x350(%rbp),%rax
    7ed8:	48 39 c7             	cmp    %rax,%rdi
    7edb:	74 05                	je     7ee2 <_ZN2ML16test8BitAccuracyEv.cold+0x169>
    7edd:	e8 6e c3 ff ff       	call   4250 <_ZdlPv@plt>
    7ee2:	48 8b bd 40 fd ff ff 	mov    -0x2c0(%rbp),%rdi
    7ee9:	48 8b 85 a0 fc ff ff 	mov    -0x360(%rbp),%rax
    7ef0:	48 39 c7             	cmp    %rax,%rdi
    7ef3:	0f 84 de fe ff ff    	je     7dd7 <_ZN2ML16test8BitAccuracyEv.cold+0x5e>
    7ef9:	e8 52 c3 ff ff       	call   4250 <_ZdlPv@plt>
    7efe:	e9 d4 fe ff ff       	jmp    7dd7 <_ZN2ML16test8BitAccuracyEv.cold+0x5e>
    7f03:	c5 f8 77             	vzeroupper
    7f06:	e8 45 c3 ff ff       	call   4250 <_ZdlPv@plt>
    7f0b:	eb 90                	jmp    7e9d <_ZN2ML16test8BitAccuracyEv.cold+0x124>
    7f0d:	e8 2e c4 ff ff       	call   4340 <__cxa_throw_bad_array_new_length@plt>
    7f12:	48 89 c3             	mov    %rax,%rbx
    7f15:	c5 f8 77             	vzeroupper
    7f18:	e9 34 ff ff ff       	jmp    7e51 <_ZN2ML16test8BitAccuracyEv.cold+0xd8>
    7f1d:	bf 10 00 00 00       	mov    $0x10,%edi
    7f22:	e8 29 c2 ff ff       	call   4150 <__cxa_allocate_exception@plt>
