
build/ml:     file format elf64-x86-64


Disassembly of section .init:

0000000000004000 <_init>:
    4000:	48 83 ec 08          	sub    $0x8,%rsp
    4004:	48 8b 05 c5 ef 02 00 	mov    0x2efc5(%rip),%rax        # 32fd0 <__gmon_start__@Base>
    400b:	48 85 c0             	test   %rax,%rax
    400e:	74 02                	je     4012 <_init+0x12>
    4010:	ff d0                	call   *%rax
    4012:	48 83 c4 08          	add    $0x8,%rsp
    4016:	c3                   	ret

Disassembly of section .plt:

0000000000004020 <_Znam@plt-0x10>:
    4020:	ff 35 ca ef 02 00    	push   0x2efca(%rip)        # 32ff0 <_GLOBAL_OFFSET_TABLE_+0x8>
    4026:	ff 25 cc ef 02 00    	jmp    *0x2efcc(%rip)        # 32ff8 <_GLOBAL_OFFSET_TABLE_+0x10>
    402c:	0f 1f 40 00          	nopl   0x0(%rax)

0000000000004030 <_Znam@plt>:
    4030:	ff 25 ca ef 02 00    	jmp    *0x2efca(%rip)        # 33000 <_Znam@GLIBCXX_3.4>
    4036:	68 00 00 00 00       	push   $0x0
    403b:	e9 e0 ff ff ff       	jmp    4020 <_init+0x20>

0000000000004040 <_ZNSo3putEc@plt>:
    4040:	ff 25 c2 ef 02 00    	jmp    *0x2efc2(%rip)        # 33008 <_ZNSo3putEc@GLIBCXX_3.4>
    4046:	68 01 00 00 00       	push   $0x1
    404b:	e9 d0 ff ff ff       	jmp    4020 <_init+0x20>

0000000000004050 <printf@plt>:
    4050:	ff 25 ba ef 02 00    	jmp    *0x2efba(%rip)        # 33010 <printf@GLIBC_2.2.5>
    4056:	68 02 00 00 00       	push   $0x2
    405b:	e9 c0 ff ff ff       	jmp    4020 <_init+0x20>

0000000000004060 <_ZNSt13basic_filebufIcSt11char_traitsIcEE5closeEv@plt>:
    4060:	ff 25 b2 ef 02 00    	jmp    *0x2efb2(%rip)        # 33018 <_ZNSt13basic_filebufIcSt11char_traitsIcEE5closeEv@GLIBCXX_3.4>
    4066:	68 03 00 00 00       	push   $0x3
    406b:	e9 b0 ff ff ff       	jmp    4020 <_init+0x20>

0000000000004070 <_ZNKSt12__basic_fileIcE7is_openEv@plt>:
    4070:	ff 25 aa ef 02 00    	jmp    *0x2efaa(%rip)        # 33020 <_ZNKSt12__basic_fileIcE7is_openEv@GLIBCXX_3.4>
    4076:	68 04 00 00 00       	push   $0x4
    407b:	e9 a0 ff ff ff       	jmp    4020 <_init+0x20>

0000000000004080 <_ZNSt7__cxx1112basic_stringIcSt11char_traitsIcESaIcEE6insertEmPKc@plt>:
    4080:	ff 25 a2 ef 02 00    	jmp    *0x2efa2(%rip)        # 33028 <_ZNSt7__cxx1112basic_stringIcSt11char_traitsIcESaIcEE6insertEmPKc@GLIBCXX_3.4.21>
    4086:	68 05 00 00 00       	push   $0x5
    408b:	e9 90 ff ff ff       	jmp    4020 <_init+0x20>

0000000000004090 <_ZNSt14basic_ifstreamIcSt11char_traitsIcEED1Ev@plt>:
    4090:	ff 25 9a ef 02 00    	jmp    *0x2ef9a(%rip)        # 33030 <_ZNSt14basic_ifstreamIcSt11char_traitsIcEED1Ev@GLIBCXX_3.4>
    4096:	68 06 00 00 00       	push   $0x6
    409b:	e9 80 ff ff ff       	jmp    4020 <_init+0x20>

00000000000040a0 <_ZSt9terminatev@plt>:
    40a0:	ff 25 92 ef 02 00    	jmp    *0x2ef92(%rip)        # 33038 <_ZSt9terminatev@GLIBCXX_3.4>
    40a6:	68 07 00 00 00       	push   $0x7
    40ab:	e9 70 ff ff ff       	jmp    4020 <_init+0x20>

00000000000040b0 <_ZNKSt7__cxx1112basic_stringIcSt11char_traitsIcESaIcEE7compareEPKc@plt>:
    40b0:	ff 25 8a ef 02 00    	jmp    *0x2ef8a(%rip)        # 33040 <_ZNKSt7__cxx1112basic_stringIcSt11char_traitsIcESaIcEE7compareEPKc@GLIBCXX_3.4.21>
    40b6:	68 08 00 00 00       	push   $0x8
    40bb:	e9 60 ff ff ff       	jmp    4020 <_init+0x20>

00000000000040c0 <_ZNSt8ios_baseC2Ev@plt>:
    40c0:	ff 25 82 ef 02 00    	jmp    *0x2ef82(%rip)        # 33048 <_ZNSt8ios_baseC2Ev@GLIBCXX_3.4>
    40c6:	68 09 00 00 00       	push   $0x9
    40cb:	e9 50 ff ff ff       	jmp    4020 <_init+0x20>

00000000000040d0 <_ZNSt7__cxx1112basic_stringIcSt11char_traitsIcESaIcEE9_M_appendEPKcm@plt>:
    40d0:	ff 25 7a ef 02 00    	jmp    *0x2ef7a(%rip)        # 33050 <_ZNSt7__cxx1112basic_stringIcSt11char_traitsIcESaIcEE9_M_appendEPKcm@GLIBCXX_3.4.21>
    40d6:	68 0a 00 00 00       	push   $0xa
    40db:	e9 40 ff ff ff       	jmp    4020 <_init+0x20>

00000000000040e0 <_ZNSt8ios_baseD2Ev@plt>:
    40e0:	ff 25 72 ef 02 00    	jmp    *0x2ef72(%rip)        # 33058 <_ZNSt8ios_baseD2Ev@GLIBCXX_3.4>
    40e6:	68 0b 00 00 00       	push   $0xb
    40eb:	e9 30 ff ff ff       	jmp    4020 <_init+0x20>

00000000000040f0 <_ZSt17__throw_bad_allocv@plt>:
    40f0:	ff 25 6a ef 02 00    	jmp    *0x2ef6a(%rip)        # 33060 <_ZSt17__throw_bad_allocv@GLIBCXX_3.4>
    40f6:	68 0c 00 00 00       	push   $0xc
    40fb:	e9 20 ff ff ff       	jmp    4020 <_init+0x20>

0000000000004100 <_ZNSt13runtime_errorC1EPKc@plt>:
    4100:	ff 25 62 ef 02 00    	jmp    *0x2ef62(%rip)        # 33068 <_ZNSt13runtime_errorC1EPKc@GLIBCXX_3.4.21>
    4106:	68 0d 00 00 00       	push   $0xd
    410b:	e9 10 ff ff ff       	jmp    4020 <_init+0x20>

0000000000004110 <__cxa_begin_catch@plt>:
    4110:	ff 25 5a ef 02 00    	jmp    *0x2ef5a(%rip)        # 33070 <__cxa_begin_catch@CXXABI_1.3>
    4116:	68 0e 00 00 00       	push   $0xe
    411b:	e9 00 ff ff ff       	jmp    4020 <_init+0x20>

0000000000004120 <strlen@plt>:
    4120:	ff 25 52 ef 02 00    	jmp    *0x2ef52(%rip)        # 33078 <strlen@GLIBC_2.2.5>
    4126:	68 0f 00 00 00       	push   $0xf
    412b:	e9 f0 fe ff ff       	jmp    4020 <_init+0x20>

0000000000004130 <_ZNSt6thread6_StateD2Ev@plt>:
    4130:	ff 25 4a ef 02 00    	jmp    *0x2ef4a(%rip)        # 33080 <_ZNSt6thread6_StateD2Ev@GLIBCXX_3.4.22>
    4136:	68 10 00 00 00       	push   $0x10
    413b:	e9 e0 fe ff ff       	jmp    4020 <_init+0x20>

0000000000004140 <_ZSt4endlIcSt11char_traitsIcEERSt13basic_ostreamIT_T0_ES6_@plt>:
    4140:	ff 25 42 ef 02 00    	jmp    *0x2ef42(%rip)        # 33088 <_ZSt4endlIcSt11char_traitsIcEERSt13basic_ostreamIT_T0_ES6_@GLIBCXX_3.4>
    4146:	68 11 00 00 00       	push   $0x11
    414b:	e9 d0 fe ff ff       	jmp    4020 <_init+0x20>

0000000000004150 <__cxa_allocate_exception@plt>:
    4150:	ff 25 3a ef 02 00    	jmp    *0x2ef3a(%rip)        # 33090 <__cxa_allocate_exception@CXXABI_1.3>
    4156:	68 12 00 00 00       	push   $0x12
    415b:	e9 c0 fe ff ff       	jmp    4020 <_init+0x20>

0000000000004160 <_ZSt20__throw_length_errorPKc@plt>:
    4160:	ff 25 32 ef 02 00    	jmp    *0x2ef32(%rip)        # 33098 <_ZSt20__throw_length_errorPKc@GLIBCXX_3.4>
    4166:	68 13 00 00 00       	push   $0x13
    416b:	e9 b0 fe ff ff       	jmp    4020 <_init+0x20>

0000000000004170 <_ZNSt7__cxx1112basic_stringIcSt11char_traitsIcESaIcEE9_M_assignERKS4_@plt>:
    4170:	ff 25 2a ef 02 00    	jmp    *0x2ef2a(%rip)        # 330a0 <_ZNSt7__cxx1112basic_stringIcSt11char_traitsIcESaIcEE9_M_assignERKS4_@GLIBCXX_3.4.21>
    4176:	68 14 00 00 00       	push   $0x14
    417b:	e9 a0 fe ff ff       	jmp    4020 <_init+0x20>

0000000000004180 <memset@plt>:
    4180:	ff 25 22 ef 02 00    	jmp    *0x2ef22(%rip)        # 330a8 <memset@GLIBC_2.2.5>
    4186:	68 15 00 00 00       	push   $0x15
    418b:	e9 90 fe ff ff       	jmp    4020 <_init+0x20>

0000000000004190 <_ZNSt7__cxx1112basic_stringIcSt11char_traitsIcESaIcEEC1EOS4_@plt>:
    4190:	ff 25 1a ef 02 00    	jmp    *0x2ef1a(%rip)        # 330b0 <_ZNSt7__cxx1112basic_stringIcSt11char_traitsIcESaIcEEC1EOS4_@GLIBCXX_3.4.21>
    4196:	68 16 00 00 00       	push   $0x16
    419b:	e9 80 fe ff ff       	jmp    4020 <_init+0x20>

00000000000041a0 <__assert_fail@plt>:
    41a0:	ff 25 12 ef 02 00    	jmp    *0x2ef12(%rip)        # 330b8 <__assert_fail@GLIBC_2.2.5>
    41a6:	68 17 00 00 00       	push   $0x17
    41ab:	e9 70 fe ff ff       	jmp    4020 <_init+0x20>

00000000000041b0 <_ZNSo9_M_insertImEERSoT_@plt>:
    41b0:	ff 25 0a ef 02 00    	jmp    *0x2ef0a(%rip)        # 330c0 <_ZNSo9_M_insertImEERSoT_@GLIBCXX_3.4.9>
    41b6:	68 18 00 00 00       	push   $0x18
    41bb:	e9 60 fe ff ff       	jmp    4020 <_init+0x20>

00000000000041c0 <_ZNSo5flushEv@plt>:
    41c0:	ff 25 02 ef 02 00    	jmp    *0x2ef02(%rip)        # 330c8 <_ZNSo5flushEv@GLIBCXX_3.4>
    41c6:	68 19 00 00 00       	push   $0x19
    41cb:	e9 50 fe ff ff       	jmp    4020 <_init+0x20>

00000000000041d0 <_ZSt19__throw_logic_errorPKc@plt>:
    41d0:	ff 25 fa ee 02 00    	jmp    *0x2eefa(%rip)        # 330d0 <_ZSt19__throw_logic_errorPKc@GLIBCXX_3.4>
    41d6:	68 1a 00 00 00       	push   $0x1a
    41db:	e9 40 fe ff ff       	jmp    4020 <_init+0x20>

00000000000041e0 <__cxa_free_exception@plt>:
    41e0:	ff 25 f2 ee 02 00    	jmp    *0x2eef2(%rip)        # 330d8 <__cxa_free_exception@CXXABI_1.3>
    41e6:	68 1b 00 00 00       	push   $0x1b
    41eb:	e9 30 fe ff ff       	jmp    4020 <_init+0x20>

00000000000041f0 <_ZNSt7__cxx1118basic_stringstreamIcSt11char_traitsIcESaIcEED1Ev@plt>:
    41f0:	ff 25 ea ee 02 00    	jmp    *0x2eeea(%rip)        # 330e0 <_ZNSt7__cxx1118basic_stringstreamIcSt11char_traitsIcESaIcEED1Ev@GLIBCXX_3.4.21>
    41f6:	68 1c 00 00 00       	push   $0x1c
    41fb:	e9 20 fe ff ff       	jmp    4020 <_init+0x20>

0000000000004200 <_ZSt28__throw_bad_array_new_lengthv@plt>:
    4200:	ff 25 e2 ee 02 00    	jmp    *0x2eee2(%rip)        # 330e8 <_ZSt28__throw_bad_array_new_lengthv@GLIBCXX_3.4.29>
    4206:	68 1d 00 00 00       	push   $0x1d
    420b:	e9 10 fe ff ff       	jmp    4020 <_init+0x20>

0000000000004210 <memcpy@plt>:
    4210:	ff 25 da ee 02 00    	jmp    *0x2eeda(%rip)        # 330f0 <memcpy@GLIBC_2.14>
    4216:	68 1e 00 00 00       	push   $0x1e
    421b:	e9 00 fe ff ff       	jmp    4020 <_init+0x20>

0000000000004220 <__cxa_atexit@plt>:
    4220:	ff 25 d2 ee 02 00    	jmp    *0x2eed2(%rip)        # 330f8 <__cxa_atexit@GLIBC_2.2.5>
    4226:	68 1f 00 00 00       	push   $0x1f
    422b:	e9 f0 fd ff ff       	jmp    4020 <_init+0x20>

0000000000004230 <_ZNSt13basic_filebufIcSt11char_traitsIcEE4openEPKcSt13_Ios_Openmode@plt>:
    4230:	ff 25 ca ee 02 00    	jmp    *0x2eeca(%rip)        # 33100 <_ZNSt13basic_filebufIcSt11char_traitsIcEE4openEPKcSt13_Ios_Openmode@GLIBCXX_3.4>
    4236:	68 20 00 00 00       	push   $0x20
    423b:	e9 e0 fd ff ff       	jmp    4020 <_init+0x20>

0000000000004240 <_ZNSt6thread15_M_start_threadESt10unique_ptrINS_6_StateESt14default_deleteIS1_EEPFvvE@plt>:
    4240:	ff 25 c2 ee 02 00    	jmp    *0x2eec2(%rip)        # 33108 <_ZNSt6thread15_M_start_threadESt10unique_ptrINS_6_StateESt14default_deleteIS1_EEPFvvE@GLIBCXX_3.4.22>
    4246:	68 21 00 00 00       	push   $0x21
    424b:	e9 d0 fd ff ff       	jmp    4020 <_init+0x20>

0000000000004250 <_ZdlPv@plt>:
    4250:	ff 25 ba ee 02 00    	jmp    *0x2eeba(%rip)        # 33110 <_ZdlPv@GLIBCXX_3.4>
    4256:	68 22 00 00 00       	push   $0x22
    425b:	e9 c0 fd ff ff       	jmp    4020 <_init+0x20>

0000000000004260 <_ZStlsISt11char_traitsIcEERSt13basic_ostreamIcT_ES5_PKc@plt>:
    4260:	ff 25 b2 ee 02 00    	jmp    *0x2eeb2(%rip)        # 33118 <_ZStlsISt11char_traitsIcEERSt13basic_ostreamIcT_ES5_PKc@GLIBCXX_3.4>
    4266:	68 23 00 00 00       	push   $0x23
    426b:	e9 b0 fd ff ff       	jmp    4020 <_init+0x20>

0000000000004270 <_Znwm@plt>:
    4270:	ff 25 aa ee 02 00    	jmp    *0x2eeaa(%rip)        # 33120 <_Znwm@GLIBCXX_3.4>
    4276:	68 24 00 00 00       	push   $0x24
    427b:	e9 a0 fd ff ff       	jmp    4020 <_init+0x20>

0000000000004280 <_ZNSt13basic_filebufIcSt11char_traitsIcEEC1Ev@plt>:
    4280:	ff 25 a2 ee 02 00    	jmp    *0x2eea2(%rip)        # 33128 <_ZNSt13basic_filebufIcSt11char_traitsIcEEC1Ev@GLIBCXX_3.4>
    4286:	68 25 00 00 00       	push   $0x25
    428b:	e9 90 fd ff ff       	jmp    4020 <_init+0x20>

0000000000004290 <__dynamic_cast@plt>:
    4290:	ff 25 9a ee 02 00    	jmp    *0x2ee9a(%rip)        # 33130 <__dynamic_cast@CXXABI_1.3>
    4296:	68 26 00 00 00       	push   $0x26
    429b:	e9 80 fd ff ff       	jmp    4020 <_init+0x20>

00000000000042a0 <_ZSt16__ostream_insertIcSt11char_traitsIcEERSt13basic_ostreamIT_T0_ES6_PKS3_l@plt>:
    42a0:	ff 25 92 ee 02 00    	jmp    *0x2ee92(%rip)        # 33138 <_ZSt16__ostream_insertIcSt11char_traitsIcEERSt13basic_ostreamIT_T0_ES6_PKS3_l@GLIBCXX_3.4.9>
    42a6:	68 27 00 00 00       	push   $0x27
    42ab:	e9 70 fd ff ff       	jmp    4020 <_init+0x20>

00000000000042b0 <_ZNKSt5ctypeIcE13_M_widen_initEv@plt>:
    42b0:	ff 25 8a ee 02 00    	jmp    *0x2ee8a(%rip)        # 33140 <_ZNKSt5ctypeIcE13_M_widen_initEv@GLIBCXX_3.4.11>
    42b6:	68 28 00 00 00       	push   $0x28
    42bb:	e9 60 fd ff ff       	jmp    4020 <_init+0x20>

00000000000042c0 <_ZNSt7__cxx1112basic_stringIcSt11char_traitsIcESaIcEE12_M_constructEmc@plt>:
    42c0:	ff 25 82 ee 02 00    	jmp    *0x2ee82(%rip)        # 33148 <_ZNSt7__cxx1112basic_stringIcSt11char_traitsIcESaIcEE12_M_constructEmc@GLIBCXX_3.4.21>
    42c6:	68 29 00 00 00       	push   $0x29
    42cb:	e9 50 fd ff ff       	jmp    4020 <_init+0x20>

00000000000042d0 <_ZNSi4readEPcl@plt>:
    42d0:	ff 25 7a ee 02 00    	jmp    *0x2ee7a(%rip)        # 33150 <_ZNSi4readEPcl@GLIBCXX_3.4>
    42d6:	68 2a 00 00 00       	push   $0x2a
    42db:	e9 40 fd ff ff       	jmp    4020 <_init+0x20>

00000000000042e0 <_ZSt16__throw_bad_castv@plt>:
    42e0:	ff 25 72 ee 02 00    	jmp    *0x2ee72(%rip)        # 33158 <_ZSt16__throw_bad_castv@GLIBCXX_3.4>
    42e6:	68 2b 00 00 00       	push   $0x2b
    42eb:	e9 30 fd ff ff       	jmp    4020 <_init+0x20>

00000000000042f0 <_ZdaPv@plt>:
    42f0:	ff 25 6a ee 02 00    	jmp    *0x2ee6a(%rip)        # 33160 <_ZdaPv@GLIBCXX_3.4>
    42f6:	68 2c 00 00 00       	push   $0x2c
    42fb:	e9 20 fd ff ff       	jmp    4020 <_init+0x20>

0000000000004300 <_ZNSt6chrono3_V212steady_clock3nowEv@plt>:
    4300:	ff 25 62 ee 02 00    	jmp    *0x2ee62(%rip)        # 33168 <_ZNSt6chrono3_V212steady_clock3nowEv@GLIBCXX_3.4.19>
    4306:	68 2d 00 00 00       	push   $0x2d
    430b:	e9 10 fd ff ff       	jmp    4020 <_init+0x20>

0000000000004310 <_ZNSt9basic_iosIcSt11char_traitsIcEE4initEPSt15basic_streambufIcS1_E@plt>:
    4310:	ff 25 5a ee 02 00    	jmp    *0x2ee5a(%rip)        # 33170 <_ZNSt9basic_iosIcSt11char_traitsIcEE4initEPSt15basic_streambufIcS1_E@GLIBCXX_3.4>
    4316:	68 2e 00 00 00       	push   $0x2e
    431b:	e9 00 fd ff ff       	jmp    4020 <_init+0x20>

0000000000004320 <putchar@plt>:
    4320:	ff 25 52 ee 02 00    	jmp    *0x2ee52(%rip)        # 33178 <putchar@GLIBC_2.2.5>
    4326:	68 2f 00 00 00       	push   $0x2f
    432b:	e9 f0 fc ff ff       	jmp    4020 <_init+0x20>

0000000000004330 <_ZNSt6localeD1Ev@plt>:
    4330:	ff 25 4a ee 02 00    	jmp    *0x2ee4a(%rip)        # 33180 <_ZNSt6localeD1Ev@GLIBCXX_3.4>
    4336:	68 30 00 00 00       	push   $0x30
    433b:	e9 e0 fc ff ff       	jmp    4020 <_init+0x20>

0000000000004340 <__cxa_throw_bad_array_new_length@plt>:
    4340:	ff 25 42 ee 02 00    	jmp    *0x2ee42(%rip)        # 33188 <__cxa_throw_bad_array_new_length@CXXABI_1.3.8>
    4346:	68 31 00 00 00       	push   $0x31
    434b:	e9 d0 fc ff ff       	jmp    4020 <_init+0x20>

0000000000004350 <__cxa_rethrow@plt>:
    4350:	ff 25 3a ee 02 00    	jmp    *0x2ee3a(%rip)        # 33190 <__cxa_rethrow@CXXABI_1.3>
    4356:	68 32 00 00 00       	push   $0x32
    435b:	e9 c0 fc ff ff       	jmp    4020 <_init+0x20>

0000000000004360 <_ZNSt8ios_base4InitC1Ev@plt>:
    4360:	ff 25 32 ee 02 00    	jmp    *0x2ee32(%rip)        # 33198 <_ZNSt8ios_base4InitC1Ev@GLIBCXX_3.4>
    4366:	68 33 00 00 00       	push   $0x33
    436b:	e9 b0 fc ff ff       	jmp    4020 <_init+0x20>

0000000000004370 <puts@plt>:
    4370:	ff 25 2a ee 02 00    	jmp    *0x2ee2a(%rip)        # 331a0 <puts@GLIBC_2.2.5>
    4376:	68 34 00 00 00       	push   $0x34
    437b:	e9 a0 fc ff ff       	jmp    4020 <_init+0x20>

0000000000004380 <_ZNSt7__cxx1112basic_stringIcSt11char_traitsIcESaIcEE10_M_replaceEmmPKcm@plt>:
    4380:	ff 25 22 ee 02 00    	jmp    *0x2ee22(%rip)        # 331a8 <_ZNSt7__cxx1112basic_stringIcSt11char_traitsIcESaIcEE10_M_replaceEmmPKcm@GLIBCXX_3.4.21>
    4386:	68 35 00 00 00       	push   $0x35
    438b:	e9 90 fc ff ff       	jmp    4020 <_init+0x20>

0000000000004390 <_ZNSt13basic_filebufIcSt11char_traitsIcEED1Ev@plt>:
    4390:	ff 25 1a ee 02 00    	jmp    *0x2ee1a(%rip)        # 331b0 <_ZNSt13basic_filebufIcSt11char_traitsIcEED1Ev@GLIBCXX_3.4>
    4396:	68 36 00 00 00       	push   $0x36
    439b:	e9 80 fc ff ff       	jmp    4020 <_init+0x20>

00000000000043a0 <_ZNSt7__cxx1112basic_stringIcSt11char_traitsIcESaIcEE7reserveEm@plt>:
    43a0:	ff 25 12 ee 02 00    	jmp    *0x2ee12(%rip)        # 331b8 <_ZNSt7__cxx1112basic_stringIcSt11char_traitsIcESaIcEE7reserveEm@GLIBCXX_3.4.21>
    43a6:	68 37 00 00 00       	push   $0x37
    43ab:	e9 70 fc ff ff       	jmp    4020 <_init+0x20>

00000000000043b0 <_ZNSo9_M_insertIdEERSoT_@plt>:
    43b0:	ff 25 0a ee 02 00    	jmp    *0x2ee0a(%rip)        # 331c0 <_ZNSo9_M_insertIdEERSoT_@GLIBCXX_3.4.9>
    43b6:	68 38 00 00 00       	push   $0x38
    43bb:	e9 60 fc ff ff       	jmp    4020 <_init+0x20>

00000000000043c0 <_ZNSt13runtime_errorC1ERKNSt7__cxx1112basic_stringIcSt11char_traitsIcESaIcEEE@plt>:
    43c0:	ff 25 02 ee 02 00    	jmp    *0x2ee02(%rip)        # 331c8 <_ZNSt13runtime_errorC1ERKNSt7__cxx1112basic_stringIcSt11char_traitsIcESaIcEEE@GLIBCXX_3.4.21>
    43c6:	68 39 00 00 00       	push   $0x39
    43cb:	e9 50 fc ff ff       	jmp    4020 <_init+0x20>

00000000000043d0 <memmove@plt>:
    43d0:	ff 25 fa ed 02 00    	jmp    *0x2edfa(%rip)        # 331d0 <memmove@GLIBC_2.2.5>
    43d6:	68 3a 00 00 00       	push   $0x3a
    43db:	e9 40 fc ff ff       	jmp    4020 <_init+0x20>

00000000000043e0 <__cxa_end_catch@plt>:
    43e0:	ff 25 f2 ed 02 00    	jmp    *0x2edf2(%rip)        # 331d8 <__cxa_end_catch@CXXABI_1.3>
    43e6:	68 3b 00 00 00       	push   $0x3b
    43eb:	e9 30 fc ff ff       	jmp    4020 <_init+0x20>

00000000000043f0 <_ZNSo9_M_insertIbEERSoT_@plt>:
    43f0:	ff 25 ea ed 02 00    	jmp    *0x2edea(%rip)        # 331e0 <_ZNSo9_M_insertIbEERSoT_@GLIBCXX_3.4.9>
    43f6:	68 3c 00 00 00       	push   $0x3c
    43fb:	e9 20 fc ff ff       	jmp    4020 <_init+0x20>

0000000000004400 <expf@plt>:
    4400:	ff 25 e2 ed 02 00    	jmp    *0x2ede2(%rip)        # 331e8 <expf@GLIBC_2.27>
    4406:	68 3d 00 00 00       	push   $0x3d
    440b:	e9 10 fc ff ff       	jmp    4020 <_init+0x20>

0000000000004410 <_ZNSt9basic_iosIcSt11char_traitsIcEE5clearESt12_Ios_Iostate@plt>:
    4410:	ff 25 da ed 02 00    	jmp    *0x2edda(%rip)        # 331f0 <_ZNSt9basic_iosIcSt11char_traitsIcEE5clearESt12_Ios_Iostate@GLIBCXX_3.4>
    4416:	68 3e 00 00 00       	push   $0x3e
    441b:	e9 00 fc ff ff       	jmp    4020 <_init+0x20>

0000000000004420 <_ZNSt6thread4joinEv@plt>:
    4420:	ff 25 d2 ed 02 00    	jmp    *0x2edd2(%rip)        # 331f8 <_ZNSt6thread4joinEv@GLIBCXX_3.4.11>
    4426:	68 3f 00 00 00       	push   $0x3f
    442b:	e9 f0 fb ff ff       	jmp    4020 <_init+0x20>

0000000000004430 <__cxa_throw@plt>:
    4430:	ff 25 ca ed 02 00    	jmp    *0x2edca(%rip)        # 33200 <__cxa_throw@CXXABI_1.3>
    4436:	68 40 00 00 00       	push   $0x40
    443b:	e9 e0 fb ff ff       	jmp    4020 <_init+0x20>

0000000000004440 <_ZNSolsEi@plt>:
    4440:	ff 25 c2 ed 02 00    	jmp    *0x2edc2(%rip)        # 33208 <_ZNSolsEi@GLIBCXX_3.4>
    4446:	68 41 00 00 00       	push   $0x41
    444b:	e9 d0 fb ff ff       	jmp    4020 <_init+0x20>

0000000000004450 <_Unwind_Resume@plt>:
    4450:	ff 25 ba ed 02 00    	jmp    *0x2edba(%rip)        # 33210 <_Unwind_Resume@GCC_3.0>
    4456:	68 42 00 00 00       	push   $0x42
    445b:	e9 c0 fb ff ff       	jmp    4020 <_init+0x20>

0000000000004460 <_ZNSt7__cxx1112basic_stringIcSt11char_traitsIcESaIcEE9_M_createERmm@plt>:
    4460:	ff 25 b2 ed 02 00    	jmp    *0x2edb2(%rip)        # 33218 <_ZNSt7__cxx1112basic_stringIcSt11char_traitsIcESaIcEE9_M_createERmm@GLIBCXX_3.4.21>
    4466:	68 43 00 00 00       	push   $0x43
    446b:	e9 b0 fb ff ff       	jmp    4020 <_init+0x20>

0000000000004470 <_ZNSt12__basic_fileIcED1Ev@plt>:
    4470:	ff 25 aa ed 02 00    	jmp    *0x2edaa(%rip)        # 33220 <_ZNSt12__basic_fileIcED1Ev@GLIBCXX_3.4>
    4476:	68 44 00 00 00       	push   $0x44
    447b:	e9 a0 fb ff ff       	jmp    4020 <_init+0x20>

0000000000004480 <_ZNSt7__cxx1112basic_stringIcSt11char_traitsIcESaIcEE6appendEPKc@plt>:
    4480:	ff 25 a2 ed 02 00    	jmp    *0x2eda2(%rip)        # 33228 <_ZNSt7__cxx1112basic_stringIcSt11char_traitsIcESaIcEE6appendEPKc@GLIBCXX_3.4.21>
    4486:	68 45 00 00 00       	push   $0x45
    448b:	e9 90 fb ff ff       	jmp    4020 <_init+0x20>

0000000000004490 <_ZNSt6localeC1Ev@plt>:
    4490:	ff 25 9a ed 02 00    	jmp    *0x2ed9a(%rip)        # 33230 <_ZNSt6localeC1Ev@GLIBCXX_3.4>
    4496:	68 46 00 00 00       	push   $0x46
    449b:	e9 80 fb ff ff       	jmp    4020 <_init+0x20>

Disassembly of section .plt.got:

00000000000044a0 <__cxa_finalize@plt>:
    44a0:	ff 25 0a eb 02 00    	jmp    *0x2eb0a(%rip)        # 32fb0 <__cxa_finalize@GLIBC_2.2.5>
    44a6:	66 90                	xchg   %ax,%ax

Disassembly of section .text:

00000000000044b0 <_ZNK2ML18ConvolutionalLayer15computeThreadedERKNS_9LayerDataEm.cold>:
    44b0:	48 8b bc 24 98 00 00 	mov    0x98(%rsp),%rdi
    44b7:	00 
    44b8:	48 85 ff             	test   %rdi,%rdi
    44bb:	74 06                	je     44c3 <_ZNK2ML18ConvolutionalLayer15computeThreadedERKNS_9LayerDataEm.cold+0x13>
    44bd:	48 8b 07             	mov    (%rdi),%rax
    44c0:	ff 50 08             	call   *0x8(%rax)
    44c3:	4c 89 f8             	mov    %r15,%rax
    44c6:	48 39 c3             	cmp    %rax,%rbx
    44c9:	74 56                	je     4521 <_ZNK2ML18ConvolutionalLayer15computeThreadedERKNS_9LayerDataEm.cold+0x71>
    44cb:	48 83 38 00          	cmpq   $0x0,(%rax)
    44cf:	0f 85 4c 6c 00 00    	jne    b121 <_ZNK2ML18ConvolutionalLayer15computeThreadedERKNS_9LayerDataEm+0x451>
    44d5:	48 83 c0 08          	add    $0x8,%rax
    44d9:	eb eb                	jmp    44c6 <_ZNK2ML18ConvolutionalLayer15computeThreadedERKNS_9LayerDataEm.cold+0x16>
    44db:	48 8b bc 24 98 00 00 	mov    0x98(%rsp),%rdi
    44e2:	00 
    44e3:	48 85 ff             	test   %rdi,%rdi
    44e6:	75 4e                	jne    4536 <_ZNK2ML18ConvolutionalLayer15computeThreadedERKNS_9LayerDataEm.cold+0x86>
    44e8:	48 89 ef             	mov    %rbp,%rdi
    44eb:	e8 20 fc ff ff       	call   4110 <__cxa_begin_catch@plt>
    44f0:	48 83 7c 24 18 00    	cmpq   $0x0,0x18(%rsp)
    44f6:	74 0f                	je     4507 <_ZNK2ML18ConvolutionalLayer15computeThreadedERKNS_9LayerDataEm.cold+0x57>
    44f8:	48 8b 7c 24 18       	mov    0x18(%rsp),%rdi
    44fd:	e8 4e fd ff ff       	call   4250 <_ZdlPv@plt>
    4502:	e8 49 fe ff ff       	call   4350 <__cxa_rethrow@plt>
    4507:	48 8b 44 24 38       	mov    0x38(%rsp),%rax
    450c:	48 83 38 00          	cmpq   $0x0,(%rax)
    4510:	74 f0                	je     4502 <_ZNK2ML18ConvolutionalLayer15computeThreadedERKNS_9LayerDataEm.cold+0x52>
    4512:	e9 0a 6c 00 00       	jmp    b121 <_ZNK2ML18ConvolutionalLayer15computeThreadedERKNS_9LayerDataEm+0x451>
    4517:	48 89 c5             	mov    %rax,%rbp
    451a:	e8 c1 fe ff ff       	call   43e0 <__cxa_end_catch@plt>
    451f:	eb a2                	jmp    44c3 <_ZNK2ML18ConvolutionalLayer15computeThreadedERKNS_9LayerDataEm.cold+0x13>
    4521:	4d 85 ff             	test   %r15,%r15
    4524:	74 08                	je     452e <_ZNK2ML18ConvolutionalLayer15computeThreadedERKNS_9LayerDataEm.cold+0x7e>
    4526:	4c 89 ff             	mov    %r15,%rdi
    4529:	e8 22 fd ff ff       	call   4250 <_ZdlPv@plt>
    452e:	48 89 ef             	mov    %rbp,%rdi
    4531:	e8 1a ff ff ff       	call   4450 <_Unwind_Resume@plt>
    4536:	48 8b 07             	mov    (%rdi),%rax
    4539:	ff 50 08             	call   *0x8(%rax)
    453c:	eb aa                	jmp    44e8 <_ZNK2ML18ConvolutionalLayer15computeThreadedERKNS_9LayerDataEm.cold+0x38>

000000000000453e <_ZN2ML12FlattenLayerC2ERKNS_11LayerParamsES3_.cold>:
    453e:	48 8b 7c 24 58       	mov    0x58(%rsp),%rdi
    4543:	48 85 ff             	test   %rdi,%rdi
    4546:	74 20                	je     4568 <_ZN2ML12FlattenLayerC2ERKNS_11LayerParamsES3_.cold+0x2a>
    4548:	e8 03 fd ff ff       	call   4250 <_ZdlPv@plt>
    454d:	eb 19                	jmp    4568 <_ZN2ML12FlattenLayerC2ERKNS_11LayerParamsES3_.cold+0x2a>
    454f:	48 8b 7c 24 18       	mov    0x18(%rsp),%rdi
    4554:	48 85 ff             	test   %rdi,%rdi
    4557:	74 05                	je     455e <_ZN2ML12FlattenLayerC2ERKNS_11LayerParamsES3_.cold+0x20>
    4559:	e8 f2 fc ff ff       	call   4250 <_ZdlPv@plt>
    455e:	48 8d 7c 24 50       	lea    0x50(%rsp),%rdi
    4563:	e8 48 88 00 00       	call   cdb0 <_ZN2ML11LayerParamsD1Ev>
    4568:	48 89 df             	mov    %rbx,%rdi
    456b:	e8 e0 fe ff ff       	call   4450 <_Unwind_Resume@plt>
    4570:	48 8b 7b 10          	mov    0x10(%rbx),%rdi
    4574:	48 85 ff             	test   %rdi,%rdi
    4577:	74 05                	je     457e <_ZN2ML12FlattenLayerC2ERKNS_11LayerParamsES3_.cold+0x40>
    4579:	e8 d2 fc ff ff       	call   4250 <_ZdlPv@plt>
    457e:	48 89 eb             	mov    %rbp,%rbx
    4581:	48 8d 7c 24 10       	lea    0x10(%rsp),%rdi
    4586:	e8 25 88 00 00       	call   cdb0 <_ZN2ML11LayerParamsD1Ev>
    458b:	eb d1                	jmp    455e <_ZN2ML12FlattenLayerC2ERKNS_11LayerParamsES3_.cold+0x20>
    458d:	48 8b bb 90 00 00 00 	mov    0x90(%rbx),%rdi
    4594:	48 85 ff             	test   %rdi,%rdi
    4597:	74 05                	je     459e <_ZN2ML12FlattenLayerC2ERKNS_11LayerParamsES3_.cold+0x60>
    4599:	e8 b2 fc ff ff       	call   4250 <_ZdlPv@plt>
    459e:	48 8d 7b 48          	lea    0x48(%rbx),%rdi
    45a2:	e8 09 88 00 00       	call   cdb0 <_ZN2ML11LayerParamsD1Ev>
    45a7:	48 8d 7b 08          	lea    0x8(%rbx),%rdi
    45ab:	48 89 eb             	mov    %rbp,%rbx
    45ae:	e8 fd 87 00 00       	call   cdb0 <_ZN2ML11LayerParamsD1Ev>
    45b3:	eb cc                	jmp    4581 <_ZN2ML12FlattenLayerC2ERKNS_11LayerParamsES3_.cold+0x43>
    45b5:	48 8b 7b 50          	mov    0x50(%rbx),%rdi
    45b9:	48 85 ff             	test   %rdi,%rdi
    45bc:	74 e9                	je     45a7 <_ZN2ML12FlattenLayerC2ERKNS_11LayerParamsES3_.cold+0x69>
    45be:	e8 8d fc ff ff       	call   4250 <_ZdlPv@plt>
    45c3:	eb e2                	jmp    45a7 <_ZN2ML12FlattenLayerC2ERKNS_11LayerParamsES3_.cold+0x69>
    45c5:	90                   	nop

00000000000045c6 <_ZNK2ML11LayerParams12isCompatibleERKS0_.cold>:
    45c6:	bf 10 00 00 00       	mov    $0x10,%edi
    45cb:	e8 80 fb ff ff       	call   4150 <__cxa_allocate_exception@plt>
    45d0:	48 8d 35 d1 4b 02 00 	lea    0x24bd1(%rip),%rsi        # 291a8 <_ZTSN2ML12FlattenLayerE+0x18>
    45d7:	48 89 c7             	mov    %rax,%rdi
    45da:	48 89 c3             	mov    %rax,%rbx
    45dd:	e8 1e fb ff ff       	call   4100 <_ZNSt13runtime_errorC1EPKc@plt>
    45e2:	48 8b 15 d7 e9 02 00 	mov    0x2e9d7(%rip),%rdx        # 32fc0 <_ZNSt13runtime_errorD1Ev@GLIBCXX_3.4>
    45e9:	48 8d 35 10 e6 02 00 	lea    0x2e610(%rip),%rsi        # 32c00 <_ZTISt13runtime_error@GLIBCXX_3.4>
    45f0:	48 89 df             	mov    %rbx,%rdi
    45f3:	e8 38 fe ff ff       	call   4430 <__cxa_throw@plt>
    45f8:	bf 10 00 00 00       	mov    $0x10,%edi
    45fd:	e8 4e fb ff ff       	call   4150 <__cxa_allocate_exception@plt>
    4602:	48 8d 35 ef 4b 02 00 	lea    0x24bef(%rip),%rsi        # 291f8 <_ZTSN2ML12FlattenLayerE+0x68>
    4609:	48 89 c7             	mov    %rax,%rdi
    460c:	48 89 c3             	mov    %rax,%rbx
    460f:	e8 ec fa ff ff       	call   4100 <_ZNSt13runtime_errorC1EPKc@plt>
    4614:	48 8b 15 a5 e9 02 00 	mov    0x2e9a5(%rip),%rdx        # 32fc0 <_ZNSt13runtime_errorD1Ev@GLIBCXX_3.4>
    461b:	48 8d 35 de e5 02 00 	lea    0x2e5de(%rip),%rsi        # 32c00 <_ZTISt13runtime_error@GLIBCXX_3.4>
    4622:	48 89 df             	mov    %rbx,%rdi
    4625:	e8 06 fe ff ff       	call   4430 <__cxa_throw@plt>
    462a:	bf 10 00 00 00       	mov    $0x10,%edi
    462f:	e8 1c fb ff ff       	call   4150 <__cxa_allocate_exception@plt>
    4634:	48 8d 35 95 4b 02 00 	lea    0x24b95(%rip),%rsi        # 291d0 <_ZTSN2ML12FlattenLayerE+0x40>
    463b:	48 89 c7             	mov    %rax,%rdi
    463e:	48 89 c3             	mov    %rax,%rbx
    4641:	e8 ba fa ff ff       	call   4100 <_ZNSt13runtime_errorC1EPKc@plt>
    4646:	48 8b 15 73 e9 02 00 	mov    0x2e973(%rip),%rdx        # 32fc0 <_ZNSt13runtime_errorD1Ev@GLIBCXX_3.4>
    464d:	48 8d 35 ac e5 02 00 	lea    0x2e5ac(%rip),%rsi        # 32c00 <_ZTISt13runtime_error@GLIBCXX_3.4>
    4654:	48 89 df             	mov    %rbx,%rdi
    4657:	e8 d4 fd ff ff       	call   4430 <__cxa_throw@plt>
    465c:	48 89 c5             	mov    %rax,%rbp
    465f:	48 89 df             	mov    %rbx,%rdi
    4662:	e8 79 fb ff ff       	call   41e0 <__cxa_free_exception@plt>
    4667:	48 89 ef             	mov    %rbp,%rdi
    466a:	e8 e1 fd ff ff       	call   4450 <_Unwind_Resume@plt>
    466f:	48 89 c5             	mov    %rax,%rbp
    4672:	48 89 df             	mov    %rbx,%rdi
    4675:	e8 66 fb ff ff       	call   41e0 <__cxa_free_exception@plt>
    467a:	48 89 ef             	mov    %rbp,%rdi
    467d:	e8 ce fd ff ff       	call   4450 <_Unwind_Resume@plt>
    4682:	48 89 c5             	mov    %rax,%rbp
    4685:	48 89 df             	mov    %rbx,%rdi
    4688:	e8 53 fb ff ff       	call   41e0 <__cxa_free_exception@plt>
    468d:	48 89 ef             	mov    %rbp,%rdi
    4690:	e8 bb fd ff ff       	call   4450 <_Unwind_Resume@plt>
    4695:	90                   	nop

0000000000004696 <_ZNK2ML5Layer27checkDataInputCompatibilityERKNS_9LayerDataE.cold>:
    4696:	bf 10 00 00 00       	mov    $0x10,%edi
    469b:	e8 b0 fa ff ff       	call   4150 <__cxa_allocate_exception@plt>
    46a0:	48 8d 35 01 4b 02 00 	lea    0x24b01(%rip),%rsi        # 291a8 <_ZTSN2ML12FlattenLayerE+0x18>
    46a7:	48 89 c7             	mov    %rax,%rdi
    46aa:	48 89 c3             	mov    %rax,%rbx
    46ad:	e8 4e fa ff ff       	call   4100 <_ZNSt13runtime_errorC1EPKc@plt>
    46b2:	48 8b 15 07 e9 02 00 	mov    0x2e907(%rip),%rdx        # 32fc0 <_ZNSt13runtime_errorD1Ev@GLIBCXX_3.4>
    46b9:	48 8d 35 40 e5 02 00 	lea    0x2e540(%rip),%rsi        # 32c00 <_ZTISt13runtime_error@GLIBCXX_3.4>
    46c0:	48 89 df             	mov    %rbx,%rdi
    46c3:	e8 68 fd ff ff       	call   4430 <__cxa_throw@plt>
    46c8:	bf 10 00 00 00       	mov    $0x10,%edi
    46cd:	e8 7e fa ff ff       	call   4150 <__cxa_allocate_exception@plt>
    46d2:	48 8d 35 1f 4b 02 00 	lea    0x24b1f(%rip),%rsi        # 291f8 <_ZTSN2ML12FlattenLayerE+0x68>
    46d9:	48 89 c7             	mov    %rax,%rdi
    46dc:	48 89 c3             	mov    %rax,%rbx
    46df:	e8 1c fa ff ff       	call   4100 <_ZNSt13runtime_errorC1EPKc@plt>
    46e4:	48 8b 15 d5 e8 02 00 	mov    0x2e8d5(%rip),%rdx        # 32fc0 <_ZNSt13runtime_errorD1Ev@GLIBCXX_3.4>
    46eb:	48 8d 35 0e e5 02 00 	lea    0x2e50e(%rip),%rsi        # 32c00 <_ZTISt13runtime_error@GLIBCXX_3.4>
    46f2:	48 89 df             	mov    %rbx,%rdi
    46f5:	e8 36 fd ff ff       	call   4430 <__cxa_throw@plt>
    46fa:	bf 10 00 00 00       	mov    $0x10,%edi
    46ff:	e8 4c fa ff ff       	call   4150 <__cxa_allocate_exception@plt>
    4704:	48 8d 35 c5 4a 02 00 	lea    0x24ac5(%rip),%rsi        # 291d0 <_ZTSN2ML12FlattenLayerE+0x40>
    470b:	48 89 c7             	mov    %rax,%rdi
    470e:	48 89 c3             	mov    %rax,%rbx
    4711:	e8 ea f9 ff ff       	call   4100 <_ZNSt13runtime_errorC1EPKc@plt>
    4716:	48 8b 15 a3 e8 02 00 	mov    0x2e8a3(%rip),%rdx        # 32fc0 <_ZNSt13runtime_errorD1Ev@GLIBCXX_3.4>
    471d:	48 8d 35 dc e4 02 00 	lea    0x2e4dc(%rip),%rsi        # 32c00 <_ZTISt13runtime_error@GLIBCXX_3.4>
    4724:	48 89 df             	mov    %rbx,%rdi
    4727:	e8 04 fd ff ff       	call   4430 <__cxa_throw@plt>
    472c:	48 89 c5             	mov    %rax,%rbp
    472f:	48 89 df             	mov    %rbx,%rdi
    4732:	e8 a9 fa ff ff       	call   41e0 <__cxa_free_exception@plt>
    4737:	48 89 ef             	mov    %rbp,%rdi
    473a:	e8 11 fd ff ff       	call   4450 <_Unwind_Resume@plt>
    473f:	48 89 c5             	mov    %rax,%rbp
    4742:	48 89 df             	mov    %rbx,%rdi
    4745:	e8 96 fa ff ff       	call   41e0 <__cxa_free_exception@plt>
    474a:	48 89 ef             	mov    %rbp,%rdi
    474d:	e8 fe fc ff ff       	call   4450 <_Unwind_Resume@plt>
    4752:	48 89 c5             	mov    %rax,%rbp
    4755:	48 89 df             	mov    %rbx,%rdi
    4758:	e8 83 fa ff ff       	call   41e0 <__cxa_free_exception@plt>
    475d:	48 89 ef             	mov    %rbp,%rdi
    4760:	e8 eb fc ff ff       	call   4450 <_Unwind_Resume@plt>
    4765:	90                   	nop

0000000000004766 <_ZN2ML15MaxPoolingLayerC2ERKNS_11LayerParamsES3_.cold>:
    4766:	48 8b 7c 24 58       	mov    0x58(%rsp),%rdi
    476b:	48 85 ff             	test   %rdi,%rdi
    476e:	74 20                	je     4790 <_ZN2ML15MaxPoolingLayerC2ERKNS_11LayerParamsES3_.cold+0x2a>
    4770:	e8 db fa ff ff       	call   4250 <_ZdlPv@plt>
    4775:	eb 19                	jmp    4790 <_ZN2ML15MaxPoolingLayerC2ERKNS_11LayerParamsES3_.cold+0x2a>
    4777:	48 8b 7c 24 18       	mov    0x18(%rsp),%rdi
    477c:	48 85 ff             	test   %rdi,%rdi
    477f:	74 05                	je     4786 <_ZN2ML15MaxPoolingLayerC2ERKNS_11LayerParamsES3_.cold+0x20>
    4781:	e8 ca fa ff ff       	call   4250 <_ZdlPv@plt>
    4786:	48 8d 7c 24 50       	lea    0x50(%rsp),%rdi
    478b:	e8 20 86 00 00       	call   cdb0 <_ZN2ML11LayerParamsD1Ev>
    4790:	48 89 df             	mov    %rbx,%rdi
    4793:	e8 b8 fc ff ff       	call   4450 <_Unwind_Resume@plt>
    4798:	48 8b 7b 10          	mov    0x10(%rbx),%rdi
    479c:	48 85 ff             	test   %rdi,%rdi
    479f:	74 05                	je     47a6 <_ZN2ML15MaxPoolingLayerC2ERKNS_11LayerParamsES3_.cold+0x40>
    47a1:	e8 aa fa ff ff       	call   4250 <_ZdlPv@plt>
    47a6:	48 89 eb             	mov    %rbp,%rbx
    47a9:	48 8d 7c 24 10       	lea    0x10(%rsp),%rdi
    47ae:	e8 fd 85 00 00       	call   cdb0 <_ZN2ML11LayerParamsD1Ev>
    47b3:	eb d1                	jmp    4786 <_ZN2ML15MaxPoolingLayerC2ERKNS_11LayerParamsES3_.cold+0x20>
    47b5:	48 8b bb 90 00 00 00 	mov    0x90(%rbx),%rdi
    47bc:	48 85 ff             	test   %rdi,%rdi
    47bf:	74 05                	je     47c6 <_ZN2ML15MaxPoolingLayerC2ERKNS_11LayerParamsES3_.cold+0x60>
    47c1:	e8 8a fa ff ff       	call   4250 <_ZdlPv@plt>
    47c6:	48 8d 7b 48          	lea    0x48(%rbx),%rdi
    47ca:	e8 e1 85 00 00       	call   cdb0 <_ZN2ML11LayerParamsD1Ev>
    47cf:	48 8d 7b 08          	lea    0x8(%rbx),%rdi
    47d3:	48 89 eb             	mov    %rbp,%rbx
    47d6:	e8 d5 85 00 00       	call   cdb0 <_ZN2ML11LayerParamsD1Ev>
    47db:	eb cc                	jmp    47a9 <_ZN2ML15MaxPoolingLayerC2ERKNS_11LayerParamsES3_.cold+0x43>
    47dd:	48 8b 7b 50          	mov    0x50(%rbx),%rdi
    47e1:	48 85 ff             	test   %rdi,%rdi
    47e4:	74 e9                	je     47cf <_ZN2ML15MaxPoolingLayerC2ERKNS_11LayerParamsES3_.cold+0x69>
    47e6:	e8 65 fa ff ff       	call   4250 <_ZdlPv@plt>
    47eb:	eb e2                	jmp    47cf <_ZN2ML15MaxPoolingLayerC2ERKNS_11LayerParamsES3_.cold+0x69>
    47ed:	90                   	nop

00000000000047ee <_ZN2ML12SoftmaxLayerC2ERKNS_11LayerParamsES3_.cold>:
    47ee:	48 8b 7c 24 58       	mov    0x58(%rsp),%rdi
    47f3:	48 85 ff             	test   %rdi,%rdi
    47f6:	74 20                	je     4818 <_ZN2ML12SoftmaxLayerC2ERKNS_11LayerParamsES3_.cold+0x2a>
    47f8:	e8 53 fa ff ff       	call   4250 <_ZdlPv@plt>
    47fd:	eb 19                	jmp    4818 <_ZN2ML12SoftmaxLayerC2ERKNS_11LayerParamsES3_.cold+0x2a>
    47ff:	48 8b 7c 24 18       	mov    0x18(%rsp),%rdi
    4804:	48 85 ff             	test   %rdi,%rdi
    4807:	74 05                	je     480e <_ZN2ML12SoftmaxLayerC2ERKNS_11LayerParamsES3_.cold+0x20>
    4809:	e8 42 fa ff ff       	call   4250 <_ZdlPv@plt>
    480e:	48 8d 7c 24 50       	lea    0x50(%rsp),%rdi
    4813:	e8 98 85 00 00       	call   cdb0 <_ZN2ML11LayerParamsD1Ev>
    4818:	48 89 df             	mov    %rbx,%rdi
    481b:	e8 30 fc ff ff       	call   4450 <_Unwind_Resume@plt>
    4820:	48 8b 7b 10          	mov    0x10(%rbx),%rdi
    4824:	48 85 ff             	test   %rdi,%rdi
    4827:	74 05                	je     482e <_ZN2ML12SoftmaxLayerC2ERKNS_11LayerParamsES3_.cold+0x40>
    4829:	e8 22 fa ff ff       	call   4250 <_ZdlPv@plt>
    482e:	48 89 eb             	mov    %rbp,%rbx
    4831:	48 8d 7c 24 10       	lea    0x10(%rsp),%rdi
    4836:	e8 75 85 00 00       	call   cdb0 <_ZN2ML11LayerParamsD1Ev>
    483b:	eb d1                	jmp    480e <_ZN2ML12SoftmaxLayerC2ERKNS_11LayerParamsES3_.cold+0x20>
    483d:	48 8b bb 90 00 00 00 	mov    0x90(%rbx),%rdi
    4844:	48 85 ff             	test   %rdi,%rdi
    4847:	74 05                	je     484e <_ZN2ML12SoftmaxLayerC2ERKNS_11LayerParamsES3_.cold+0x60>
    4849:	e8 02 fa ff ff       	call   4250 <_ZdlPv@plt>
    484e:	48 8d 7b 48          	lea    0x48(%rbx),%rdi
    4852:	e8 59 85 00 00       	call   cdb0 <_ZN2ML11LayerParamsD1Ev>
    4857:	48 8d 7b 08          	lea    0x8(%rbx),%rdi
    485b:	48 89 eb             	mov    %rbp,%rbx
    485e:	e8 4d 85 00 00       	call   cdb0 <_ZN2ML11LayerParamsD1Ev>
    4863:	eb cc                	jmp    4831 <_ZN2ML12SoftmaxLayerC2ERKNS_11LayerParamsES3_.cold+0x43>
    4865:	48 8b 7b 50          	mov    0x50(%rbx),%rdi
    4869:	48 85 ff             	test   %rdi,%rdi
    486c:	74 e9                	je     4857 <_ZN2ML12SoftmaxLayerC2ERKNS_11LayerParamsES3_.cold+0x69>
    486e:	e8 dd f9 ff ff       	call   4250 <_ZdlPv@plt>
    4873:	eb e2                	jmp    4857 <_ZN2ML12SoftmaxLayerC2ERKNS_11LayerParamsES3_.cold+0x69>
    4875:	90                   	nop

0000000000004876 <_ZN2ML9LayerData9allocDataEv.part.0.cold>:
    4876:	e8 c5 fa ff ff       	call   4340 <__cxa_throw_bad_array_new_length@plt>
    487b:	90                   	nop

000000000000487c <_ZNSt6vectorImSaImEEC2ESt16initializer_listImERKS0_.constprop.3.cold>:
    487c:	48 8b 3b             	mov    (%rbx),%rdi
    487f:	48 85 ff             	test   %rdi,%rdi
    4882:	74 05                	je     4889 <_ZNSt6vectorImSaImEEC2ESt16initializer_listImERKS0_.constprop.3.cold+0xd>
    4884:	e8 c7 f9 ff ff       	call   4250 <_ZdlPv@plt>
    4889:	48 89 ef             	mov    %rbp,%rdi
    488c:	e8 bf fb ff ff       	call   4450 <_Unwind_Resume@plt>
    4891:	90                   	nop

0000000000004892 <_ZNSt6vectorImSaImEEC2ESt16initializer_listImERKS0_.constprop.2.cold>:
    4892:	48 8b 3b             	mov    (%rbx),%rdi
    4895:	48 85 ff             	test   %rdi,%rdi
    4898:	74 05                	je     489f <_ZNSt6vectorImSaImEEC2ESt16initializer_listImERKS0_.constprop.2.cold+0xd>
    489a:	e8 b1 f9 ff ff       	call   4250 <_ZdlPv@plt>
    489f:	48 89 ef             	mov    %rbp,%rdi
    48a2:	e8 a9 fb ff ff       	call   4450 <_Unwind_Resume@plt>
    48a7:	90                   	nop

00000000000048a8 <_ZNSt6vectorImSaImEEC2ESt16initializer_listImERKS0_.constprop.1.cold>:
    48a8:	48 8b 3b             	mov    (%rbx),%rdi
    48ab:	48 85 ff             	test   %rdi,%rdi
    48ae:	74 05                	je     48b5 <_ZNSt6vectorImSaImEEC2ESt16initializer_listImERKS0_.constprop.1.cold+0xd>
    48b0:	e8 9b f9 ff ff       	call   4250 <_ZdlPv@plt>
    48b5:	48 89 ef             	mov    %rbp,%rdi
    48b8:	e8 93 fb ff ff       	call   4450 <_Unwind_Resume@plt>
    48bd:	90                   	nop

00000000000048be <_ZNSt6vectorImSaImEEC2ESt16initializer_listImERKS0_.constprop.0.cold>:
    48be:	48 8b 3b             	mov    (%rbx),%rdi
    48c1:	48 85 ff             	test   %rdi,%rdi
    48c4:	74 05                	je     48cb <_ZNSt6vectorImSaImEEC2ESt16initializer_listImERKS0_.constprop.0.cold+0xd>
    48c6:	e8 85 f9 ff ff       	call   4250 <_ZdlPv@plt>
    48cb:	48 89 ef             	mov    %rbp,%rdi
    48ce:	e8 7d fb ff ff       	call   4450 <_Unwind_Resume@plt>
    48d3:	90                   	nop

00000000000048d4 <_ZN2ML11LayerParamsC2EmSt6vectorImSaImEENS_4PathE.constprop.2.cold>:
    48d4:	48 8b 7b 08          	mov    0x8(%rbx),%rdi
    48d8:	48 85 ff             	test   %rdi,%rdi
    48db:	74 05                	je     48e2 <_ZN2ML11LayerParamsC2EmSt6vectorImSaImEENS_4PathE.constprop.2.cold+0xe>
    48dd:	e8 6e f9 ff ff       	call   4250 <_ZdlPv@plt>
    48e2:	48 89 ef             	mov    %rbp,%rdi
    48e5:	e8 66 fb ff ff       	call   4450 <_Unwind_Resume@plt>

00000000000048ea <_ZN2ML11LayerParamsC2EmSt6vectorImSaImEENS_4PathE.constprop.0.cold>:
    48ea:	48 8b 7b 08          	mov    0x8(%rbx),%rdi
    48ee:	48 85 ff             	test   %rdi,%rdi
    48f1:	74 05                	je     48f8 <_ZN2ML11LayerParamsC2EmSt6vectorImSaImEENS_4PathE.constprop.0.cold+0xe>
    48f3:	e8 58 f9 ff ff       	call   4250 <_ZdlPv@plt>
    48f8:	48 89 ef             	mov    %rbp,%rdi
    48fb:	e8 50 fb ff ff       	call   4450 <_Unwind_Resume@plt>

0000000000004900 <_ZN2ML11LayerParamsC2EmSt6vectorImSaImEENS_4PathE.constprop.1.cold>:
    4900:	48 8b 7b 08          	mov    0x8(%rbx),%rdi
    4904:	48 85 ff             	test   %rdi,%rdi
    4907:	74 05                	je     490e <_ZN2ML11LayerParamsC2EmSt6vectorImSaImEENS_4PathE.constprop.1.cold+0xe>
    4909:	e8 42 f9 ff ff       	call   4250 <_ZdlPv@plt>
    490e:	48 89 ef             	mov    %rbp,%rdi
    4911:	e8 3a fb ff ff       	call   4450 <_Unwind_Resume@plt>

0000000000004916 <_ZN2ML11LayerParamsC2EmSt6vectorImSaImEE.constprop.0.cold>:
    4916:	4d 85 ed             	test   %r13,%r13
    4919:	74 08                	je     4923 <_ZN2ML11LayerParamsC2EmSt6vectorImSaImEE.constprop.0.cold+0xd>
    491b:	4c 89 ef             	mov    %r13,%rdi
    491e:	e8 2d f9 ff ff       	call   4250 <_ZdlPv@plt>
    4923:	48 8b 7c 24 20       	mov    0x20(%rsp),%rdi
    4928:	4c 39 e7             	cmp    %r12,%rdi
    492b:	74 05                	je     4932 <_ZN2ML11LayerParamsC2EmSt6vectorImSaImEE.constprop.0.cold+0x1c>
    492d:	e8 1e f9 ff ff       	call   4250 <_ZdlPv@plt>
    4932:	48 89 df             	mov    %rbx,%rdi
    4935:	e8 16 fb ff ff       	call   4450 <_Unwind_Resume@plt>

000000000000493a <_ZN2ML11LayerParamsC2EmSt6vectorImSaImEE.constprop.1.cold>:
    493a:	4d 85 ed             	test   %r13,%r13
    493d:	74 08                	je     4947 <_ZN2ML11LayerParamsC2EmSt6vectorImSaImEE.constprop.1.cold+0xd>
    493f:	4c 89 ef             	mov    %r13,%rdi
    4942:	e8 09 f9 ff ff       	call   4250 <_ZdlPv@plt>
    4947:	48 8b 7c 24 20       	mov    0x20(%rsp),%rdi
    494c:	4c 39 e7             	cmp    %r12,%rdi
    494f:	74 05                	je     4956 <_ZN2ML11LayerParamsC2EmSt6vectorImSaImEE.constprop.1.cold+0x1c>
    4951:	e8 fa f8 ff ff       	call   4250 <_ZdlPv@plt>
    4956:	48 89 df             	mov    %rbx,%rdi
    4959:	e8 f2 fa ff ff       	call   4450 <_Unwind_Resume@plt>

000000000000495e <_ZN2ML17getLayerInputPathERKNS_4PathEi.cold>:
    495e:	48 8b 7c 24 40       	mov    0x40(%rsp),%rdi
    4963:	4c 39 ef             	cmp    %r13,%rdi
    4966:	74 05                	je     496d <_ZN2ML17getLayerInputPathERKNS_4PathEi.cold+0xf>
    4968:	e8 e3 f8 ff ff       	call   4250 <_ZdlPv@plt>
    496d:	48 8b 7c 24 20       	mov    0x20(%rsp),%rdi
    4972:	48 8d 44 24 30       	lea    0x30(%rsp),%rax
    4977:	48 39 c7             	cmp    %rax,%rdi
    497a:	74 05                	je     4981 <_ZN2ML17getLayerInputPathERKNS_4PathEi.cold+0x23>
    497c:	e8 cf f8 ff ff       	call   4250 <_ZdlPv@plt>
    4981:	48 89 df             	mov    %rbx,%rdi
    4984:	e8 c7 fa ff ff       	call   4450 <_Unwind_Resume@plt>
    4989:	48 8b 7c 24 40       	mov    0x40(%rsp),%rdi
    498e:	4c 39 ef             	cmp    %r13,%rdi
    4991:	74 05                	je     4998 <_ZN2ML17getLayerInputPathERKNS_4PathEi.cold+0x3a>
    4993:	e8 b8 f8 ff ff       	call   4250 <_ZdlPv@plt>
    4998:	48 8b 3c 24          	mov    (%rsp),%rdi
    499c:	48 8d 44 24 10       	lea    0x10(%rsp),%rax
    49a1:	48 39 c7             	cmp    %rax,%rdi
    49a4:	74 05                	je     49ab <_ZN2ML17getLayerInputPathERKNS_4PathEi.cold+0x4d>
    49a6:	e8 a5 f8 ff ff       	call   4250 <_ZdlPv@plt>
    49ab:	48 89 df             	mov    %rbx,%rdi
    49ae:	e8 9d fa ff ff       	call   4450 <_Unwind_Resume@plt>

00000000000049b3 <_ZN2ML15buildMixedModelEv.cold>:
    49b3:	4c 89 e7             	mov    %r12,%rdi
    49b6:	e8 f5 83 00 00       	call   cdb0 <_ZN2ML11LayerParamsD1Ev>
    49bb:	48 8b bc 24 c0 00 00 	mov    0xc0(%rsp),%rdi
    49c2:	00 
    49c3:	48 85 ff             	test   %rdi,%rdi
    49c6:	74 05                	je     49cd <_ZN2ML15buildMixedModelEv.cold+0x1a>
    49c8:	e8 83 f8 ff ff       	call   4250 <_ZdlPv@plt>
    49cd:	48 89 ef             	mov    %rbp,%rdi
    49d0:	4c 89 ed             	mov    %r13,%rbp
    49d3:	e8 d8 83 00 00       	call   cdb0 <_ZN2ML11LayerParamsD1Ev>
    49d8:	48 8b bc 24 00 01 00 	mov    0x100(%rsp),%rdi
    49df:	00 
    49e0:	48 85 ff             	test   %rdi,%rdi
    49e3:	75 75                	jne    4a5a <_ZN2ML15buildMixedModelEv.cold+0xa7>
    49e5:	4c 89 f7             	mov    %r14,%rdi
    49e8:	e8 c3 83 00 00       	call   cdb0 <_ZN2ML11LayerParamsD1Ev>
    49ed:	48 8b bc 24 80 01 00 	mov    0x180(%rsp),%rdi
    49f4:	00 
    49f5:	48 8b 44 24 40       	mov    0x40(%rsp),%rax
    49fa:	48 39 c7             	cmp    %rax,%rdi
    49fd:	74 05                	je     4a04 <_ZN2ML15buildMixedModelEv.cold+0x51>
    49ff:	e8 4c f8 ff ff       	call   4250 <_ZdlPv@plt>
    4a04:	48 8b bc 24 20 01 00 	mov    0x120(%rsp),%rdi
    4a0b:	00 
    4a0c:	48 85 ff             	test   %rdi,%rdi
    4a0f:	74 05                	je     4a16 <_ZN2ML15buildMixedModelEv.cold+0x63>
    4a11:	e8 3a f8 ff ff       	call   4250 <_ZdlPv@plt>
    4a16:	48 89 df             	mov    %rbx,%rdi
    4a19:	48 89 eb             	mov    %rbp,%rbx
    4a1c:	e8 8f 83 00 00       	call   cdb0 <_ZN2ML11LayerParamsD1Ev>
    4a21:	48 8b bc 24 a0 01 00 	mov    0x1a0(%rsp),%rdi
    4a28:	00 
    4a29:	48 8b 44 24 48       	mov    0x48(%rsp),%rax
    4a2e:	48 39 c7             	cmp    %rax,%rdi
    4a31:	74 05                	je     4a38 <_ZN2ML15buildMixedModelEv.cold+0x85>
    4a33:	e8 18 f8 ff ff       	call   4250 <_ZdlPv@plt>
    4a38:	48 8b bc 24 40 01 00 	mov    0x140(%rsp),%rdi
    4a3f:	00 
    4a40:	48 85 ff             	test   %rdi,%rdi
    4a43:	74 05                	je     4a4a <_ZN2ML15buildMixedModelEv.cold+0x97>
    4a45:	e8 06 f8 ff ff       	call   4250 <_ZdlPv@plt>
    4a4a:	4c 89 ff             	mov    %r15,%rdi
    4a4d:	e8 ce 26 02 00       	call   27120 <_ZNSt6vectorISt10unique_ptrIN2ML5LayerESt14default_deleteIS2_EESaIS5_EED1Ev>
    4a52:	48 89 df             	mov    %rbx,%rdi
    4a55:	e8 f6 f9 ff ff       	call   4450 <_Unwind_Resume@plt>
    4a5a:	e8 f1 f7 ff ff       	call   4250 <_ZdlPv@plt>
    4a5f:	eb 84                	jmp    49e5 <_ZN2ML15buildMixedModelEv.cold+0x32>
    4a61:	48 8b 7c 24 68       	mov    0x68(%rsp),%rdi
    4a66:	e8 e5 f7 ff ff       	call   4250 <_ZdlPv@plt>
    4a6b:	4c 89 f7             	mov    %r14,%rdi
    4a6e:	e8 3d 83 00 00       	call   cdb0 <_ZN2ML11LayerParamsD1Ev>
    4a73:	48 8b bc 24 c0 01 00 	mov    0x1c0(%rsp),%rdi
    4a7a:	00 
    4a7b:	48 85 ff             	test   %rdi,%rdi
    4a7e:	74 05                	je     4a85 <_ZN2ML15buildMixedModelEv.cold+0xd2>
    4a80:	e8 cb f7 ff ff       	call   4250 <_ZdlPv@plt>
    4a85:	48 89 df             	mov    %rbx,%rdi
    4a88:	48 89 eb             	mov    %rbp,%rbx
    4a8b:	e8 20 83 00 00       	call   cdb0 <_ZN2ML11LayerParamsD1Ev>
    4a90:	48 8b bc 24 00 02 00 	mov    0x200(%rsp),%rdi
    4a97:	00 
    4a98:	48 85 ff             	test   %rdi,%rdi
    4a9b:	74 ad                	je     4a4a <_ZN2ML15buildMixedModelEv.cold+0x97>
    4a9d:	e8 ae f7 ff ff       	call   4250 <_ZdlPv@plt>
    4aa2:	eb a6                	jmp    4a4a <_ZN2ML15buildMixedModelEv.cold+0x97>
    4aa4:	4c 89 e7             	mov    %r12,%rdi
    4aa7:	e8 a4 f7 ff ff       	call   4250 <_ZdlPv@plt>
    4aac:	4c 89 f7             	mov    %r14,%rdi
    4aaf:	e8 fc 82 00 00       	call   cdb0 <_ZN2ML11LayerParamsD1Ev>
    4ab4:	48 8b bc 24 c0 01 00 	mov    0x1c0(%rsp),%rdi
    4abb:	00 
    4abc:	48 85 ff             	test   %rdi,%rdi
    4abf:	74 05                	je     4ac6 <_ZN2ML15buildMixedModelEv.cold+0x113>
    4ac1:	e8 8a f7 ff ff       	call   4250 <_ZdlPv@plt>
    4ac6:	48 89 df             	mov    %rbx,%rdi
    4ac9:	48 89 eb             	mov    %rbp,%rbx
    4acc:	e8 df 82 00 00       	call   cdb0 <_ZN2ML11LayerParamsD1Ev>
    4ad1:	48 8b bc 24 00 02 00 	mov    0x200(%rsp),%rdi
    4ad8:	00 
    4ad9:	48 85 ff             	test   %rdi,%rdi
    4adc:	0f 84 68 ff ff ff    	je     4a4a <_ZN2ML15buildMixedModelEv.cold+0x97>
    4ae2:	e8 69 f7 ff ff       	call   4250 <_ZdlPv@plt>
    4ae7:	e9 5e ff ff ff       	jmp    4a4a <_ZN2ML15buildMixedModelEv.cold+0x97>
    4aec:	4c 89 e7             	mov    %r12,%rdi
    4aef:	e8 bc 82 00 00       	call   cdb0 <_ZN2ML11LayerParamsD1Ev>
    4af4:	48 8b bc 24 c0 00 00 	mov    0xc0(%rsp),%rdi
    4afb:	00 
    4afc:	48 85 ff             	test   %rdi,%rdi
    4aff:	74 05                	je     4b06 <_ZN2ML15buildMixedModelEv.cold+0x153>
    4b01:	e8 4a f7 ff ff       	call   4250 <_ZdlPv@plt>
    4b06:	48 89 ef             	mov    %rbp,%rdi
    4b09:	4c 89 ed             	mov    %r13,%rbp
    4b0c:	e8 9f 82 00 00       	call   cdb0 <_ZN2ML11LayerParamsD1Ev>
    4b11:	48 8b bc 24 00 01 00 	mov    0x100(%rsp),%rdi
    4b18:	00 
    4b19:	48 85 ff             	test   %rdi,%rdi
    4b1c:	75 6e                	jne    4b8c <_ZN2ML15buildMixedModelEv.cold+0x1d9>
    4b1e:	4c 89 f7             	mov    %r14,%rdi
    4b21:	e8 8a 82 00 00       	call   cdb0 <_ZN2ML11LayerParamsD1Ev>
    4b26:	48 8b bc 24 80 01 00 	mov    0x180(%rsp),%rdi
    4b2d:	00 
    4b2e:	48 8b 44 24 40       	mov    0x40(%rsp),%rax
    4b33:	48 39 c7             	cmp    %rax,%rdi
    4b36:	74 05                	je     4b3d <_ZN2ML15buildMixedModelEv.cold+0x18a>
    4b38:	e8 13 f7 ff ff       	call   4250 <_ZdlPv@plt>
    4b3d:	48 8b bc 24 20 01 00 	mov    0x120(%rsp),%rdi
    4b44:	00 
    4b45:	48 85 ff             	test   %rdi,%rdi
    4b48:	74 05                	je     4b4f <_ZN2ML15buildMixedModelEv.cold+0x19c>
    4b4a:	e8 01 f7 ff ff       	call   4250 <_ZdlPv@plt>
    4b4f:	48 89 df             	mov    %rbx,%rdi
    4b52:	48 89 eb             	mov    %rbp,%rbx
    4b55:	e8 56 82 00 00       	call   cdb0 <_ZN2ML11LayerParamsD1Ev>
    4b5a:	48 8b bc 24 a0 01 00 	mov    0x1a0(%rsp),%rdi
    4b61:	00 
    4b62:	48 8b 44 24 48       	mov    0x48(%rsp),%rax
    4b67:	48 39 c7             	cmp    %rax,%rdi
    4b6a:	74 05                	je     4b71 <_ZN2ML15buildMixedModelEv.cold+0x1be>
    4b6c:	e8 df f6 ff ff       	call   4250 <_ZdlPv@plt>
    4b71:	48 8b bc 24 40 01 00 	mov    0x140(%rsp),%rdi
    4b78:	00 
    4b79:	48 85 ff             	test   %rdi,%rdi
    4b7c:	0f 84 c8 fe ff ff    	je     4a4a <_ZN2ML15buildMixedModelEv.cold+0x97>
    4b82:	e8 c9 f6 ff ff       	call   4250 <_ZdlPv@plt>
    4b87:	e9 be fe ff ff       	jmp    4a4a <_ZN2ML15buildMixedModelEv.cold+0x97>
    4b8c:	e8 bf f6 ff ff       	call   4250 <_ZdlPv@plt>
    4b91:	eb 8b                	jmp    4b1e <_ZN2ML15buildMixedModelEv.cold+0x16b>
    4b93:	4c 89 e7             	mov    %r12,%rdi
    4b96:	e8 15 82 00 00       	call   cdb0 <_ZN2ML11LayerParamsD1Ev>
    4b9b:	48 8b bc 24 00 01 00 	mov    0x100(%rsp),%rdi
    4ba2:	00 
    4ba3:	48 85 ff             	test   %rdi,%rdi
    4ba6:	74 05                	je     4bad <_ZN2ML15buildMixedModelEv.cold+0x1fa>
    4ba8:	e8 a3 f6 ff ff       	call   4250 <_ZdlPv@plt>
    4bad:	48 89 ef             	mov    %rbp,%rdi
    4bb0:	4c 89 ed             	mov    %r13,%rbp
    4bb3:	e8 f8 81 00 00       	call   cdb0 <_ZN2ML11LayerParamsD1Ev>
    4bb8:	48 8b bc 24 20 01 00 	mov    0x120(%rsp),%rdi
    4bbf:	00 
    4bc0:	48 85 ff             	test   %rdi,%rdi
    4bc3:	0f 85 13 01 00 00    	jne    4cdc <_ZN2ML15buildMixedModelEv.cold+0x329>
    4bc9:	4c 89 f7             	mov    %r14,%rdi
    4bcc:	e8 df 81 00 00       	call   cdb0 <_ZN2ML11LayerParamsD1Ev>
    4bd1:	48 8b bc 24 80 01 00 	mov    0x180(%rsp),%rdi
    4bd8:	00 
    4bd9:	48 8b 44 24 40       	mov    0x40(%rsp),%rax
    4bde:	48 39 c7             	cmp    %rax,%rdi
    4be1:	74 05                	je     4be8 <_ZN2ML15buildMixedModelEv.cold+0x235>
    4be3:	e8 68 f6 ff ff       	call   4250 <_ZdlPv@plt>
    4be8:	48 8b bc 24 40 01 00 	mov    0x140(%rsp),%rdi
    4bef:	00 
    4bf0:	48 85 ff             	test   %rdi,%rdi
    4bf3:	74 05                	je     4bfa <_ZN2ML15buildMixedModelEv.cold+0x247>
    4bf5:	e8 56 f6 ff ff       	call   4250 <_ZdlPv@plt>
    4bfa:	48 89 df             	mov    %rbx,%rdi
    4bfd:	48 89 eb             	mov    %rbp,%rbx
    4c00:	e8 ab 81 00 00       	call   cdb0 <_ZN2ML11LayerParamsD1Ev>
    4c05:	48 8b bc 24 a0 01 00 	mov    0x1a0(%rsp),%rdi
    4c0c:	00 
    4c0d:	48 8b 44 24 48       	mov    0x48(%rsp),%rax
    4c12:	48 39 c7             	cmp    %rax,%rdi
    4c15:	74 05                	je     4c1c <_ZN2ML15buildMixedModelEv.cold+0x269>
    4c17:	e8 34 f6 ff ff       	call   4250 <_ZdlPv@plt>
    4c1c:	48 8b bc 24 60 01 00 	mov    0x160(%rsp),%rdi
    4c23:	00 
    4c24:	48 85 ff             	test   %rdi,%rdi
    4c27:	0f 84 1d fe ff ff    	je     4a4a <_ZN2ML15buildMixedModelEv.cold+0x97>
    4c2d:	e8 1e f6 ff ff       	call   4250 <_ZdlPv@plt>
    4c32:	e9 13 fe ff ff       	jmp    4a4a <_ZN2ML15buildMixedModelEv.cold+0x97>
    4c37:	4c 89 e7             	mov    %r12,%rdi
    4c3a:	e8 71 81 00 00       	call   cdb0 <_ZN2ML11LayerParamsD1Ev>
    4c3f:	48 8b bc 24 c0 00 00 	mov    0xc0(%rsp),%rdi
    4c46:	00 
    4c47:	48 85 ff             	test   %rdi,%rdi
    4c4a:	74 05                	je     4c51 <_ZN2ML15buildMixedModelEv.cold+0x29e>
    4c4c:	e8 ff f5 ff ff       	call   4250 <_ZdlPv@plt>
    4c51:	48 89 ef             	mov    %rbp,%rdi
    4c54:	4c 89 ed             	mov    %r13,%rbp
    4c57:	e8 54 81 00 00       	call   cdb0 <_ZN2ML11LayerParamsD1Ev>
    4c5c:	48 8b bc 24 00 01 00 	mov    0x100(%rsp),%rdi
    4c63:	00 
    4c64:	48 85 ff             	test   %rdi,%rdi
    4c67:	74 05                	je     4c6e <_ZN2ML15buildMixedModelEv.cold+0x2bb>
    4c69:	e8 e2 f5 ff ff       	call   4250 <_ZdlPv@plt>
    4c6e:	4c 89 f7             	mov    %r14,%rdi
    4c71:	e8 3a 81 00 00       	call   cdb0 <_ZN2ML11LayerParamsD1Ev>
    4c76:	48 8b bc 24 80 01 00 	mov    0x180(%rsp),%rdi
    4c7d:	00 
    4c7e:	48 8b 44 24 40       	mov    0x40(%rsp),%rax
    4c83:	48 39 c7             	cmp    %rax,%rdi
    4c86:	74 05                	je     4c8d <_ZN2ML15buildMixedModelEv.cold+0x2da>
    4c88:	e8 c3 f5 ff ff       	call   4250 <_ZdlPv@plt>
    4c8d:	48 8b bc 24 20 01 00 	mov    0x120(%rsp),%rdi
    4c94:	00 
    4c95:	48 85 ff             	test   %rdi,%rdi
    4c98:	74 05                	je     4c9f <_ZN2ML15buildMixedModelEv.cold+0x2ec>
    4c9a:	e8 b1 f5 ff ff       	call   4250 <_ZdlPv@plt>
    4c9f:	48 89 df             	mov    %rbx,%rdi
    4ca2:	48 89 eb             	mov    %rbp,%rbx
    4ca5:	e8 06 81 00 00       	call   cdb0 <_ZN2ML11LayerParamsD1Ev>
    4caa:	48 8b bc 24 a0 01 00 	mov    0x1a0(%rsp),%rdi
    4cb1:	00 
    4cb2:	48 8b 44 24 48       	mov    0x48(%rsp),%rax
    4cb7:	48 39 c7             	cmp    %rax,%rdi
    4cba:	74 05                	je     4cc1 <_ZN2ML15buildMixedModelEv.cold+0x30e>
    4cbc:	e8 8f f5 ff ff       	call   4250 <_ZdlPv@plt>
    4cc1:	48 8b bc 24 40 01 00 	mov    0x140(%rsp),%rdi
    4cc8:	00 
    4cc9:	48 85 ff             	test   %rdi,%rdi
    4ccc:	0f 84 78 fd ff ff    	je     4a4a <_ZN2ML15buildMixedModelEv.cold+0x97>
    4cd2:	e8 79 f5 ff ff       	call   4250 <_ZdlPv@plt>
    4cd7:	e9 6e fd ff ff       	jmp    4a4a <_ZN2ML15buildMixedModelEv.cold+0x97>
    4cdc:	e8 6f f5 ff ff       	call   4250 <_ZdlPv@plt>
    4ce1:	e9 e3 fe ff ff       	jmp    4bc9 <_ZN2ML15buildMixedModelEv.cold+0x216>
    4ce6:	4c 89 e7             	mov    %r12,%rdi
    4ce9:	e8 c2 80 00 00       	call   cdb0 <_ZN2ML11LayerParamsD1Ev>
    4cee:	48 8b bc 24 00 01 00 	mov    0x100(%rsp),%rdi
    4cf5:	00 
    4cf6:	48 85 ff             	test   %rdi,%rdi
    4cf9:	74 05                	je     4d00 <_ZN2ML15buildMixedModelEv.cold+0x34d>
    4cfb:	e8 50 f5 ff ff       	call   4250 <_ZdlPv@plt>
    4d00:	48 89 ef             	mov    %rbp,%rdi
    4d03:	4c 89 ed             	mov    %r13,%rbp
    4d06:	e8 a5 80 00 00       	call   cdb0 <_ZN2ML11LayerParamsD1Ev>
    4d0b:	48 8b bc 24 20 01 00 	mov    0x120(%rsp),%rdi
    4d12:	00 
    4d13:	48 85 ff             	test   %rdi,%rdi
    4d16:	74 05                	je     4d1d <_ZN2ML15buildMixedModelEv.cold+0x36a>
    4d18:	e8 33 f5 ff ff       	call   4250 <_ZdlPv@plt>
    4d1d:	4c 89 f7             	mov    %r14,%rdi
    4d20:	e8 8b 80 00 00       	call   cdb0 <_ZN2ML11LayerParamsD1Ev>
    4d25:	48 8b bc 24 80 01 00 	mov    0x180(%rsp),%rdi
    4d2c:	00 
    4d2d:	48 8b 44 24 40       	mov    0x40(%rsp),%rax
    4d32:	48 39 c7             	cmp    %rax,%rdi
    4d35:	74 05                	je     4d3c <_ZN2ML15buildMixedModelEv.cold+0x389>
    4d37:	e8 14 f5 ff ff       	call   4250 <_ZdlPv@plt>
    4d3c:	48 8b bc 24 40 01 00 	mov    0x140(%rsp),%rdi
    4d43:	00 
    4d44:	48 85 ff             	test   %rdi,%rdi
    4d47:	74 05                	je     4d4e <_ZN2ML15buildMixedModelEv.cold+0x39b>
    4d49:	e8 02 f5 ff ff       	call   4250 <_ZdlPv@plt>
    4d4e:	48 89 df             	mov    %rbx,%rdi
    4d51:	48 89 eb             	mov    %rbp,%rbx
    4d54:	e8 57 80 00 00       	call   cdb0 <_ZN2ML11LayerParamsD1Ev>
    4d59:	48 8b bc 24 a0 01 00 	mov    0x1a0(%rsp),%rdi
    4d60:	00 
    4d61:	48 8b 44 24 48       	mov    0x48(%rsp),%rax
    4d66:	48 39 c7             	cmp    %rax,%rdi
    4d69:	74 05                	je     4d70 <_ZN2ML15buildMixedModelEv.cold+0x3bd>
    4d6b:	e8 e0 f4 ff ff       	call   4250 <_ZdlPv@plt>
    4d70:	48 8b bc 24 60 01 00 	mov    0x160(%rsp),%rdi
    4d77:	00 
    4d78:	48 85 ff             	test   %rdi,%rdi
    4d7b:	0f 84 c9 fc ff ff    	je     4a4a <_ZN2ML15buildMixedModelEv.cold+0x97>
    4d81:	e8 ca f4 ff ff       	call   4250 <_ZdlPv@plt>
    4d86:	e9 bf fc ff ff       	jmp    4a4a <_ZN2ML15buildMixedModelEv.cold+0x97>
    4d8b:	48 8b bc 24 80 02 00 	mov    0x280(%rsp),%rdi
    4d92:	00 
    4d93:	48 8d 84 24 90 02 00 	lea    0x290(%rsp),%rax
    4d9a:	00 
    4d9b:	48 39 c7             	cmp    %rax,%rdi
    4d9e:	0f 84 a6 fc ff ff    	je     4a4a <_ZN2ML15buildMixedModelEv.cold+0x97>
    4da4:	e8 a7 f4 ff ff       	call   4250 <_ZdlPv@plt>
    4da9:	e9 9c fc ff ff       	jmp    4a4a <_ZN2ML15buildMixedModelEv.cold+0x97>
    4dae:	4c 89 e7             	mov    %r12,%rdi
    4db1:	4d 89 ec             	mov    %r13,%r12
    4db4:	e8 f7 7f 00 00       	call   cdb0 <_ZN2ML11LayerParamsD1Ev>
    4db9:	48 8b bc 24 c0 00 00 	mov    0xc0(%rsp),%rdi
    4dc0:	00 
    4dc1:	48 85 ff             	test   %rdi,%rdi
    4dc4:	74 05                	je     4dcb <_ZN2ML15buildMixedModelEv.cold+0x418>
    4dc6:	e8 85 f4 ff ff       	call   4250 <_ZdlPv@plt>
    4dcb:	48 89 ef             	mov    %rbp,%rdi
    4dce:	4c 89 e5             	mov    %r12,%rbp
    4dd1:	e8 da 7f 00 00       	call   cdb0 <_ZN2ML11LayerParamsD1Ev>
    4dd6:	48 8b bc 24 00 01 00 	mov    0x100(%rsp),%rdi
    4ddd:	00 
    4dde:	48 85 ff             	test   %rdi,%rdi
    4de1:	74 05                	je     4de8 <_ZN2ML15buildMixedModelEv.cold+0x435>
    4de3:	e8 68 f4 ff ff       	call   4250 <_ZdlPv@plt>
    4de8:	4c 89 f7             	mov    %r14,%rdi
    4deb:	e8 c0 7f 00 00       	call   cdb0 <_ZN2ML11LayerParamsD1Ev>
    4df0:	48 8b bc 24 80 01 00 	mov    0x180(%rsp),%rdi
    4df7:	00 
    4df8:	48 8d 84 24 90 01 00 	lea    0x190(%rsp),%rax
    4dff:	00 
    4e00:	48 39 c7             	cmp    %rax,%rdi
    4e03:	74 05                	je     4e0a <_ZN2ML15buildMixedModelEv.cold+0x457>
    4e05:	e8 46 f4 ff ff       	call   4250 <_ZdlPv@plt>
    4e0a:	48 8b bc 24 20 01 00 	mov    0x120(%rsp),%rdi
    4e11:	00 
    4e12:	48 85 ff             	test   %rdi,%rdi
    4e15:	74 05                	je     4e1c <_ZN2ML15buildMixedModelEv.cold+0x469>
    4e17:	e8 34 f4 ff ff       	call   4250 <_ZdlPv@plt>
    4e1c:	48 89 df             	mov    %rbx,%rdi
    4e1f:	48 89 eb             	mov    %rbp,%rbx
    4e22:	e8 89 7f 00 00       	call   cdb0 <_ZN2ML11LayerParamsD1Ev>
    4e27:	48 8b bc 24 a0 01 00 	mov    0x1a0(%rsp),%rdi
    4e2e:	00 
    4e2f:	48 8d 84 24 b0 01 00 	lea    0x1b0(%rsp),%rax
    4e36:	00 
    4e37:	48 39 c7             	cmp    %rax,%rdi
    4e3a:	74 05                	je     4e41 <_ZN2ML15buildMixedModelEv.cold+0x48e>
    4e3c:	e8 0f f4 ff ff       	call   4250 <_ZdlPv@plt>
    4e41:	48 8b bc 24 40 01 00 	mov    0x140(%rsp),%rdi
    4e48:	00 
    4e49:	48 85 ff             	test   %rdi,%rdi
    4e4c:	0f 84 f8 fb ff ff    	je     4a4a <_ZN2ML15buildMixedModelEv.cold+0x97>
    4e52:	e8 f9 f3 ff ff       	call   4250 <_ZdlPv@plt>
    4e57:	e9 ee fb ff ff       	jmp    4a4a <_ZN2ML15buildMixedModelEv.cold+0x97>
    4e5c:	4c 89 f7             	mov    %r14,%rdi
    4e5f:	e8 4c 7f 00 00       	call   cdb0 <_ZN2ML11LayerParamsD1Ev>
    4e64:	48 8b bc 24 a0 01 00 	mov    0x1a0(%rsp),%rdi
    4e6b:	00 
    4e6c:	48 85 ff             	test   %rdi,%rdi
    4e6f:	74 05                	je     4e76 <_ZN2ML15buildMixedModelEv.cold+0x4c3>
    4e71:	e8 da f3 ff ff       	call   4250 <_ZdlPv@plt>
    4e76:	48 89 df             	mov    %rbx,%rdi
    4e79:	48 89 eb             	mov    %rbp,%rbx
    4e7c:	e8 2f 7f 00 00       	call   cdb0 <_ZN2ML11LayerParamsD1Ev>
    4e81:	48 8b bc 24 00 02 00 	mov    0x200(%rsp),%rdi
    4e88:	00 
    4e89:	48 85 ff             	test   %rdi,%rdi
    4e8c:	0f 84 b8 fb ff ff    	je     4a4a <_ZN2ML15buildMixedModelEv.cold+0x97>
    4e92:	e8 b9 f3 ff ff       	call   4250 <_ZdlPv@plt>
    4e97:	e9 ae fb ff ff       	jmp    4a4a <_ZN2ML15buildMixedModelEv.cold+0x97>
    4e9c:	4c 89 e7             	mov    %r12,%rdi
    4e9f:	e8 0c 7f 00 00       	call   cdb0 <_ZN2ML11LayerParamsD1Ev>
    4ea4:	48 8b bc 24 c0 00 00 	mov    0xc0(%rsp),%rdi
    4eab:	00 
    4eac:	48 85 ff             	test   %rdi,%rdi
    4eaf:	74 05                	je     4eb6 <_ZN2ML15buildMixedModelEv.cold+0x503>
    4eb1:	e8 9a f3 ff ff       	call   4250 <_ZdlPv@plt>
    4eb6:	48 89 ef             	mov    %rbp,%rdi
    4eb9:	4c 89 ed             	mov    %r13,%rbp
    4ebc:	e8 ef 7e 00 00       	call   cdb0 <_ZN2ML11LayerParamsD1Ev>
    4ec1:	48 8b bc 24 00 01 00 	mov    0x100(%rsp),%rdi
    4ec8:	00 
    4ec9:	48 85 ff             	test   %rdi,%rdi
    4ecc:	75 6e                	jne    4f3c <_ZN2ML15buildMixedModelEv.cold+0x589>
    4ece:	4c 89 f7             	mov    %r14,%rdi
    4ed1:	e8 da 7e 00 00       	call   cdb0 <_ZN2ML11LayerParamsD1Ev>
    4ed6:	48 8b bc 24 80 01 00 	mov    0x180(%rsp),%rdi
    4edd:	00 
    4ede:	48 8b 44 24 40       	mov    0x40(%rsp),%rax
    4ee3:	48 39 c7             	cmp    %rax,%rdi
    4ee6:	74 05                	je     4eed <_ZN2ML15buildMixedModelEv.cold+0x53a>
    4ee8:	e8 63 f3 ff ff       	call   4250 <_ZdlPv@plt>
    4eed:	48 8b bc 24 20 01 00 	mov    0x120(%rsp),%rdi
    4ef4:	00 
    4ef5:	48 85 ff             	test   %rdi,%rdi
    4ef8:	74 05                	je     4eff <_ZN2ML15buildMixedModelEv.cold+0x54c>
    4efa:	e8 51 f3 ff ff       	call   4250 <_ZdlPv@plt>
    4eff:	48 89 df             	mov    %rbx,%rdi
    4f02:	48 89 eb             	mov    %rbp,%rbx
    4f05:	e8 a6 7e 00 00       	call   cdb0 <_ZN2ML11LayerParamsD1Ev>
    4f0a:	48 8b bc 24 a0 01 00 	mov    0x1a0(%rsp),%rdi
    4f11:	00 
    4f12:	48 8b 44 24 48       	mov    0x48(%rsp),%rax
    4f17:	48 39 c7             	cmp    %rax,%rdi
    4f1a:	74 05                	je     4f21 <_ZN2ML15buildMixedModelEv.cold+0x56e>
    4f1c:	e8 2f f3 ff ff       	call   4250 <_ZdlPv@plt>
    4f21:	48 8b bc 24 40 01 00 	mov    0x140(%rsp),%rdi
    4f28:	00 
    4f29:	48 85 ff             	test   %rdi,%rdi
    4f2c:	0f 84 18 fb ff ff    	je     4a4a <_ZN2ML15buildMixedModelEv.cold+0x97>
    4f32:	e8 19 f3 ff ff       	call   4250 <_ZdlPv@plt>
    4f37:	e9 0e fb ff ff       	jmp    4a4a <_ZN2ML15buildMixedModelEv.cold+0x97>
    4f3c:	e8 0f f3 ff ff       	call   4250 <_ZdlPv@plt>
    4f41:	eb 8b                	jmp    4ece <_ZN2ML15buildMixedModelEv.cold+0x51b>
    4f43:	4c 89 e7             	mov    %r12,%rdi
    4f46:	e8 65 7e 00 00       	call   cdb0 <_ZN2ML11LayerParamsD1Ev>
    4f4b:	48 8b bc 24 c0 00 00 	mov    0xc0(%rsp),%rdi
    4f52:	00 
    4f53:	48 85 ff             	test   %rdi,%rdi
    4f56:	74 05                	je     4f5d <_ZN2ML15buildMixedModelEv.cold+0x5aa>
    4f58:	e8 f3 f2 ff ff       	call   4250 <_ZdlPv@plt>
    4f5d:	48 89 ef             	mov    %rbp,%rdi
    4f60:	4c 89 ed             	mov    %r13,%rbp
    4f63:	e8 48 7e 00 00       	call   cdb0 <_ZN2ML11LayerParamsD1Ev>
    4f68:	48 8b bc 24 00 01 00 	mov    0x100(%rsp),%rdi
    4f6f:	00 
    4f70:	48 85 ff             	test   %rdi,%rdi
    4f73:	75 6e                	jne    4fe3 <_ZN2ML15buildMixedModelEv.cold+0x630>
    4f75:	4c 89 f7             	mov    %r14,%rdi
    4f78:	e8 33 7e 00 00       	call   cdb0 <_ZN2ML11LayerParamsD1Ev>
    4f7d:	48 8b bc 24 80 01 00 	mov    0x180(%rsp),%rdi
    4f84:	00 
    4f85:	48 8b 44 24 40       	mov    0x40(%rsp),%rax
    4f8a:	48 39 c7             	cmp    %rax,%rdi
    4f8d:	74 05                	je     4f94 <_ZN2ML15buildMixedModelEv.cold+0x5e1>
    4f8f:	e8 bc f2 ff ff       	call   4250 <_ZdlPv@plt>
    4f94:	48 8b bc 24 20 01 00 	mov    0x120(%rsp),%rdi
    4f9b:	00 
    4f9c:	48 85 ff             	test   %rdi,%rdi
    4f9f:	74 05                	je     4fa6 <_ZN2ML15buildMixedModelEv.cold+0x5f3>
    4fa1:	e8 aa f2 ff ff       	call   4250 <_ZdlPv@plt>
    4fa6:	48 89 df             	mov    %rbx,%rdi
    4fa9:	48 89 eb             	mov    %rbp,%rbx
    4fac:	e8 ff 7d 00 00       	call   cdb0 <_ZN2ML11LayerParamsD1Ev>
    4fb1:	48 8b bc 24 a0 01 00 	mov    0x1a0(%rsp),%rdi
    4fb8:	00 
    4fb9:	48 8b 44 24 48       	mov    0x48(%rsp),%rax
    4fbe:	48 39 c7             	cmp    %rax,%rdi
    4fc1:	74 05                	je     4fc8 <_ZN2ML15buildMixedModelEv.cold+0x615>
    4fc3:	e8 88 f2 ff ff       	call   4250 <_ZdlPv@plt>
    4fc8:	48 8b bc 24 40 01 00 	mov    0x140(%rsp),%rdi
    4fcf:	00 
    4fd0:	48 85 ff             	test   %rdi,%rdi
    4fd3:	0f 84 71 fa ff ff    	je     4a4a <_ZN2ML15buildMixedModelEv.cold+0x97>
    4fd9:	e8 72 f2 ff ff       	call   4250 <_ZdlPv@plt>
    4fde:	e9 67 fa ff ff       	jmp    4a4a <_ZN2ML15buildMixedModelEv.cold+0x97>
    4fe3:	e8 68 f2 ff ff       	call   4250 <_ZdlPv@plt>
    4fe8:	eb 8b                	jmp    4f75 <_ZN2ML15buildMixedModelEv.cold+0x5c2>
    4fea:	4c 89 f7             	mov    %r14,%rdi
    4fed:	e8 be 7d 00 00       	call   cdb0 <_ZN2ML11LayerParamsD1Ev>
    4ff2:	48 8b bc 24 a0 01 00 	mov    0x1a0(%rsp),%rdi
    4ff9:	00 
    4ffa:	48 85 ff             	test   %rdi,%rdi
    4ffd:	74 05                	je     5004 <_ZN2ML15buildMixedModelEv.cold+0x651>
    4fff:	e8 4c f2 ff ff       	call   4250 <_ZdlPv@plt>
    5004:	48 89 df             	mov    %rbx,%rdi
    5007:	48 89 eb             	mov    %rbp,%rbx
    500a:	e8 a1 7d 00 00       	call   cdb0 <_ZN2ML11LayerParamsD1Ev>
    500f:	48 8b bc 24 00 02 00 	mov    0x200(%rsp),%rdi
    5016:	00 
    5017:	48 85 ff             	test   %rdi,%rdi
    501a:	0f 84 2a fa ff ff    	je     4a4a <_ZN2ML15buildMixedModelEv.cold+0x97>
    5020:	e8 2b f2 ff ff       	call   4250 <_ZdlPv@plt>
    5025:	e9 20 fa ff ff       	jmp    4a4a <_ZN2ML15buildMixedModelEv.cold+0x97>
    502a:	4c 89 f7             	mov    %r14,%rdi
    502d:	e8 7e 7d 00 00       	call   cdb0 <_ZN2ML11LayerParamsD1Ev>
    5032:	48 8b bc 24 a0 01 00 	mov    0x1a0(%rsp),%rdi
    5039:	00 
    503a:	48 85 ff             	test   %rdi,%rdi
    503d:	74 05                	je     5044 <_ZN2ML15buildMixedModelEv.cold+0x691>
    503f:	e8 0c f2 ff ff       	call   4250 <_ZdlPv@plt>
    5044:	48 89 df             	mov    %rbx,%rdi
    5047:	48 89 eb             	mov    %rbp,%rbx
    504a:	e8 61 7d 00 00       	call   cdb0 <_ZN2ML11LayerParamsD1Ev>
    504f:	48 8b bc 24 00 02 00 	mov    0x200(%rsp),%rdi
    5056:	00 
    5057:	48 85 ff             	test   %rdi,%rdi
    505a:	0f 84 ea f9 ff ff    	je     4a4a <_ZN2ML15buildMixedModelEv.cold+0x97>
    5060:	e8 eb f1 ff ff       	call   4250 <_ZdlPv@plt>
    5065:	e9 e0 f9 ff ff       	jmp    4a4a <_ZN2ML15buildMixedModelEv.cold+0x97>

000000000000506a <_ZN2ML12build4QModelEv.cold>:
    506a:	4c 89 e7             	mov    %r12,%rdi
    506d:	e8 de f1 ff ff       	call   4250 <_ZdlPv@plt>
    5072:	48 89 df             	mov    %rbx,%rdi
    5075:	48 89 eb             	mov    %rbp,%rbx
    5078:	e8 33 7d 00 00       	call   cdb0 <_ZN2ML11LayerParamsD1Ev>
    507d:	48 8b bc 24 c0 01 00 	mov    0x1c0(%rsp),%rdi
    5084:	00 
    5085:	48 85 ff             	test   %rdi,%rdi
    5088:	74 05                	je     508f <_ZN2ML12build4QModelEv.cold+0x25>
    508a:	e8 c1 f1 ff ff       	call   4250 <_ZdlPv@plt>
    508f:	4c 89 f7             	mov    %r14,%rdi
    5092:	e8 19 7d 00 00       	call   cdb0 <_ZN2ML11LayerParamsD1Ev>
    5097:	48 8b bc 24 00 02 00 	mov    0x200(%rsp),%rdi
    509e:	00 
    509f:	48 85 ff             	test   %rdi,%rdi
    50a2:	74 05                	je     50a9 <_ZN2ML12build4QModelEv.cold+0x3f>
    50a4:	e8 a7 f1 ff ff       	call   4250 <_ZdlPv@plt>
    50a9:	4c 89 ff             	mov    %r15,%rdi
    50ac:	e8 6f 20 02 00       	call   27120 <_ZNSt6vectorISt10unique_ptrIN2ML5LayerESt14default_deleteIS2_EESaIS5_EED1Ev>
    50b1:	48 89 df             	mov    %rbx,%rdi
    50b4:	e8 97 f3 ff ff       	call   4450 <_Unwind_Resume@plt>
    50b9:	4c 89 e7             	mov    %r12,%rdi
    50bc:	e8 ef 7c 00 00       	call   cdb0 <_ZN2ML11LayerParamsD1Ev>
    50c1:	48 8b bc 24 c0 00 00 	mov    0xc0(%rsp),%rdi
    50c8:	00 
    50c9:	48 85 ff             	test   %rdi,%rdi
    50cc:	74 05                	je     50d3 <_ZN2ML12build4QModelEv.cold+0x69>
    50ce:	e8 7d f1 ff ff       	call   4250 <_ZdlPv@plt>
    50d3:	48 89 ef             	mov    %rbp,%rdi
    50d6:	4c 89 ed             	mov    %r13,%rbp
    50d9:	e8 d2 7c 00 00       	call   cdb0 <_ZN2ML11LayerParamsD1Ev>
    50de:	48 8b bc 24 00 01 00 	mov    0x100(%rsp),%rdi
    50e5:	00 
    50e6:	48 85 ff             	test   %rdi,%rdi
    50e9:	74 05                	je     50f0 <_ZN2ML12build4QModelEv.cold+0x86>
    50eb:	e8 60 f1 ff ff       	call   4250 <_ZdlPv@plt>
    50f0:	48 89 df             	mov    %rbx,%rdi
    50f3:	48 89 eb             	mov    %rbp,%rbx
    50f6:	e8 b5 7c 00 00       	call   cdb0 <_ZN2ML11LayerParamsD1Ev>
    50fb:	48 8b bc 24 80 01 00 	mov    0x180(%rsp),%rdi
    5102:	00 
    5103:	48 8b 44 24 48       	mov    0x48(%rsp),%rax
    5108:	48 39 c7             	cmp    %rax,%rdi
    510b:	74 05                	je     5112 <_ZN2ML12build4QModelEv.cold+0xa8>
    510d:	e8 3e f1 ff ff       	call   4250 <_ZdlPv@plt>
    5112:	48 8b bc 24 20 01 00 	mov    0x120(%rsp),%rdi
    5119:	00 
    511a:	48 85 ff             	test   %rdi,%rdi
    511d:	0f 85 d1 00 00 00    	jne    51f4 <_ZN2ML12build4QModelEv.cold+0x18a>
    5123:	4c 89 f7             	mov    %r14,%rdi
    5126:	e8 85 7c 00 00       	call   cdb0 <_ZN2ML11LayerParamsD1Ev>
    512b:	48 8b bc 24 a0 01 00 	mov    0x1a0(%rsp),%rdi
    5132:	00 
    5133:	48 8b 44 24 40       	mov    0x40(%rsp),%rax
    5138:	48 39 c7             	cmp    %rax,%rdi
    513b:	74 05                	je     5142 <_ZN2ML12build4QModelEv.cold+0xd8>
    513d:	e8 0e f1 ff ff       	call   4250 <_ZdlPv@plt>
    5142:	48 8b bc 24 40 01 00 	mov    0x140(%rsp),%rdi
    5149:	00 
    514a:	48 85 ff             	test   %rdi,%rdi
    514d:	0f 85 51 ff ff ff    	jne    50a4 <_ZN2ML12build4QModelEv.cold+0x3a>
    5153:	e9 51 ff ff ff       	jmp    50a9 <_ZN2ML12build4QModelEv.cold+0x3f>
    5158:	4c 89 e7             	mov    %r12,%rdi
    515b:	4d 89 ec             	mov    %r13,%r12
    515e:	e8 4d 7c 00 00       	call   cdb0 <_ZN2ML11LayerParamsD1Ev>
    5163:	48 8b bc 24 c0 00 00 	mov    0xc0(%rsp),%rdi
    516a:	00 
    516b:	48 85 ff             	test   %rdi,%rdi
    516e:	74 05                	je     5175 <_ZN2ML12build4QModelEv.cold+0x10b>
    5170:	e8 db f0 ff ff       	call   4250 <_ZdlPv@plt>
    5175:	48 89 ef             	mov    %rbp,%rdi
    5178:	4c 89 e5             	mov    %r12,%rbp
    517b:	e8 30 7c 00 00       	call   cdb0 <_ZN2ML11LayerParamsD1Ev>
    5180:	48 8b bc 24 00 01 00 	mov    0x100(%rsp),%rdi
    5187:	00 
    5188:	48 85 ff             	test   %rdi,%rdi
    518b:	74 05                	je     5192 <_ZN2ML12build4QModelEv.cold+0x128>
    518d:	e8 be f0 ff ff       	call   4250 <_ZdlPv@plt>
    5192:	48 89 df             	mov    %rbx,%rdi
    5195:	48 89 eb             	mov    %rbp,%rbx
    5198:	e8 13 7c 00 00       	call   cdb0 <_ZN2ML11LayerParamsD1Ev>
    519d:	48 8b bc 24 80 01 00 	mov    0x180(%rsp),%rdi
    51a4:	00 
    51a5:	48 8d 84 24 90 01 00 	lea    0x190(%rsp),%rax
    51ac:	00 
    51ad:	48 39 c7             	cmp    %rax,%rdi
    51b0:	74 05                	je     51b7 <_ZN2ML12build4QModelEv.cold+0x14d>
    51b2:	e8 99 f0 ff ff       	call   4250 <_ZdlPv@plt>
    51b7:	48 8b bc 24 20 01 00 	mov    0x120(%rsp),%rdi
    51be:	00 
    51bf:	48 85 ff             	test   %rdi,%rdi
    51c2:	74 05                	je     51c9 <_ZN2ML12build4QModelEv.cold+0x15f>
    51c4:	e8 87 f0 ff ff       	call   4250 <_ZdlPv@plt>
    51c9:	4c 89 f7             	mov    %r14,%rdi
    51cc:	e8 df 7b 00 00       	call   cdb0 <_ZN2ML11LayerParamsD1Ev>
    51d1:	48 8b bc 24 a0 01 00 	mov    0x1a0(%rsp),%rdi
    51d8:	00 
    51d9:	48 8d 84 24 b0 01 00 	lea    0x1b0(%rsp),%rax
    51e0:	00 
    51e1:	48 39 c7             	cmp    %rax,%rdi
    51e4:	0f 84 58 ff ff ff    	je     5142 <_ZN2ML12build4QModelEv.cold+0xd8>
    51ea:	e8 61 f0 ff ff       	call   4250 <_ZdlPv@plt>
    51ef:	e9 4e ff ff ff       	jmp    5142 <_ZN2ML12build4QModelEv.cold+0xd8>
    51f4:	e8 57 f0 ff ff       	call   4250 <_ZdlPv@plt>
    51f9:	e9 25 ff ff ff       	jmp    5123 <_ZN2ML12build4QModelEv.cold+0xb9>
    51fe:	48 8b 7c 24 68       	mov    0x68(%rsp),%rdi
    5203:	e8 48 f0 ff ff       	call   4250 <_ZdlPv@plt>
    5208:	48 89 df             	mov    %rbx,%rdi
    520b:	48 89 eb             	mov    %rbp,%rbx
    520e:	e8 9d 7b 00 00       	call   cdb0 <_ZN2ML11LayerParamsD1Ev>
    5213:	48 8b bc 24 c0 01 00 	mov    0x1c0(%rsp),%rdi
    521a:	00 
    521b:	48 85 ff             	test   %rdi,%rdi
    521e:	74 05                	je     5225 <_ZN2ML12build4QModelEv.cold+0x1bb>
    5220:	e8 2b f0 ff ff       	call   4250 <_ZdlPv@plt>
    5225:	4c 89 f7             	mov    %r14,%rdi
    5228:	e8 83 7b 00 00       	call   cdb0 <_ZN2ML11LayerParamsD1Ev>
    522d:	e9 65 fe ff ff       	jmp    5097 <_ZN2ML12build4QModelEv.cold+0x2d>
    5232:	48 89 df             	mov    %rbx,%rdi
    5235:	48 89 eb             	mov    %rbp,%rbx
    5238:	e8 73 7b 00 00       	call   cdb0 <_ZN2ML11LayerParamsD1Ev>
    523d:	48 8b bc 24 a0 01 00 	mov    0x1a0(%rsp),%rdi
    5244:	00 
    5245:	48 85 ff             	test   %rdi,%rdi
    5248:	74 05                	je     524f <_ZN2ML12build4QModelEv.cold+0x1e5>
    524a:	e8 01 f0 ff ff       	call   4250 <_ZdlPv@plt>
    524f:	4c 89 f7             	mov    %r14,%rdi
    5252:	e8 59 7b 00 00       	call   cdb0 <_ZN2ML11LayerParamsD1Ev>
    5257:	e9 3b fe ff ff       	jmp    5097 <_ZN2ML12build4QModelEv.cold+0x2d>
    525c:	4c 89 e7             	mov    %r12,%rdi
    525f:	e8 4c 7b 00 00       	call   cdb0 <_ZN2ML11LayerParamsD1Ev>
    5264:	48 8b bc 24 00 01 00 	mov    0x100(%rsp),%rdi
    526b:	00 
    526c:	48 85 ff             	test   %rdi,%rdi
    526f:	74 05                	je     5276 <_ZN2ML12build4QModelEv.cold+0x20c>
    5271:	e8 da ef ff ff       	call   4250 <_ZdlPv@plt>
    5276:	48 89 ef             	mov    %rbp,%rdi
    5279:	4c 89 ed             	mov    %r13,%rbp
    527c:	e8 2f 7b 00 00       	call   cdb0 <_ZN2ML11LayerParamsD1Ev>
    5281:	48 8b bc 24 20 01 00 	mov    0x120(%rsp),%rdi
    5288:	00 
    5289:	48 85 ff             	test   %rdi,%rdi
    528c:	74 05                	je     5293 <_ZN2ML12build4QModelEv.cold+0x229>
    528e:	e8 bd ef ff ff       	call   4250 <_ZdlPv@plt>
    5293:	48 89 df             	mov    %rbx,%rdi
    5296:	48 89 eb             	mov    %rbp,%rbx
    5299:	e8 12 7b 00 00       	call   cdb0 <_ZN2ML11LayerParamsD1Ev>
    529e:	48 8b bc 24 80 01 00 	mov    0x180(%rsp),%rdi
    52a5:	00 
    52a6:	48 8b 44 24 48       	mov    0x48(%rsp),%rax
    52ab:	48 39 c7             	cmp    %rax,%rdi
    52ae:	74 05                	je     52b5 <_ZN2ML12build4QModelEv.cold+0x24b>
    52b0:	e8 9b ef ff ff       	call   4250 <_ZdlPv@plt>
    52b5:	48 8b bc 24 40 01 00 	mov    0x140(%rsp),%rdi
    52bc:	00 
    52bd:	48 85 ff             	test   %rdi,%rdi
    52c0:	75 35                	jne    52f7 <_ZN2ML12build4QModelEv.cold+0x28d>
    52c2:	4c 89 f7             	mov    %r14,%rdi
    52c5:	e8 e6 7a 00 00       	call   cdb0 <_ZN2ML11LayerParamsD1Ev>
    52ca:	48 8b bc 24 a0 01 00 	mov    0x1a0(%rsp),%rdi
    52d1:	00 
    52d2:	48 8b 44 24 40       	mov    0x40(%rsp),%rax
    52d7:	48 39 c7             	cmp    %rax,%rdi
    52da:	74 05                	je     52e1 <_ZN2ML12build4QModelEv.cold+0x277>
    52dc:	e8 6f ef ff ff       	call   4250 <_ZdlPv@plt>
    52e1:	48 8b bc 24 60 01 00 	mov    0x160(%rsp),%rdi
    52e8:	00 
    52e9:	48 85 ff             	test   %rdi,%rdi
    52ec:	0f 85 b2 fd ff ff    	jne    50a4 <_ZN2ML12build4QModelEv.cold+0x3a>
    52f2:	e9 b2 fd ff ff       	jmp    50a9 <_ZN2ML12build4QModelEv.cold+0x3f>
    52f7:	e8 54 ef ff ff       	call   4250 <_ZdlPv@plt>
    52fc:	eb c4                	jmp    52c2 <_ZN2ML12build4QModelEv.cold+0x258>
    52fe:	4c 89 e7             	mov    %r12,%rdi
    5301:	e8 aa 7a 00 00       	call   cdb0 <_ZN2ML11LayerParamsD1Ev>
    5306:	48 8b bc 24 00 01 00 	mov    0x100(%rsp),%rdi
    530d:	00 
    530e:	48 85 ff             	test   %rdi,%rdi
    5311:	74 05                	je     5318 <_ZN2ML12build4QModelEv.cold+0x2ae>
    5313:	e8 38 ef ff ff       	call   4250 <_ZdlPv@plt>
    5318:	48 89 ef             	mov    %rbp,%rdi
    531b:	4c 89 ed             	mov    %r13,%rbp
    531e:	e8 8d 7a 00 00       	call   cdb0 <_ZN2ML11LayerParamsD1Ev>
    5323:	48 8b bc 24 20 01 00 	mov    0x120(%rsp),%rdi
    532a:	00 
    532b:	48 85 ff             	test   %rdi,%rdi
    532e:	74 05                	je     5335 <_ZN2ML12build4QModelEv.cold+0x2cb>
    5330:	e8 1b ef ff ff       	call   4250 <_ZdlPv@plt>
    5335:	48 89 df             	mov    %rbx,%rdi
    5338:	48 89 eb             	mov    %rbp,%rbx
    533b:	e8 70 7a 00 00       	call   cdb0 <_ZN2ML11LayerParamsD1Ev>
    5340:	48 8b bc 24 80 01 00 	mov    0x180(%rsp),%rdi
    5347:	00 
    5348:	48 8b 44 24 48       	mov    0x48(%rsp),%rax
    534d:	48 39 c7             	cmp    %rax,%rdi
    5350:	74 05                	je     5357 <_ZN2ML12build4QModelEv.cold+0x2ed>
    5352:	e8 f9 ee ff ff       	call   4250 <_ZdlPv@plt>
    5357:	48 8b bc 24 40 01 00 	mov    0x140(%rsp),%rdi
    535e:	00 
    535f:	48 85 ff             	test   %rdi,%rdi
    5362:	0f 85 49 01 00 00    	jne    54b1 <_ZN2ML12build4QModelEv.cold+0x447>
    5368:	4c 89 f7             	mov    %r14,%rdi
    536b:	e8 40 7a 00 00       	call   cdb0 <_ZN2ML11LayerParamsD1Ev>
    5370:	48 8b bc 24 a0 01 00 	mov    0x1a0(%rsp),%rdi
    5377:	00 
    5378:	48 8b 44 24 40       	mov    0x40(%rsp),%rax
    537d:	48 39 c7             	cmp    %rax,%rdi
    5380:	0f 84 5b ff ff ff    	je     52e1 <_ZN2ML12build4QModelEv.cold+0x277>
    5386:	e8 c5 ee ff ff       	call   4250 <_ZdlPv@plt>
    538b:	e9 51 ff ff ff       	jmp    52e1 <_ZN2ML12build4QModelEv.cold+0x277>
    5390:	4c 89 e7             	mov    %r12,%rdi
    5393:	e8 18 7a 00 00       	call   cdb0 <_ZN2ML11LayerParamsD1Ev>
    5398:	48 8b bc 24 c0 00 00 	mov    0xc0(%rsp),%rdi
    539f:	00 
    53a0:	48 85 ff             	test   %rdi,%rdi
    53a3:	74 05                	je     53aa <_ZN2ML12build4QModelEv.cold+0x340>
    53a5:	e8 a6 ee ff ff       	call   4250 <_ZdlPv@plt>
    53aa:	48 89 ef             	mov    %rbp,%rdi
    53ad:	4c 89 ed             	mov    %r13,%rbp
    53b0:	e8 fb 79 00 00       	call   cdb0 <_ZN2ML11LayerParamsD1Ev>
    53b5:	48 8b bc 24 00 01 00 	mov    0x100(%rsp),%rdi
    53bc:	00 
    53bd:	48 85 ff             	test   %rdi,%rdi
    53c0:	74 05                	je     53c7 <_ZN2ML12build4QModelEv.cold+0x35d>
    53c2:	e8 89 ee ff ff       	call   4250 <_ZdlPv@plt>
    53c7:	48 89 df             	mov    %rbx,%rdi
    53ca:	48 89 eb             	mov    %rbp,%rbx
    53cd:	e8 de 79 00 00       	call   cdb0 <_ZN2ML11LayerParamsD1Ev>
    53d2:	48 8b bc 24 80 01 00 	mov    0x180(%rsp),%rdi
    53d9:	00 
    53da:	48 8b 44 24 48       	mov    0x48(%rsp),%rax
    53df:	48 39 c7             	cmp    %rax,%rdi
    53e2:	74 05                	je     53e9 <_ZN2ML12build4QModelEv.cold+0x37f>
    53e4:	e8 67 ee ff ff       	call   4250 <_ZdlPv@plt>
    53e9:	48 8b bc 24 20 01 00 	mov    0x120(%rsp),%rdi
    53f0:	00 
    53f1:	48 85 ff             	test   %rdi,%rdi
    53f4:	74 05                	je     53fb <_ZN2ML12build4QModelEv.cold+0x391>
    53f6:	e8 55 ee ff ff       	call   4250 <_ZdlPv@plt>
    53fb:	4c 89 f7             	mov    %r14,%rdi
    53fe:	e8 ad 79 00 00       	call   cdb0 <_ZN2ML11LayerParamsD1Ev>
    5403:	48 8b bc 24 a0 01 00 	mov    0x1a0(%rsp),%rdi
    540a:	00 
    540b:	48 8b 44 24 40       	mov    0x40(%rsp),%rax
    5410:	48 39 c7             	cmp    %rax,%rdi
    5413:	0f 84 29 fd ff ff    	je     5142 <_ZN2ML12build4QModelEv.cold+0xd8>
    5419:	e8 32 ee ff ff       	call   4250 <_ZdlPv@plt>
    541e:	e9 1f fd ff ff       	jmp    5142 <_ZN2ML12build4QModelEv.cold+0xd8>
    5423:	4c 89 e7             	mov    %r12,%rdi
    5426:	e8 85 79 00 00       	call   cdb0 <_ZN2ML11LayerParamsD1Ev>
    542b:	48 8b bc 24 c0 00 00 	mov    0xc0(%rsp),%rdi
    5432:	00 
    5433:	48 85 ff             	test   %rdi,%rdi
    5436:	74 05                	je     543d <_ZN2ML12build4QModelEv.cold+0x3d3>
    5438:	e8 13 ee ff ff       	call   4250 <_ZdlPv@plt>
    543d:	48 89 ef             	mov    %rbp,%rdi
    5440:	4c 89 ed             	mov    %r13,%rbp
    5443:	e8 68 79 00 00       	call   cdb0 <_ZN2ML11LayerParamsD1Ev>
    5448:	48 8b bc 24 00 01 00 	mov    0x100(%rsp),%rdi
    544f:	00 
    5450:	48 85 ff             	test   %rdi,%rdi
    5453:	74 05                	je     545a <_ZN2ML12build4QModelEv.cold+0x3f0>
    5455:	e8 f6 ed ff ff       	call   4250 <_ZdlPv@plt>
    545a:	48 89 df             	mov    %rbx,%rdi
    545d:	48 89 eb             	mov    %rbp,%rbx
    5460:	e8 4b 79 00 00       	call   cdb0 <_ZN2ML11LayerParamsD1Ev>
    5465:	48 8b bc 24 80 01 00 	mov    0x180(%rsp),%rdi
    546c:	00 
    546d:	48 8b 44 24 48       	mov    0x48(%rsp),%rax
    5472:	48 39 c7             	cmp    %rax,%rdi
    5475:	74 05                	je     547c <_ZN2ML12build4QModelEv.cold+0x412>
    5477:	e8 d4 ed ff ff       	call   4250 <_ZdlPv@plt>
    547c:	48 8b bc 24 20 01 00 	mov    0x120(%rsp),%rdi
    5483:	00 
    5484:	48 85 ff             	test   %rdi,%rdi
    5487:	75 32                	jne    54bb <_ZN2ML12build4QModelEv.cold+0x451>
    5489:	4c 89 f7             	mov    %r14,%rdi
    548c:	e8 1f 79 00 00       	call   cdb0 <_ZN2ML11LayerParamsD1Ev>
    5491:	48 8b bc 24 a0 01 00 	mov    0x1a0(%rsp),%rdi
    5498:	00 
    5499:	48 8b 44 24 40       	mov    0x40(%rsp),%rax
    549e:	48 39 c7             	cmp    %rax,%rdi
    54a1:	0f 84 9b fc ff ff    	je     5142 <_ZN2ML12build4QModelEv.cold+0xd8>
    54a7:	e8 a4 ed ff ff       	call   4250 <_ZdlPv@plt>
    54ac:	e9 91 fc ff ff       	jmp    5142 <_ZN2ML12build4QModelEv.cold+0xd8>
    54b1:	e8 9a ed ff ff       	call   4250 <_ZdlPv@plt>
    54b6:	e9 ad fe ff ff       	jmp    5368 <_ZN2ML12build4QModelEv.cold+0x2fe>
    54bb:	e8 90 ed ff ff       	call   4250 <_ZdlPv@plt>
    54c0:	eb c7                	jmp    5489 <_ZN2ML12build4QModelEv.cold+0x41f>
    54c2:	4c 89 e7             	mov    %r12,%rdi
    54c5:	e8 e6 78 00 00       	call   cdb0 <_ZN2ML11LayerParamsD1Ev>
    54ca:	48 8b bc 24 c0 00 00 	mov    0xc0(%rsp),%rdi
    54d1:	00 
    54d2:	48 85 ff             	test   %rdi,%rdi
    54d5:	74 05                	je     54dc <_ZN2ML12build4QModelEv.cold+0x472>
    54d7:	e8 74 ed ff ff       	call   4250 <_ZdlPv@plt>
    54dc:	48 89 ef             	mov    %rbp,%rdi
    54df:	4c 89 ed             	mov    %r13,%rbp
    54e2:	e8 c9 78 00 00       	call   cdb0 <_ZN2ML11LayerParamsD1Ev>
    54e7:	48 8b bc 24 00 01 00 	mov    0x100(%rsp),%rdi
    54ee:	00 
    54ef:	48 85 ff             	test   %rdi,%rdi
    54f2:	74 05                	je     54f9 <_ZN2ML12build4QModelEv.cold+0x48f>
    54f4:	e8 57 ed ff ff       	call   4250 <_ZdlPv@plt>
    54f9:	48 89 df             	mov    %rbx,%rdi
    54fc:	48 89 eb             	mov    %rbp,%rbx
    54ff:	e8 ac 78 00 00       	call   cdb0 <_ZN2ML11LayerParamsD1Ev>
    5504:	48 8b bc 24 80 01 00 	mov    0x180(%rsp),%rdi
    550b:	00 
    550c:	48 8b 44 24 48       	mov    0x48(%rsp),%rax
    5511:	48 39 c7             	cmp    %rax,%rdi
    5514:	74 05                	je     551b <_ZN2ML12build4QModelEv.cold+0x4b1>
    5516:	e8 35 ed ff ff       	call   4250 <_ZdlPv@plt>
    551b:	48 8b bc 24 20 01 00 	mov    0x120(%rsp),%rdi
    5522:	00 
    5523:	48 85 ff             	test   %rdi,%rdi
    5526:	75 28                	jne    5550 <_ZN2ML12build4QModelEv.cold+0x4e6>
    5528:	4c 89 f7             	mov    %r14,%rdi
    552b:	e8 80 78 00 00       	call   cdb0 <_ZN2ML11LayerParamsD1Ev>
    5530:	48 8b bc 24 a0 01 00 	mov    0x1a0(%rsp),%rdi
    5537:	00 
    5538:	48 8b 44 24 40       	mov    0x40(%rsp),%rax
    553d:	48 39 c7             	cmp    %rax,%rdi
    5540:	0f 84 fc fb ff ff    	je     5142 <_ZN2ML12build4QModelEv.cold+0xd8>
    5546:	e8 05 ed ff ff       	call   4250 <_ZdlPv@plt>
    554b:	e9 f2 fb ff ff       	jmp    5142 <_ZN2ML12build4QModelEv.cold+0xd8>
    5550:	e8 fb ec ff ff       	call   4250 <_ZdlPv@plt>
    5555:	eb d1                	jmp    5528 <_ZN2ML12build4QModelEv.cold+0x4be>
    5557:	4c 89 e7             	mov    %r12,%rdi
    555a:	e8 51 78 00 00       	call   cdb0 <_ZN2ML11LayerParamsD1Ev>
    555f:	48 8b bc 24 c0 00 00 	mov    0xc0(%rsp),%rdi
    5566:	00 
    5567:	48 85 ff             	test   %rdi,%rdi
    556a:	74 05                	je     5571 <_ZN2ML12build4QModelEv.cold+0x507>
    556c:	e8 df ec ff ff       	call   4250 <_ZdlPv@plt>
    5571:	48 89 ef             	mov    %rbp,%rdi
    5574:	4c 89 ed             	mov    %r13,%rbp
    5577:	e8 34 78 00 00       	call   cdb0 <_ZN2ML11LayerParamsD1Ev>
    557c:	48 8b bc 24 00 01 00 	mov    0x100(%rsp),%rdi
    5583:	00 
    5584:	48 85 ff             	test   %rdi,%rdi
    5587:	74 05                	je     558e <_ZN2ML12build4QModelEv.cold+0x524>
    5589:	e8 c2 ec ff ff       	call   4250 <_ZdlPv@plt>
    558e:	48 89 df             	mov    %rbx,%rdi
    5591:	48 89 eb             	mov    %rbp,%rbx
    5594:	e8 17 78 00 00       	call   cdb0 <_ZN2ML11LayerParamsD1Ev>
    5599:	48 8b bc 24 80 01 00 	mov    0x180(%rsp),%rdi
    55a0:	00 
    55a1:	48 8b 44 24 48       	mov    0x48(%rsp),%rax
    55a6:	48 39 c7             	cmp    %rax,%rdi
    55a9:	74 05                	je     55b0 <_ZN2ML12build4QModelEv.cold+0x546>
    55ab:	e8 a0 ec ff ff       	call   4250 <_ZdlPv@plt>
    55b0:	48 8b bc 24 20 01 00 	mov    0x120(%rsp),%rdi
    55b7:	00 
    55b8:	48 85 ff             	test   %rdi,%rdi
    55bb:	75 28                	jne    55e5 <_ZN2ML12build4QModelEv.cold+0x57b>
    55bd:	4c 89 f7             	mov    %r14,%rdi
    55c0:	e8 eb 77 00 00       	call   cdb0 <_ZN2ML11LayerParamsD1Ev>
    55c5:	48 8b bc 24 a0 01 00 	mov    0x1a0(%rsp),%rdi
    55cc:	00 
    55cd:	48 8b 44 24 40       	mov    0x40(%rsp),%rax
    55d2:	48 39 c7             	cmp    %rax,%rdi
    55d5:	0f 84 67 fb ff ff    	je     5142 <_ZN2ML12build4QModelEv.cold+0xd8>
    55db:	e8 70 ec ff ff       	call   4250 <_ZdlPv@plt>
    55e0:	e9 5d fb ff ff       	jmp    5142 <_ZN2ML12build4QModelEv.cold+0xd8>
    55e5:	e8 66 ec ff ff       	call   4250 <_ZdlPv@plt>
    55ea:	eb d1                	jmp    55bd <_ZN2ML12build4QModelEv.cold+0x553>
    55ec:	48 89 df             	mov    %rbx,%rdi
    55ef:	48 89 eb             	mov    %rbp,%rbx
    55f2:	e8 b9 77 00 00       	call   cdb0 <_ZN2ML11LayerParamsD1Ev>
    55f7:	48 8b bc 24 a0 01 00 	mov    0x1a0(%rsp),%rdi
    55fe:	00 
    55ff:	48 85 ff             	test   %rdi,%rdi
    5602:	74 05                	je     5609 <_ZN2ML12build4QModelEv.cold+0x59f>
    5604:	e8 47 ec ff ff       	call   4250 <_ZdlPv@plt>
    5609:	4c 89 f7             	mov    %r14,%rdi
    560c:	e8 9f 77 00 00       	call   cdb0 <_ZN2ML11LayerParamsD1Ev>
    5611:	e9 81 fa ff ff       	jmp    5097 <_ZN2ML12build4QModelEv.cold+0x2d>
    5616:	48 89 df             	mov    %rbx,%rdi
    5619:	48 89 eb             	mov    %rbp,%rbx
    561c:	e8 8f 77 00 00       	call   cdb0 <_ZN2ML11LayerParamsD1Ev>
    5621:	48 8b bc 24 a0 01 00 	mov    0x1a0(%rsp),%rdi
    5628:	00 
    5629:	48 85 ff             	test   %rdi,%rdi
    562c:	74 05                	je     5633 <_ZN2ML12build4QModelEv.cold+0x5c9>
    562e:	e8 1d ec ff ff       	call   4250 <_ZdlPv@plt>
    5633:	4c 89 f7             	mov    %r14,%rdi
    5636:	e8 75 77 00 00       	call   cdb0 <_ZN2ML11LayerParamsD1Ev>
    563b:	e9 57 fa ff ff       	jmp    5097 <_ZN2ML12build4QModelEv.cold+0x2d>

0000000000005640 <_ZN2ML12build8QModelEv.cold>:
    5640:	4c 89 e7             	mov    %r12,%rdi
    5643:	e8 08 ec ff ff       	call   4250 <_ZdlPv@plt>
    5648:	48 89 df             	mov    %rbx,%rdi
    564b:	48 89 eb             	mov    %rbp,%rbx
    564e:	e8 5d 77 00 00       	call   cdb0 <_ZN2ML11LayerParamsD1Ev>
    5653:	48 8b bc 24 c0 01 00 	mov    0x1c0(%rsp),%rdi
    565a:	00 
    565b:	48 85 ff             	test   %rdi,%rdi
    565e:	74 05                	je     5665 <_ZN2ML12build8QModelEv.cold+0x25>
    5660:	e8 eb eb ff ff       	call   4250 <_ZdlPv@plt>
    5665:	4c 89 f7             	mov    %r14,%rdi
    5668:	e8 43 77 00 00       	call   cdb0 <_ZN2ML11LayerParamsD1Ev>
    566d:	48 8b bc 24 00 02 00 	mov    0x200(%rsp),%rdi
    5674:	00 
    5675:	48 85 ff             	test   %rdi,%rdi
    5678:	74 05                	je     567f <_ZN2ML12build8QModelEv.cold+0x3f>
    567a:	e8 d1 eb ff ff       	call   4250 <_ZdlPv@plt>
    567f:	4c 89 ff             	mov    %r15,%rdi
    5682:	e8 99 1a 02 00       	call   27120 <_ZNSt6vectorISt10unique_ptrIN2ML5LayerESt14default_deleteIS2_EESaIS5_EED1Ev>
    5687:	48 89 df             	mov    %rbx,%rdi
    568a:	e8 c1 ed ff ff       	call   4450 <_Unwind_Resume@plt>
    568f:	4c 89 e7             	mov    %r12,%rdi
    5692:	e8 19 77 00 00       	call   cdb0 <_ZN2ML11LayerParamsD1Ev>
    5697:	48 8b bc 24 c0 00 00 	mov    0xc0(%rsp),%rdi
    569e:	00 
    569f:	48 85 ff             	test   %rdi,%rdi
    56a2:	74 05                	je     56a9 <_ZN2ML12build8QModelEv.cold+0x69>
    56a4:	e8 a7 eb ff ff       	call   4250 <_ZdlPv@plt>
    56a9:	48 89 ef             	mov    %rbp,%rdi
    56ac:	4c 89 ed             	mov    %r13,%rbp
    56af:	e8 fc 76 00 00       	call   cdb0 <_ZN2ML11LayerParamsD1Ev>
    56b4:	48 8b bc 24 00 01 00 	mov    0x100(%rsp),%rdi
    56bb:	00 
    56bc:	48 85 ff             	test   %rdi,%rdi
    56bf:	74 05                	je     56c6 <_ZN2ML12build8QModelEv.cold+0x86>
    56c1:	e8 8a eb ff ff       	call   4250 <_ZdlPv@plt>
    56c6:	48 89 df             	mov    %rbx,%rdi
    56c9:	48 89 eb             	mov    %rbp,%rbx
    56cc:	e8 df 76 00 00       	call   cdb0 <_ZN2ML11LayerParamsD1Ev>
    56d1:	48 8b bc 24 80 01 00 	mov    0x180(%rsp),%rdi
    56d8:	00 
    56d9:	48 8b 44 24 48       	mov    0x48(%rsp),%rax
    56de:	48 39 c7             	cmp    %rax,%rdi
    56e1:	74 05                	je     56e8 <_ZN2ML12build8QModelEv.cold+0xa8>
    56e3:	e8 68 eb ff ff       	call   4250 <_ZdlPv@plt>
    56e8:	48 8b bc 24 20 01 00 	mov    0x120(%rsp),%rdi
    56ef:	00 
    56f0:	48 85 ff             	test   %rdi,%rdi
    56f3:	0f 85 d1 00 00 00    	jne    57ca <_ZN2ML12build8QModelEv.cold+0x18a>
    56f9:	4c 89 f7             	mov    %r14,%rdi
    56fc:	e8 af 76 00 00       	call   cdb0 <_ZN2ML11LayerParamsD1Ev>
    5701:	48 8b bc 24 a0 01 00 	mov    0x1a0(%rsp),%rdi
    5708:	00 
    5709:	48 8b 44 24 40       	mov    0x40(%rsp),%rax
    570e:	48 39 c7             	cmp    %rax,%rdi
    5711:	74 05                	je     5718 <_ZN2ML12build8QModelEv.cold+0xd8>
    5713:	e8 38 eb ff ff       	call   4250 <_ZdlPv@plt>
    5718:	48 8b bc 24 40 01 00 	mov    0x140(%rsp),%rdi
    571f:	00 
    5720:	48 85 ff             	test   %rdi,%rdi
    5723:	0f 85 51 ff ff ff    	jne    567a <_ZN2ML12build8QModelEv.cold+0x3a>
    5729:	e9 51 ff ff ff       	jmp    567f <_ZN2ML12build8QModelEv.cold+0x3f>
    572e:	4c 89 e7             	mov    %r12,%rdi
    5731:	4d 89 ec             	mov    %r13,%r12
    5734:	e8 77 76 00 00       	call   cdb0 <_ZN2ML11LayerParamsD1Ev>
    5739:	48 8b bc 24 c0 00 00 	mov    0xc0(%rsp),%rdi
    5740:	00 
    5741:	48 85 ff             	test   %rdi,%rdi
    5744:	74 05                	je     574b <_ZN2ML12build8QModelEv.cold+0x10b>
    5746:	e8 05 eb ff ff       	call   4250 <_ZdlPv@plt>
    574b:	48 89 ef             	mov    %rbp,%rdi
    574e:	4c 89 e5             	mov    %r12,%rbp
    5751:	e8 5a 76 00 00       	call   cdb0 <_ZN2ML11LayerParamsD1Ev>
    5756:	48 8b bc 24 00 01 00 	mov    0x100(%rsp),%rdi
    575d:	00 
    575e:	48 85 ff             	test   %rdi,%rdi
    5761:	74 05                	je     5768 <_ZN2ML12build8QModelEv.cold+0x128>
    5763:	e8 e8 ea ff ff       	call   4250 <_ZdlPv@plt>
    5768:	48 89 df             	mov    %rbx,%rdi
    576b:	48 89 eb             	mov    %rbp,%rbx
    576e:	e8 3d 76 00 00       	call   cdb0 <_ZN2ML11LayerParamsD1Ev>
    5773:	48 8b bc 24 80 01 00 	mov    0x180(%rsp),%rdi
    577a:	00 
    577b:	48 8d 84 24 90 01 00 	lea    0x190(%rsp),%rax
    5782:	00 
    5783:	48 39 c7             	cmp    %rax,%rdi
    5786:	74 05                	je     578d <_ZN2ML12build8QModelEv.cold+0x14d>
    5788:	e8 c3 ea ff ff       	call   4250 <_ZdlPv@plt>
    578d:	48 8b bc 24 20 01 00 	mov    0x120(%rsp),%rdi
    5794:	00 
    5795:	48 85 ff             	test   %rdi,%rdi
    5798:	74 05                	je     579f <_ZN2ML12build8QModelEv.cold+0x15f>
    579a:	e8 b1 ea ff ff       	call   4250 <_ZdlPv@plt>
    579f:	4c 89 f7             	mov    %r14,%rdi
    57a2:	e8 09 76 00 00       	call   cdb0 <_ZN2ML11LayerParamsD1Ev>
    57a7:	48 8b bc 24 a0 01 00 	mov    0x1a0(%rsp),%rdi
    57ae:	00 
    57af:	48 8d 84 24 b0 01 00 	lea    0x1b0(%rsp),%rax
    57b6:	00 
    57b7:	48 39 c7             	cmp    %rax,%rdi
    57ba:	0f 84 58 ff ff ff    	je     5718 <_ZN2ML12build8QModelEv.cold+0xd8>
    57c0:	e8 8b ea ff ff       	call   4250 <_ZdlPv@plt>
    57c5:	e9 4e ff ff ff       	jmp    5718 <_ZN2ML12build8QModelEv.cold+0xd8>
    57ca:	e8 81 ea ff ff       	call   4250 <_ZdlPv@plt>
    57cf:	e9 25 ff ff ff       	jmp    56f9 <_ZN2ML12build8QModelEv.cold+0xb9>
    57d4:	48 8b 7c 24 68       	mov    0x68(%rsp),%rdi
    57d9:	e8 72 ea ff ff       	call   4250 <_ZdlPv@plt>
    57de:	48 89 df             	mov    %rbx,%rdi
    57e1:	48 89 eb             	mov    %rbp,%rbx
    57e4:	e8 c7 75 00 00       	call   cdb0 <_ZN2ML11LayerParamsD1Ev>
    57e9:	48 8b bc 24 c0 01 00 	mov    0x1c0(%rsp),%rdi
    57f0:	00 
    57f1:	48 85 ff             	test   %rdi,%rdi
    57f4:	74 05                	je     57fb <_ZN2ML12build8QModelEv.cold+0x1bb>
    57f6:	e8 55 ea ff ff       	call   4250 <_ZdlPv@plt>
    57fb:	4c 89 f7             	mov    %r14,%rdi
    57fe:	e8 ad 75 00 00       	call   cdb0 <_ZN2ML11LayerParamsD1Ev>
    5803:	e9 65 fe ff ff       	jmp    566d <_ZN2ML12build8QModelEv.cold+0x2d>
    5808:	48 89 df             	mov    %rbx,%rdi
    580b:	48 89 eb             	mov    %rbp,%rbx
    580e:	e8 9d 75 00 00       	call   cdb0 <_ZN2ML11LayerParamsD1Ev>
    5813:	48 8b bc 24 a0 01 00 	mov    0x1a0(%rsp),%rdi
    581a:	00 
    581b:	48 85 ff             	test   %rdi,%rdi
    581e:	74 05                	je     5825 <_ZN2ML12build8QModelEv.cold+0x1e5>
    5820:	e8 2b ea ff ff       	call   4250 <_ZdlPv@plt>
    5825:	4c 89 f7             	mov    %r14,%rdi
    5828:	e8 83 75 00 00       	call   cdb0 <_ZN2ML11LayerParamsD1Ev>
    582d:	e9 3b fe ff ff       	jmp    566d <_ZN2ML12build8QModelEv.cold+0x2d>
    5832:	4c 89 e7             	mov    %r12,%rdi
    5835:	e8 76 75 00 00       	call   cdb0 <_ZN2ML11LayerParamsD1Ev>
    583a:	48 8b bc 24 00 01 00 	mov    0x100(%rsp),%rdi
    5841:	00 
    5842:	48 85 ff             	test   %rdi,%rdi
    5845:	74 05                	je     584c <_ZN2ML12build8QModelEv.cold+0x20c>
    5847:	e8 04 ea ff ff       	call   4250 <_ZdlPv@plt>
    584c:	48 89 ef             	mov    %rbp,%rdi
    584f:	4c 89 ed             	mov    %r13,%rbp
    5852:	e8 59 75 00 00       	call   cdb0 <_ZN2ML11LayerParamsD1Ev>
    5857:	48 8b bc 24 20 01 00 	mov    0x120(%rsp),%rdi
    585e:	00 
    585f:	48 85 ff             	test   %rdi,%rdi
    5862:	74 05                	je     5869 <_ZN2ML12build8QModelEv.cold+0x229>
    5864:	e8 e7 e9 ff ff       	call   4250 <_ZdlPv@plt>
    5869:	48 89 df             	mov    %rbx,%rdi
    586c:	48 89 eb             	mov    %rbp,%rbx
    586f:	e8 3c 75 00 00       	call   cdb0 <_ZN2ML11LayerParamsD1Ev>
    5874:	48 8b bc 24 80 01 00 	mov    0x180(%rsp),%rdi
    587b:	00 
    587c:	48 8b 44 24 48       	mov    0x48(%rsp),%rax
    5881:	48 39 c7             	cmp    %rax,%rdi
    5884:	74 05                	je     588b <_ZN2ML12build8QModelEv.cold+0x24b>
    5886:	e8 c5 e9 ff ff       	call   4250 <_ZdlPv@plt>
    588b:	48 8b bc 24 40 01 00 	mov    0x140(%rsp),%rdi
    5892:	00 
    5893:	48 85 ff             	test   %rdi,%rdi
    5896:	75 35                	jne    58cd <_ZN2ML12build8QModelEv.cold+0x28d>
    5898:	4c 89 f7             	mov    %r14,%rdi
    589b:	e8 10 75 00 00       	call   cdb0 <_ZN2ML11LayerParamsD1Ev>
    58a0:	48 8b bc 24 a0 01 00 	mov    0x1a0(%rsp),%rdi
    58a7:	00 
    58a8:	48 8b 44 24 40       	mov    0x40(%rsp),%rax
    58ad:	48 39 c7             	cmp    %rax,%rdi
    58b0:	74 05                	je     58b7 <_ZN2ML12build8QModelEv.cold+0x277>
    58b2:	e8 99 e9 ff ff       	call   4250 <_ZdlPv@plt>
    58b7:	48 8b bc 24 60 01 00 	mov    0x160(%rsp),%rdi
    58be:	00 
    58bf:	48 85 ff             	test   %rdi,%rdi
    58c2:	0f 85 b2 fd ff ff    	jne    567a <_ZN2ML12build8QModelEv.cold+0x3a>
    58c8:	e9 b2 fd ff ff       	jmp    567f <_ZN2ML12build8QModelEv.cold+0x3f>
    58cd:	e8 7e e9 ff ff       	call   4250 <_ZdlPv@plt>
    58d2:	eb c4                	jmp    5898 <_ZN2ML12build8QModelEv.cold+0x258>
    58d4:	4c 89 e7             	mov    %r12,%rdi
    58d7:	e8 d4 74 00 00       	call   cdb0 <_ZN2ML11LayerParamsD1Ev>
    58dc:	48 8b bc 24 00 01 00 	mov    0x100(%rsp),%rdi
    58e3:	00 
    58e4:	48 85 ff             	test   %rdi,%rdi
    58e7:	74 05                	je     58ee <_ZN2ML12build8QModelEv.cold+0x2ae>
    58e9:	e8 62 e9 ff ff       	call   4250 <_ZdlPv@plt>
    58ee:	48 89 ef             	mov    %rbp,%rdi
    58f1:	4c 89 ed             	mov    %r13,%rbp
    58f4:	e8 b7 74 00 00       	call   cdb0 <_ZN2ML11LayerParamsD1Ev>
    58f9:	48 8b bc 24 20 01 00 	mov    0x120(%rsp),%rdi
    5900:	00 
    5901:	48 85 ff             	test   %rdi,%rdi
    5904:	74 05                	je     590b <_ZN2ML12build8QModelEv.cold+0x2cb>
    5906:	e8 45 e9 ff ff       	call   4250 <_ZdlPv@plt>
    590b:	48 89 df             	mov    %rbx,%rdi
    590e:	48 89 eb             	mov    %rbp,%rbx
    5911:	e8 9a 74 00 00       	call   cdb0 <_ZN2ML11LayerParamsD1Ev>
    5916:	48 8b bc 24 80 01 00 	mov    0x180(%rsp),%rdi
    591d:	00 
    591e:	48 8b 44 24 48       	mov    0x48(%rsp),%rax
    5923:	48 39 c7             	cmp    %rax,%rdi
    5926:	74 05                	je     592d <_ZN2ML12build8QModelEv.cold+0x2ed>
    5928:	e8 23 e9 ff ff       	call   4250 <_ZdlPv@plt>
    592d:	48 8b bc 24 40 01 00 	mov    0x140(%rsp),%rdi
    5934:	00 
    5935:	48 85 ff             	test   %rdi,%rdi
    5938:	0f 85 49 01 00 00    	jne    5a87 <_ZN2ML12build8QModelEv.cold+0x447>
    593e:	4c 89 f7             	mov    %r14,%rdi
    5941:	e8 6a 74 00 00       	call   cdb0 <_ZN2ML11LayerParamsD1Ev>
    5946:	48 8b bc 24 a0 01 00 	mov    0x1a0(%rsp),%rdi
    594d:	00 
    594e:	48 8b 44 24 40       	mov    0x40(%rsp),%rax
    5953:	48 39 c7             	cmp    %rax,%rdi
    5956:	0f 84 5b ff ff ff    	je     58b7 <_ZN2ML12build8QModelEv.cold+0x277>
    595c:	e8 ef e8 ff ff       	call   4250 <_ZdlPv@plt>
    5961:	e9 51 ff ff ff       	jmp    58b7 <_ZN2ML12build8QModelEv.cold+0x277>
    5966:	4c 89 e7             	mov    %r12,%rdi
    5969:	e8 42 74 00 00       	call   cdb0 <_ZN2ML11LayerParamsD1Ev>
    596e:	48 8b bc 24 c0 00 00 	mov    0xc0(%rsp),%rdi
    5975:	00 
    5976:	48 85 ff             	test   %rdi,%rdi
    5979:	74 05                	je     5980 <_ZN2ML12build8QModelEv.cold+0x340>
    597b:	e8 d0 e8 ff ff       	call   4250 <_ZdlPv@plt>
    5980:	48 89 ef             	mov    %rbp,%rdi
    5983:	4c 89 ed             	mov    %r13,%rbp
    5986:	e8 25 74 00 00       	call   cdb0 <_ZN2ML11LayerParamsD1Ev>
    598b:	48 8b bc 24 00 01 00 	mov    0x100(%rsp),%rdi
    5992:	00 
    5993:	48 85 ff             	test   %rdi,%rdi
    5996:	74 05                	je     599d <_ZN2ML12build8QModelEv.cold+0x35d>
    5998:	e8 b3 e8 ff ff       	call   4250 <_ZdlPv@plt>
    599d:	48 89 df             	mov    %rbx,%rdi
    59a0:	48 89 eb             	mov    %rbp,%rbx
    59a3:	e8 08 74 00 00       	call   cdb0 <_ZN2ML11LayerParamsD1Ev>
    59a8:	48 8b bc 24 80 01 00 	mov    0x180(%rsp),%rdi
    59af:	00 
    59b0:	48 8b 44 24 48       	mov    0x48(%rsp),%rax
    59b5:	48 39 c7             	cmp    %rax,%rdi
    59b8:	74 05                	je     59bf <_ZN2ML12build8QModelEv.cold+0x37f>
    59ba:	e8 91 e8 ff ff       	call   4250 <_ZdlPv@plt>
    59bf:	48 8b bc 24 20 01 00 	mov    0x120(%rsp),%rdi
    59c6:	00 
    59c7:	48 85 ff             	test   %rdi,%rdi
    59ca:	74 05                	je     59d1 <_ZN2ML12build8QModelEv.cold+0x391>
    59cc:	e8 7f e8 ff ff       	call   4250 <_ZdlPv@plt>
    59d1:	4c 89 f7             	mov    %r14,%rdi
    59d4:	e8 d7 73 00 00       	call   cdb0 <_ZN2ML11LayerParamsD1Ev>
    59d9:	48 8b bc 24 a0 01 00 	mov    0x1a0(%rsp),%rdi
    59e0:	00 
    59e1:	48 8b 44 24 40       	mov    0x40(%rsp),%rax
    59e6:	48 39 c7             	cmp    %rax,%rdi
    59e9:	0f 84 29 fd ff ff    	je     5718 <_ZN2ML12build8QModelEv.cold+0xd8>
    59ef:	e8 5c e8 ff ff       	call   4250 <_ZdlPv@plt>
    59f4:	e9 1f fd ff ff       	jmp    5718 <_ZN2ML12build8QModelEv.cold+0xd8>
    59f9:	4c 89 e7             	mov    %r12,%rdi
    59fc:	e8 af 73 00 00       	call   cdb0 <_ZN2ML11LayerParamsD1Ev>
    5a01:	48 8b bc 24 c0 00 00 	mov    0xc0(%rsp),%rdi
    5a08:	00 
    5a09:	48 85 ff             	test   %rdi,%rdi
    5a0c:	74 05                	je     5a13 <_ZN2ML12build8QModelEv.cold+0x3d3>
    5a0e:	e8 3d e8 ff ff       	call   4250 <_ZdlPv@plt>
    5a13:	48 89 ef             	mov    %rbp,%rdi
    5a16:	4c 89 ed             	mov    %r13,%rbp
    5a19:	e8 92 73 00 00       	call   cdb0 <_ZN2ML11LayerParamsD1Ev>
    5a1e:	48 8b bc 24 00 01 00 	mov    0x100(%rsp),%rdi
    5a25:	00 
    5a26:	48 85 ff             	test   %rdi,%rdi
    5a29:	74 05                	je     5a30 <_ZN2ML12build8QModelEv.cold+0x3f0>
    5a2b:	e8 20 e8 ff ff       	call   4250 <_ZdlPv@plt>
    5a30:	48 89 df             	mov    %rbx,%rdi
    5a33:	48 89 eb             	mov    %rbp,%rbx
    5a36:	e8 75 73 00 00       	call   cdb0 <_ZN2ML11LayerParamsD1Ev>
    5a3b:	48 8b bc 24 80 01 00 	mov    0x180(%rsp),%rdi
    5a42:	00 
    5a43:	48 8b 44 24 48       	mov    0x48(%rsp),%rax
    5a48:	48 39 c7             	cmp    %rax,%rdi
    5a4b:	74 05                	je     5a52 <_ZN2ML12build8QModelEv.cold+0x412>
    5a4d:	e8 fe e7 ff ff       	call   4250 <_ZdlPv@plt>
    5a52:	48 8b bc 24 20 01 00 	mov    0x120(%rsp),%rdi
    5a59:	00 
    5a5a:	48 85 ff             	test   %rdi,%rdi
    5a5d:	75 32                	jne    5a91 <_ZN2ML12build8QModelEv.cold+0x451>
    5a5f:	4c 89 f7             	mov    %r14,%rdi
    5a62:	e8 49 73 00 00       	call   cdb0 <_ZN2ML11LayerParamsD1Ev>
    5a67:	48 8b bc 24 a0 01 00 	mov    0x1a0(%rsp),%rdi
    5a6e:	00 
    5a6f:	48 8b 44 24 40       	mov    0x40(%rsp),%rax
    5a74:	48 39 c7             	cmp    %rax,%rdi
    5a77:	0f 84 9b fc ff ff    	je     5718 <_ZN2ML12build8QModelEv.cold+0xd8>
    5a7d:	e8 ce e7 ff ff       	call   4250 <_ZdlPv@plt>
    5a82:	e9 91 fc ff ff       	jmp    5718 <_ZN2ML12build8QModelEv.cold+0xd8>
    5a87:	e8 c4 e7 ff ff       	call   4250 <_ZdlPv@plt>
    5a8c:	e9 ad fe ff ff       	jmp    593e <_ZN2ML12build8QModelEv.cold+0x2fe>
    5a91:	e8 ba e7 ff ff       	call   4250 <_ZdlPv@plt>
    5a96:	eb c7                	jmp    5a5f <_ZN2ML12build8QModelEv.cold+0x41f>
    5a98:	4c 89 e7             	mov    %r12,%rdi
    5a9b:	e8 10 73 00 00       	call   cdb0 <_ZN2ML11LayerParamsD1Ev>
    5aa0:	48 8b bc 24 c0 00 00 	mov    0xc0(%rsp),%rdi
    5aa7:	00 
    5aa8:	48 85 ff             	test   %rdi,%rdi
    5aab:	74 05                	je     5ab2 <_ZN2ML12build8QModelEv.cold+0x472>
    5aad:	e8 9e e7 ff ff       	call   4250 <_ZdlPv@plt>
    5ab2:	48 89 ef             	mov    %rbp,%rdi
    5ab5:	4c 89 ed             	mov    %r13,%rbp
    5ab8:	e8 f3 72 00 00       	call   cdb0 <_ZN2ML11LayerParamsD1Ev>
    5abd:	48 8b bc 24 00 01 00 	mov    0x100(%rsp),%rdi
    5ac4:	00 
    5ac5:	48 85 ff             	test   %rdi,%rdi
    5ac8:	74 05                	je     5acf <_ZN2ML12build8QModelEv.cold+0x48f>
    5aca:	e8 81 e7 ff ff       	call   4250 <_ZdlPv@plt>
    5acf:	48 89 df             	mov    %rbx,%rdi
    5ad2:	48 89 eb             	mov    %rbp,%rbx
    5ad5:	e8 d6 72 00 00       	call   cdb0 <_ZN2ML11LayerParamsD1Ev>
    5ada:	48 8b bc 24 80 01 00 	mov    0x180(%rsp),%rdi
    5ae1:	00 
    5ae2:	48 8b 44 24 48       	mov    0x48(%rsp),%rax
    5ae7:	48 39 c7             	cmp    %rax,%rdi
    5aea:	74 05                	je     5af1 <_ZN2ML12build8QModelEv.cold+0x4b1>
    5aec:	e8 5f e7 ff ff       	call   4250 <_ZdlPv@plt>
    5af1:	48 8b bc 24 20 01 00 	mov    0x120(%rsp),%rdi
    5af8:	00 
    5af9:	48 85 ff             	test   %rdi,%rdi
    5afc:	75 28                	jne    5b26 <_ZN2ML12build8QModelEv.cold+0x4e6>
    5afe:	4c 89 f7             	mov    %r14,%rdi
    5b01:	e8 aa 72 00 00       	call   cdb0 <_ZN2ML11LayerParamsD1Ev>
    5b06:	48 8b bc 24 a0 01 00 	mov    0x1a0(%rsp),%rdi
    5b0d:	00 
    5b0e:	48 8b 44 24 40       	mov    0x40(%rsp),%rax
    5b13:	48 39 c7             	cmp    %rax,%rdi
    5b16:	0f 84 fc fb ff ff    	je     5718 <_ZN2ML12build8QModelEv.cold+0xd8>
    5b1c:	e8 2f e7 ff ff       	call   4250 <_ZdlPv@plt>
    5b21:	e9 f2 fb ff ff       	jmp    5718 <_ZN2ML12build8QModelEv.cold+0xd8>
    5b26:	e8 25 e7 ff ff       	call   4250 <_ZdlPv@plt>
    5b2b:	eb d1                	jmp    5afe <_ZN2ML12build8QModelEv.cold+0x4be>
    5b2d:	4c 89 e7             	mov    %r12,%rdi
    5b30:	e8 7b 72 00 00       	call   cdb0 <_ZN2ML11LayerParamsD1Ev>
    5b35:	48 8b bc 24 c0 00 00 	mov    0xc0(%rsp),%rdi
    5b3c:	00 
    5b3d:	48 85 ff             	test   %rdi,%rdi
    5b40:	74 05                	je     5b47 <_ZN2ML12build8QModelEv.cold+0x507>
    5b42:	e8 09 e7 ff ff       	call   4250 <_ZdlPv@plt>
    5b47:	48 89 ef             	mov    %rbp,%rdi
    5b4a:	4c 89 ed             	mov    %r13,%rbp
    5b4d:	e8 5e 72 00 00       	call   cdb0 <_ZN2ML11LayerParamsD1Ev>
    5b52:	48 8b bc 24 00 01 00 	mov    0x100(%rsp),%rdi
    5b59:	00 
    5b5a:	48 85 ff             	test   %rdi,%rdi
    5b5d:	74 05                	je     5b64 <_ZN2ML12build8QModelEv.cold+0x524>
    5b5f:	e8 ec e6 ff ff       	call   4250 <_ZdlPv@plt>
    5b64:	48 89 df             	mov    %rbx,%rdi
    5b67:	48 89 eb             	mov    %rbp,%rbx
    5b6a:	e8 41 72 00 00       	call   cdb0 <_ZN2ML11LayerParamsD1Ev>
    5b6f:	48 8b bc 24 80 01 00 	mov    0x180(%rsp),%rdi
    5b76:	00 
    5b77:	48 8b 44 24 48       	mov    0x48(%rsp),%rax
    5b7c:	48 39 c7             	cmp    %rax,%rdi
    5b7f:	74 05                	je     5b86 <_ZN2ML12build8QModelEv.cold+0x546>
    5b81:	e8 ca e6 ff ff       	call   4250 <_ZdlPv@plt>
    5b86:	48 8b bc 24 20 01 00 	mov    0x120(%rsp),%rdi
    5b8d:	00 
    5b8e:	48 85 ff             	test   %rdi,%rdi
    5b91:	75 28                	jne    5bbb <_ZN2ML12build8QModelEv.cold+0x57b>
    5b93:	4c 89 f7             	mov    %r14,%rdi
    5b96:	e8 15 72 00 00       	call   cdb0 <_ZN2ML11LayerParamsD1Ev>
    5b9b:	48 8b bc 24 a0 01 00 	mov    0x1a0(%rsp),%rdi
    5ba2:	00 
    5ba3:	48 8b 44 24 40       	mov    0x40(%rsp),%rax
    5ba8:	48 39 c7             	cmp    %rax,%rdi
    5bab:	0f 84 67 fb ff ff    	je     5718 <_ZN2ML12build8QModelEv.cold+0xd8>
    5bb1:	e8 9a e6 ff ff       	call   4250 <_ZdlPv@plt>
    5bb6:	e9 5d fb ff ff       	jmp    5718 <_ZN2ML12build8QModelEv.cold+0xd8>
    5bbb:	e8 90 e6 ff ff       	call   4250 <_ZdlPv@plt>
    5bc0:	eb d1                	jmp    5b93 <_ZN2ML12build8QModelEv.cold+0x553>
    5bc2:	48 89 df             	mov    %rbx,%rdi
    5bc5:	48 89 eb             	mov    %rbp,%rbx
    5bc8:	e8 e3 71 00 00       	call   cdb0 <_ZN2ML11LayerParamsD1Ev>
    5bcd:	48 8b bc 24 a0 01 00 	mov    0x1a0(%rsp),%rdi
    5bd4:	00 
    5bd5:	48 85 ff             	test   %rdi,%rdi
    5bd8:	74 05                	je     5bdf <_ZN2ML12build8QModelEv.cold+0x59f>
    5bda:	e8 71 e6 ff ff       	call   4250 <_ZdlPv@plt>
    5bdf:	4c 89 f7             	mov    %r14,%rdi
    5be2:	e8 c9 71 00 00       	call   cdb0 <_ZN2ML11LayerParamsD1Ev>
    5be7:	e9 81 fa ff ff       	jmp    566d <_ZN2ML12build8QModelEv.cold+0x2d>
    5bec:	48 89 df             	mov    %rbx,%rdi
    5bef:	48 89 eb             	mov    %rbp,%rbx
    5bf2:	e8 b9 71 00 00       	call   cdb0 <_ZN2ML11LayerParamsD1Ev>
    5bf7:	48 8b bc 24 a0 01 00 	mov    0x1a0(%rsp),%rdi
    5bfe:	00 
    5bff:	48 85 ff             	test   %rdi,%rdi
    5c02:	74 05                	je     5c09 <_ZN2ML12build8QModelEv.cold+0x5c9>
    5c04:	e8 47 e6 ff ff       	call   4250 <_ZdlPv@plt>
    5c09:	4c 89 f7             	mov    %r14,%rdi
    5c0c:	e8 9f 71 00 00       	call   cdb0 <_ZN2ML11LayerParamsD1Ev>
    5c11:	e9 57 fa ff ff       	jmp    566d <_ZN2ML12build8QModelEv.cold+0x2d>

0000000000005c16 <_ZN2ML13buildToyModelENS_4PathE.cold>:
    5c16:	4c 89 e7             	mov    %r12,%rdi
    5c19:	4d 89 ec             	mov    %r13,%r12
    5c1c:	e8 8f 71 00 00       	call   cdb0 <_ZN2ML11LayerParamsD1Ev>
    5c21:	48 8b bc 24 c0 00 00 	mov    0xc0(%rsp),%rdi
    5c28:	00 
    5c29:	48 85 ff             	test   %rdi,%rdi
    5c2c:	74 05                	je     5c33 <_ZN2ML13buildToyModelENS_4PathE.cold+0x1d>
    5c2e:	e8 1d e6 ff ff       	call   4250 <_ZdlPv@plt>
    5c33:	48 89 ef             	mov    %rbp,%rdi
    5c36:	4c 89 e5             	mov    %r12,%rbp
    5c39:	e8 72 71 00 00       	call   cdb0 <_ZN2ML11LayerParamsD1Ev>
    5c3e:	48 8b bc 24 00 01 00 	mov    0x100(%rsp),%rdi
    5c45:	00 
    5c46:	48 85 ff             	test   %rdi,%rdi
    5c49:	75 75                	jne    5cc0 <_ZN2ML13buildToyModelENS_4PathE.cold+0xaa>
    5c4b:	4c 89 f7             	mov    %r14,%rdi
    5c4e:	e8 5d 71 00 00       	call   cdb0 <_ZN2ML11LayerParamsD1Ev>
    5c53:	48 8b bc 24 60 01 00 	mov    0x160(%rsp),%rdi
    5c5a:	00 
    5c5b:	48 8b 44 24 68       	mov    0x68(%rsp),%rax
    5c60:	48 39 c7             	cmp    %rax,%rdi
    5c63:	74 05                	je     5c6a <_ZN2ML13buildToyModelENS_4PathE.cold+0x54>
    5c65:	e8 e6 e5 ff ff       	call   4250 <_ZdlPv@plt>
    5c6a:	48 8b bc 24 20 01 00 	mov    0x120(%rsp),%rdi
    5c71:	00 
    5c72:	48 85 ff             	test   %rdi,%rdi
    5c75:	74 05                	je     5c7c <_ZN2ML13buildToyModelENS_4PathE.cold+0x66>
    5c77:	e8 d4 e5 ff ff       	call   4250 <_ZdlPv@plt>
    5c7c:	48 89 df             	mov    %rbx,%rdi
    5c7f:	48 89 eb             	mov    %rbp,%rbx
    5c82:	e8 29 71 00 00       	call   cdb0 <_ZN2ML11LayerParamsD1Ev>
    5c87:	48 8b bc 24 a0 01 00 	mov    0x1a0(%rsp),%rdi
    5c8e:	00 
    5c8f:	48 8b 44 24 48       	mov    0x48(%rsp),%rax
    5c94:	48 39 c7             	cmp    %rax,%rdi
    5c97:	74 05                	je     5c9e <_ZN2ML13buildToyModelENS_4PathE.cold+0x88>
    5c99:	e8 b2 e5 ff ff       	call   4250 <_ZdlPv@plt>
    5c9e:	48 8b bc 24 40 01 00 	mov    0x140(%rsp),%rdi
    5ca5:	00 
    5ca6:	48 85 ff             	test   %rdi,%rdi
    5ca9:	74 05                	je     5cb0 <_ZN2ML13buildToyModelENS_4PathE.cold+0x9a>
    5cab:	e8 a0 e5 ff ff       	call   4250 <_ZdlPv@plt>
    5cb0:	4c 89 ff             	mov    %r15,%rdi
    5cb3:	e8 68 14 02 00       	call   27120 <_ZNSt6vectorISt10unique_ptrIN2ML5LayerESt14default_deleteIS2_EESaIS5_EED1Ev>
    5cb8:	48 89 df             	mov    %rbx,%rdi
    5cbb:	e8 90 e7 ff ff       	call   4450 <_Unwind_Resume@plt>
    5cc0:	e8 8b e5 ff ff       	call   4250 <_ZdlPv@plt>
    5cc5:	eb 84                	jmp    5c4b <_ZN2ML13buildToyModelENS_4PathE.cold+0x35>
    5cc7:	48 8b 7c 24 68       	mov    0x68(%rsp),%rdi
    5ccc:	e8 7f e5 ff ff       	call   4250 <_ZdlPv@plt>
    5cd1:	4c 89 f7             	mov    %r14,%rdi
    5cd4:	e8 d7 70 00 00       	call   cdb0 <_ZN2ML11LayerParamsD1Ev>
    5cd9:	48 8b bc 24 c0 01 00 	mov    0x1c0(%rsp),%rdi
    5ce0:	00 
    5ce1:	48 85 ff             	test   %rdi,%rdi
    5ce4:	74 05                	je     5ceb <_ZN2ML13buildToyModelENS_4PathE.cold+0xd5>
    5ce6:	e8 65 e5 ff ff       	call   4250 <_ZdlPv@plt>
    5ceb:	48 89 df             	mov    %rbx,%rdi
    5cee:	48 89 eb             	mov    %rbp,%rbx
    5cf1:	e8 ba 70 00 00       	call   cdb0 <_ZN2ML11LayerParamsD1Ev>
    5cf6:	48 8b bc 24 00 02 00 	mov    0x200(%rsp),%rdi
    5cfd:	00 
    5cfe:	48 85 ff             	test   %rdi,%rdi
    5d01:	74 ad                	je     5cb0 <_ZN2ML13buildToyModelENS_4PathE.cold+0x9a>
    5d03:	e8 48 e5 ff ff       	call   4250 <_ZdlPv@plt>
    5d08:	eb a6                	jmp    5cb0 <_ZN2ML13buildToyModelENS_4PathE.cold+0x9a>
    5d0a:	4c 89 e7             	mov    %r12,%rdi
    5d0d:	e8 3e e5 ff ff       	call   4250 <_ZdlPv@plt>
    5d12:	4c 89 f7             	mov    %r14,%rdi
    5d15:	e8 96 70 00 00       	call   cdb0 <_ZN2ML11LayerParamsD1Ev>
    5d1a:	48 8b bc 24 c0 01 00 	mov    0x1c0(%rsp),%rdi
    5d21:	00 
    5d22:	48 85 ff             	test   %rdi,%rdi
    5d25:	74 05                	je     5d2c <_ZN2ML13buildToyModelENS_4PathE.cold+0x116>
    5d27:	e8 24 e5 ff ff       	call   4250 <_ZdlPv@plt>
    5d2c:	48 89 df             	mov    %rbx,%rdi
    5d2f:	48 89 eb             	mov    %rbp,%rbx
    5d32:	e8 79 70 00 00       	call   cdb0 <_ZN2ML11LayerParamsD1Ev>
    5d37:	48 8b bc 24 00 02 00 	mov    0x200(%rsp),%rdi
    5d3e:	00 
    5d3f:	48 85 ff             	test   %rdi,%rdi
    5d42:	0f 84 68 ff ff ff    	je     5cb0 <_ZN2ML13buildToyModelENS_4PathE.cold+0x9a>
    5d48:	e8 03 e5 ff ff       	call   4250 <_ZdlPv@plt>
    5d4d:	e9 5e ff ff ff       	jmp    5cb0 <_ZN2ML13buildToyModelENS_4PathE.cold+0x9a>
    5d52:	4c 89 e7             	mov    %r12,%rdi
    5d55:	4d 89 ec             	mov    %r13,%r12
    5d58:	e8 53 70 00 00       	call   cdb0 <_ZN2ML11LayerParamsD1Ev>
    5d5d:	48 8b bc 24 c0 00 00 	mov    0xc0(%rsp),%rdi
    5d64:	00 
    5d65:	48 85 ff             	test   %rdi,%rdi
    5d68:	74 05                	je     5d6f <_ZN2ML13buildToyModelENS_4PathE.cold+0x159>
    5d6a:	e8 e1 e4 ff ff       	call   4250 <_ZdlPv@plt>
    5d6f:	48 89 ef             	mov    %rbp,%rdi
    5d72:	4c 89 e5             	mov    %r12,%rbp
    5d75:	e8 36 70 00 00       	call   cdb0 <_ZN2ML11LayerParamsD1Ev>
    5d7a:	48 8b bc 24 00 01 00 	mov    0x100(%rsp),%rdi
    5d81:	00 
    5d82:	48 85 ff             	test   %rdi,%rdi
    5d85:	75 6e                	jne    5df5 <_ZN2ML13buildToyModelENS_4PathE.cold+0x1df>
    5d87:	4c 89 f7             	mov    %r14,%rdi
    5d8a:	e8 21 70 00 00       	call   cdb0 <_ZN2ML11LayerParamsD1Ev>
    5d8f:	48 8b bc 24 60 01 00 	mov    0x160(%rsp),%rdi
    5d96:	00 
    5d97:	48 8b 44 24 68       	mov    0x68(%rsp),%rax
    5d9c:	48 39 c7             	cmp    %rax,%rdi
    5d9f:	74 05                	je     5da6 <_ZN2ML13buildToyModelENS_4PathE.cold+0x190>
    5da1:	e8 aa e4 ff ff       	call   4250 <_ZdlPv@plt>
    5da6:	48 8b bc 24 20 01 00 	mov    0x120(%rsp),%rdi
    5dad:	00 
    5dae:	48 85 ff             	test   %rdi,%rdi
    5db1:	74 05                	je     5db8 <_ZN2ML13buildToyModelENS_4PathE.cold+0x1a2>
    5db3:	e8 98 e4 ff ff       	call   4250 <_ZdlPv@plt>
    5db8:	48 89 df             	mov    %rbx,%rdi
    5dbb:	48 89 eb             	mov    %rbp,%rbx
    5dbe:	e8 ed 6f 00 00       	call   cdb0 <_ZN2ML11LayerParamsD1Ev>
    5dc3:	48 8b bc 24 a0 01 00 	mov    0x1a0(%rsp),%rdi
    5dca:	00 
    5dcb:	48 8b 44 24 48       	mov    0x48(%rsp),%rax
    5dd0:	48 39 c7             	cmp    %rax,%rdi
    5dd3:	74 05                	je     5dda <_ZN2ML13buildToyModelENS_4PathE.cold+0x1c4>
    5dd5:	e8 76 e4 ff ff       	call   4250 <_ZdlPv@plt>
    5dda:	48 8b bc 24 40 01 00 	mov    0x140(%rsp),%rdi
    5de1:	00 
    5de2:	48 85 ff             	test   %rdi,%rdi
    5de5:	0f 84 c5 fe ff ff    	je     5cb0 <_ZN2ML13buildToyModelENS_4PathE.cold+0x9a>
    5deb:	e8 60 e4 ff ff       	call   4250 <_ZdlPv@plt>
    5df0:	e9 bb fe ff ff       	jmp    5cb0 <_ZN2ML13buildToyModelENS_4PathE.cold+0x9a>
    5df5:	e8 56 e4 ff ff       	call   4250 <_ZdlPv@plt>
    5dfa:	eb 8b                	jmp    5d87 <_ZN2ML13buildToyModelENS_4PathE.cold+0x171>
    5dfc:	4c 89 e7             	mov    %r12,%rdi
    5dff:	e8 ac 6f 00 00       	call   cdb0 <_ZN2ML11LayerParamsD1Ev>
    5e04:	48 8b bc 24 00 01 00 	mov    0x100(%rsp),%rdi
    5e0b:	00 
    5e0c:	48 85 ff             	test   %rdi,%rdi
    5e0f:	74 05                	je     5e16 <_ZN2ML13buildToyModelENS_4PathE.cold+0x200>
    5e11:	e8 3a e4 ff ff       	call   4250 <_ZdlPv@plt>
    5e16:	48 89 ef             	mov    %rbp,%rdi
    5e19:	4c 89 ed             	mov    %r13,%rbp
    5e1c:	e8 8f 6f 00 00       	call   cdb0 <_ZN2ML11LayerParamsD1Ev>
    5e21:	48 8b bc 24 20 01 00 	mov    0x120(%rsp),%rdi
    5e28:	00 
    5e29:	48 85 ff             	test   %rdi,%rdi
    5e2c:	0f 85 19 01 00 00    	jne    5f4b <_ZN2ML13buildToyModelENS_4PathE.cold+0x335>
    5e32:	4c 89 f7             	mov    %r14,%rdi
    5e35:	e8 76 6f 00 00       	call   cdb0 <_ZN2ML11LayerParamsD1Ev>
    5e3a:	48 8b bc 24 80 01 00 	mov    0x180(%rsp),%rdi
    5e41:	00 
    5e42:	48 8d 84 24 90 01 00 	lea    0x190(%rsp),%rax
    5e49:	00 
    5e4a:	48 39 c7             	cmp    %rax,%rdi
    5e4d:	74 05                	je     5e54 <_ZN2ML13buildToyModelENS_4PathE.cold+0x23e>
    5e4f:	e8 fc e3 ff ff       	call   4250 <_ZdlPv@plt>
    5e54:	48 8b bc 24 40 01 00 	mov    0x140(%rsp),%rdi
    5e5b:	00 
    5e5c:	48 85 ff             	test   %rdi,%rdi
    5e5f:	74 05                	je     5e66 <_ZN2ML13buildToyModelENS_4PathE.cold+0x250>
    5e61:	e8 ea e3 ff ff       	call   4250 <_ZdlPv@plt>
    5e66:	48 89 df             	mov    %rbx,%rdi
    5e69:	48 89 eb             	mov    %rbp,%rbx
    5e6c:	e8 3f 6f 00 00       	call   cdb0 <_ZN2ML11LayerParamsD1Ev>
    5e71:	48 8b bc 24 a0 01 00 	mov    0x1a0(%rsp),%rdi
    5e78:	00 
    5e79:	48 8b 44 24 48       	mov    0x48(%rsp),%rax
    5e7e:	48 39 c7             	cmp    %rax,%rdi
    5e81:	74 05                	je     5e88 <_ZN2ML13buildToyModelENS_4PathE.cold+0x272>
    5e83:	e8 c8 e3 ff ff       	call   4250 <_ZdlPv@plt>
    5e88:	48 8b bc 24 60 01 00 	mov    0x160(%rsp),%rdi
    5e8f:	00 
    5e90:	48 85 ff             	test   %rdi,%rdi
    5e93:	0f 84 17 fe ff ff    	je     5cb0 <_ZN2ML13buildToyModelENS_4PathE.cold+0x9a>
    5e99:	e8 b2 e3 ff ff       	call   4250 <_ZdlPv@plt>
    5e9e:	e9 0d fe ff ff       	jmp    5cb0 <_ZN2ML13buildToyModelENS_4PathE.cold+0x9a>
    5ea3:	4c 89 e7             	mov    %r12,%rdi
    5ea6:	4d 89 ec             	mov    %r13,%r12
    5ea9:	e8 02 6f 00 00       	call   cdb0 <_ZN2ML11LayerParamsD1Ev>
    5eae:	48 8b bc 24 c0 00 00 	mov    0xc0(%rsp),%rdi
    5eb5:	00 
    5eb6:	48 85 ff             	test   %rdi,%rdi
    5eb9:	74 05                	je     5ec0 <_ZN2ML13buildToyModelENS_4PathE.cold+0x2aa>
    5ebb:	e8 90 e3 ff ff       	call   4250 <_ZdlPv@plt>
    5ec0:	48 89 ef             	mov    %rbp,%rdi
    5ec3:	4c 89 e5             	mov    %r12,%rbp
    5ec6:	e8 e5 6e 00 00       	call   cdb0 <_ZN2ML11LayerParamsD1Ev>
    5ecb:	48 8b bc 24 00 01 00 	mov    0x100(%rsp),%rdi
    5ed2:	00 
    5ed3:	48 85 ff             	test   %rdi,%rdi
    5ed6:	74 05                	je     5edd <_ZN2ML13buildToyModelENS_4PathE.cold+0x2c7>
    5ed8:	e8 73 e3 ff ff       	call   4250 <_ZdlPv@plt>
    5edd:	4c 89 f7             	mov    %r14,%rdi
    5ee0:	e8 cb 6e 00 00       	call   cdb0 <_ZN2ML11LayerParamsD1Ev>
    5ee5:	48 8b bc 24 60 01 00 	mov    0x160(%rsp),%rdi
    5eec:	00 
    5eed:	48 8b 44 24 68       	mov    0x68(%rsp),%rax
    5ef2:	48 39 c7             	cmp    %rax,%rdi
    5ef5:	74 05                	je     5efc <_ZN2ML13buildToyModelENS_4PathE.cold+0x2e6>
    5ef7:	e8 54 e3 ff ff       	call   4250 <_ZdlPv@plt>
    5efc:	48 8b bc 24 20 01 00 	mov    0x120(%rsp),%rdi
    5f03:	00 
    5f04:	48 85 ff             	test   %rdi,%rdi
    5f07:	74 05                	je     5f0e <_ZN2ML13buildToyModelENS_4PathE.cold+0x2f8>
    5f09:	e8 42 e3 ff ff       	call   4250 <_ZdlPv@plt>
    5f0e:	48 89 df             	mov    %rbx,%rdi
    5f11:	48 89 eb             	mov    %rbp,%rbx
    5f14:	e8 97 6e 00 00       	call   cdb0 <_ZN2ML11LayerParamsD1Ev>
    5f19:	48 8b bc 24 a0 01 00 	mov    0x1a0(%rsp),%rdi
    5f20:	00 
    5f21:	48 8b 44 24 48       	mov    0x48(%rsp),%rax
    5f26:	48 39 c7             	cmp    %rax,%rdi
    5f29:	74 05                	je     5f30 <_ZN2ML13buildToyModelENS_4PathE.cold+0x31a>
    5f2b:	e8 20 e3 ff ff       	call   4250 <_ZdlPv@plt>
    5f30:	48 8b bc 24 40 01 00 	mov    0x140(%rsp),%rdi
    5f37:	00 
    5f38:	48 85 ff             	test   %rdi,%rdi
    5f3b:	0f 84 6f fd ff ff    	je     5cb0 <_ZN2ML13buildToyModelENS_4PathE.cold+0x9a>
    5f41:	e8 0a e3 ff ff       	call   4250 <_ZdlPv@plt>
    5f46:	e9 65 fd ff ff       	jmp    5cb0 <_ZN2ML13buildToyModelENS_4PathE.cold+0x9a>
    5f4b:	e8 00 e3 ff ff       	call   4250 <_ZdlPv@plt>
    5f50:	e9 dd fe ff ff       	jmp    5e32 <_ZN2ML13buildToyModelENS_4PathE.cold+0x21c>
    5f55:	4c 89 e7             	mov    %r12,%rdi
    5f58:	4d 89 ec             	mov    %r13,%r12
    5f5b:	e8 50 6e 00 00       	call   cdb0 <_ZN2ML11LayerParamsD1Ev>
    5f60:	48 8b bc 24 00 01 00 	mov    0x100(%rsp),%rdi
    5f67:	00 
    5f68:	48 85 ff             	test   %rdi,%rdi
    5f6b:	74 05                	je     5f72 <_ZN2ML13buildToyModelENS_4PathE.cold+0x35c>
    5f6d:	e8 de e2 ff ff       	call   4250 <_ZdlPv@plt>
    5f72:	48 89 ef             	mov    %rbp,%rdi
    5f75:	4c 89 e5             	mov    %r12,%rbp
    5f78:	e8 33 6e 00 00       	call   cdb0 <_ZN2ML11LayerParamsD1Ev>
    5f7d:	48 8b bc 24 20 01 00 	mov    0x120(%rsp),%rdi
    5f84:	00 
    5f85:	48 85 ff             	test   %rdi,%rdi
    5f88:	74 05                	je     5f8f <_ZN2ML13buildToyModelENS_4PathE.cold+0x379>
    5f8a:	e8 c1 e2 ff ff       	call   4250 <_ZdlPv@plt>
    5f8f:	4c 89 f7             	mov    %r14,%rdi
    5f92:	e8 19 6e 00 00       	call   cdb0 <_ZN2ML11LayerParamsD1Ev>
    5f97:	48 8b bc 24 80 01 00 	mov    0x180(%rsp),%rdi
    5f9e:	00 
    5f9f:	48 8b 44 24 68       	mov    0x68(%rsp),%rax
    5fa4:	48 39 c7             	cmp    %rax,%rdi
    5fa7:	74 05                	je     5fae <_ZN2ML13buildToyModelENS_4PathE.cold+0x398>
    5fa9:	e8 a2 e2 ff ff       	call   4250 <_ZdlPv@plt>
    5fae:	48 8b bc 24 40 01 00 	mov    0x140(%rsp),%rdi
    5fb5:	00 
    5fb6:	48 85 ff             	test   %rdi,%rdi
    5fb9:	74 05                	je     5fc0 <_ZN2ML13buildToyModelENS_4PathE.cold+0x3aa>
    5fbb:	e8 90 e2 ff ff       	call   4250 <_ZdlPv@plt>
    5fc0:	48 89 df             	mov    %rbx,%rdi
    5fc3:	48 89 eb             	mov    %rbp,%rbx
    5fc6:	e8 e5 6d 00 00       	call   cdb0 <_ZN2ML11LayerParamsD1Ev>
    5fcb:	48 8b bc 24 a0 01 00 	mov    0x1a0(%rsp),%rdi
    5fd2:	00 
    5fd3:	48 8b 44 24 48       	mov    0x48(%rsp),%rax
    5fd8:	48 39 c7             	cmp    %rax,%rdi
    5fdb:	74 05                	je     5fe2 <_ZN2ML13buildToyModelENS_4PathE.cold+0x3cc>
    5fdd:	e8 6e e2 ff ff       	call   4250 <_ZdlPv@plt>
    5fe2:	48 8b bc 24 60 01 00 	mov    0x160(%rsp),%rdi
    5fe9:	00 
    5fea:	48 85 ff             	test   %rdi,%rdi
    5fed:	0f 84 bd fc ff ff    	je     5cb0 <_ZN2ML13buildToyModelENS_4PathE.cold+0x9a>
    5ff3:	e8 58 e2 ff ff       	call   4250 <_ZdlPv@plt>
    5ff8:	e9 b3 fc ff ff       	jmp    5cb0 <_ZN2ML13buildToyModelENS_4PathE.cold+0x9a>
    5ffd:	48 8b bc 24 80 02 00 	mov    0x280(%rsp),%rdi
    6004:	00 
    6005:	48 8d 84 24 90 02 00 	lea    0x290(%rsp),%rax
    600c:	00 
    600d:	48 39 c7             	cmp    %rax,%rdi
    6010:	0f 84 9a fc ff ff    	je     5cb0 <_ZN2ML13buildToyModelENS_4PathE.cold+0x9a>
    6016:	e8 35 e2 ff ff       	call   4250 <_ZdlPv@plt>
    601b:	e9 90 fc ff ff       	jmp    5cb0 <_ZN2ML13buildToyModelENS_4PathE.cold+0x9a>
    6020:	4c 89 e7             	mov    %r12,%rdi
    6023:	4d 89 ec             	mov    %r13,%r12
    6026:	e8 85 6d 00 00       	call   cdb0 <_ZN2ML11LayerParamsD1Ev>
    602b:	48 8b bc 24 c0 00 00 	mov    0xc0(%rsp),%rdi
    6032:	00 
    6033:	48 85 ff             	test   %rdi,%rdi
    6036:	74 05                	je     603d <_ZN2ML13buildToyModelENS_4PathE.cold+0x427>
    6038:	e8 13 e2 ff ff       	call   4250 <_ZdlPv@plt>
    603d:	48 89 ef             	mov    %rbp,%rdi
    6040:	4c 89 e5             	mov    %r12,%rbp
    6043:	e8 68 6d 00 00       	call   cdb0 <_ZN2ML11LayerParamsD1Ev>
    6048:	48 8b bc 24 00 01 00 	mov    0x100(%rsp),%rdi
    604f:	00 
    6050:	48 85 ff             	test   %rdi,%rdi
    6053:	74 05                	je     605a <_ZN2ML13buildToyModelENS_4PathE.cold+0x444>
    6055:	e8 f6 e1 ff ff       	call   4250 <_ZdlPv@plt>
    605a:	4c 89 f7             	mov    %r14,%rdi
    605d:	e8 4e 6d 00 00       	call   cdb0 <_ZN2ML11LayerParamsD1Ev>
    6062:	48 8b bc 24 60 01 00 	mov    0x160(%rsp),%rdi
    6069:	00 
    606a:	48 8d 84 24 70 01 00 	lea    0x170(%rsp),%rax
    6071:	00 
    6072:	48 39 c7             	cmp    %rax,%rdi
    6075:	74 05                	je     607c <_ZN2ML13buildToyModelENS_4PathE.cold+0x466>
    6077:	e8 d4 e1 ff ff       	call   4250 <_ZdlPv@plt>
    607c:	48 8b bc 24 20 01 00 	mov    0x120(%rsp),%rdi
    6083:	00 
    6084:	48 85 ff             	test   %rdi,%rdi
    6087:	74 05                	je     608e <_ZN2ML13buildToyModelENS_4PathE.cold+0x478>
    6089:	e8 c2 e1 ff ff       	call   4250 <_ZdlPv@plt>
    608e:	48 89 df             	mov    %rbx,%rdi
    6091:	48 89 eb             	mov    %rbp,%rbx
    6094:	e8 17 6d 00 00       	call   cdb0 <_ZN2ML11LayerParamsD1Ev>
    6099:	48 8b bc 24 a0 01 00 	mov    0x1a0(%rsp),%rdi
    60a0:	00 
    60a1:	48 8d 84 24 b0 01 00 	lea    0x1b0(%rsp),%rax
    60a8:	00 
    60a9:	48 39 c7             	cmp    %rax,%rdi
    60ac:	74 05                	je     60b3 <_ZN2ML13buildToyModelENS_4PathE.cold+0x49d>
    60ae:	e8 9d e1 ff ff       	call   4250 <_ZdlPv@plt>
    60b3:	48 8b bc 24 40 01 00 	mov    0x140(%rsp),%rdi
    60ba:	00 
    60bb:	48 85 ff             	test   %rdi,%rdi
    60be:	0f 84 ec fb ff ff    	je     5cb0 <_ZN2ML13buildToyModelENS_4PathE.cold+0x9a>
    60c4:	e8 87 e1 ff ff       	call   4250 <_ZdlPv@plt>
    60c9:	e9 e2 fb ff ff       	jmp    5cb0 <_ZN2ML13buildToyModelENS_4PathE.cold+0x9a>
    60ce:	4c 89 e7             	mov    %r12,%rdi
    60d1:	4d 89 ec             	mov    %r13,%r12
    60d4:	e8 d7 6c 00 00       	call   cdb0 <_ZN2ML11LayerParamsD1Ev>
    60d9:	48 8b bc 24 c0 00 00 	mov    0xc0(%rsp),%rdi
    60e0:	00 
    60e1:	48 85 ff             	test   %rdi,%rdi
    60e4:	74 05                	je     60eb <_ZN2ML13buildToyModelENS_4PathE.cold+0x4d5>
    60e6:	e8 65 e1 ff ff       	call   4250 <_ZdlPv@plt>
    60eb:	48 89 ef             	mov    %rbp,%rdi
    60ee:	4c 89 e5             	mov    %r12,%rbp
    60f1:	e8 ba 6c 00 00       	call   cdb0 <_ZN2ML11LayerParamsD1Ev>
    60f6:	48 8b bc 24 00 01 00 	mov    0x100(%rsp),%rdi
    60fd:	00 
    60fe:	48 85 ff             	test   %rdi,%rdi
    6101:	75 6e                	jne    6171 <_ZN2ML13buildToyModelENS_4PathE.cold+0x55b>
    6103:	4c 89 f7             	mov    %r14,%rdi
    6106:	e8 a5 6c 00 00       	call   cdb0 <_ZN2ML11LayerParamsD1Ev>
    610b:	48 8b bc 24 60 01 00 	mov    0x160(%rsp),%rdi
    6112:	00 
    6113:	48 8b 44 24 68       	mov    0x68(%rsp),%rax
    6118:	48 39 c7             	cmp    %rax,%rdi
    611b:	74 05                	je     6122 <_ZN2ML13buildToyModelENS_4PathE.cold+0x50c>
    611d:	e8 2e e1 ff ff       	call   4250 <_ZdlPv@plt>
    6122:	48 8b bc 24 20 01 00 	mov    0x120(%rsp),%rdi
    6129:	00 
    612a:	48 85 ff             	test   %rdi,%rdi
    612d:	74 05                	je     6134 <_ZN2ML13buildToyModelENS_4PathE.cold+0x51e>
    612f:	e8 1c e1 ff ff       	call   4250 <_ZdlPv@plt>
    6134:	48 89 df             	mov    %rbx,%rdi
    6137:	48 89 eb             	mov    %rbp,%rbx
    613a:	e8 71 6c 00 00       	call   cdb0 <_ZN2ML11LayerParamsD1Ev>
    613f:	48 8b bc 24 a0 01 00 	mov    0x1a0(%rsp),%rdi
    6146:	00 
    6147:	48 8b 44 24 48       	mov    0x48(%rsp),%rax
    614c:	48 39 c7             	cmp    %rax,%rdi
    614f:	74 05                	je     6156 <_ZN2ML13buildToyModelENS_4PathE.cold+0x540>
    6151:	e8 fa e0 ff ff       	call   4250 <_ZdlPv@plt>
    6156:	48 8b bc 24 40 01 00 	mov    0x140(%rsp),%rdi
    615d:	00 
    615e:	48 85 ff             	test   %rdi,%rdi
    6161:	0f 84 49 fb ff ff    	je     5cb0 <_ZN2ML13buildToyModelENS_4PathE.cold+0x9a>
    6167:	e8 e4 e0 ff ff       	call   4250 <_ZdlPv@plt>
    616c:	e9 3f fb ff ff       	jmp    5cb0 <_ZN2ML13buildToyModelENS_4PathE.cold+0x9a>
    6171:	e8 da e0 ff ff       	call   4250 <_ZdlPv@plt>
    6176:	eb 8b                	jmp    6103 <_ZN2ML13buildToyModelENS_4PathE.cold+0x4ed>
    6178:	4c 89 f7             	mov    %r14,%rdi
    617b:	e8 30 6c 00 00       	call   cdb0 <_ZN2ML11LayerParamsD1Ev>
    6180:	48 8b bc 24 a0 01 00 	mov    0x1a0(%rsp),%rdi
    6187:	00 
    6188:	48 85 ff             	test   %rdi,%rdi
    618b:	74 05                	je     6192 <_ZN2ML13buildToyModelENS_4PathE.cold+0x57c>
    618d:	e8 be e0 ff ff       	call   4250 <_ZdlPv@plt>
    6192:	48 89 df             	mov    %rbx,%rdi
    6195:	48 89 eb             	mov    %rbp,%rbx
    6198:	e8 13 6c 00 00       	call   cdb0 <_ZN2ML11LayerParamsD1Ev>
    619d:	48 8b bc 24 00 02 00 	mov    0x200(%rsp),%rdi
    61a4:	00 
    61a5:	48 85 ff             	test   %rdi,%rdi
    61a8:	0f 84 02 fb ff ff    	je     5cb0 <_ZN2ML13buildToyModelENS_4PathE.cold+0x9a>
    61ae:	e8 9d e0 ff ff       	call   4250 <_ZdlPv@plt>
    61b3:	e9 f8 fa ff ff       	jmp    5cb0 <_ZN2ML13buildToyModelENS_4PathE.cold+0x9a>
    61b8:	4c 89 e7             	mov    %r12,%rdi
    61bb:	4d 89 ec             	mov    %r13,%r12
    61be:	e8 ed 6b 00 00       	call   cdb0 <_ZN2ML11LayerParamsD1Ev>
    61c3:	48 8b bc 24 c0 00 00 	mov    0xc0(%rsp),%rdi
    61ca:	00 
    61cb:	48 85 ff             	test   %rdi,%rdi
    61ce:	74 05                	je     61d5 <_ZN2ML13buildToyModelENS_4PathE.cold+0x5bf>
    61d0:	e8 7b e0 ff ff       	call   4250 <_ZdlPv@plt>
    61d5:	48 89 ef             	mov    %rbp,%rdi
    61d8:	4c 89 e5             	mov    %r12,%rbp
    61db:	e8 d0 6b 00 00       	call   cdb0 <_ZN2ML11LayerParamsD1Ev>
    61e0:	48 8b bc 24 00 01 00 	mov    0x100(%rsp),%rdi
    61e7:	00 
    61e8:	48 85 ff             	test   %rdi,%rdi
    61eb:	0f 85 ae 00 00 00    	jne    629f <_ZN2ML13buildToyModelENS_4PathE.cold+0x689>
    61f1:	4c 89 f7             	mov    %r14,%rdi
    61f4:	e8 b7 6b 00 00       	call   cdb0 <_ZN2ML11LayerParamsD1Ev>
    61f9:	48 8b bc 24 60 01 00 	mov    0x160(%rsp),%rdi
    6200:	00 
    6201:	48 8b 44 24 68       	mov    0x68(%rsp),%rax
    6206:	48 39 c7             	cmp    %rax,%rdi
    6209:	74 05                	je     6210 <_ZN2ML13buildToyModelENS_4PathE.cold+0x5fa>
    620b:	e8 40 e0 ff ff       	call   4250 <_ZdlPv@plt>
    6210:	48 8b bc 24 20 01 00 	mov    0x120(%rsp),%rdi
    6217:	00 
    6218:	48 85 ff             	test   %rdi,%rdi
    621b:	74 05                	je     6222 <_ZN2ML13buildToyModelENS_4PathE.cold+0x60c>
    621d:	e8 2e e0 ff ff       	call   4250 <_ZdlPv@plt>
    6222:	48 89 df             	mov    %rbx,%rdi
    6225:	48 89 eb             	mov    %rbp,%rbx
    6228:	e8 83 6b 00 00       	call   cdb0 <_ZN2ML11LayerParamsD1Ev>
    622d:	48 8b bc 24 a0 01 00 	mov    0x1a0(%rsp),%rdi
    6234:	00 
    6235:	48 8b 44 24 48       	mov    0x48(%rsp),%rax
    623a:	48 39 c7             	cmp    %rax,%rdi
    623d:	74 05                	je     6244 <_ZN2ML13buildToyModelENS_4PathE.cold+0x62e>
    623f:	e8 0c e0 ff ff       	call   4250 <_ZdlPv@plt>
    6244:	48 8b bc 24 40 01 00 	mov    0x140(%rsp),%rdi
    624b:	00 
    624c:	48 85 ff             	test   %rdi,%rdi
    624f:	0f 84 5b fa ff ff    	je     5cb0 <_ZN2ML13buildToyModelENS_4PathE.cold+0x9a>
    6255:	e8 f6 df ff ff       	call   4250 <_ZdlPv@plt>
    625a:	e9 51 fa ff ff       	jmp    5cb0 <_ZN2ML13buildToyModelENS_4PathE.cold+0x9a>
    625f:	4c 89 f7             	mov    %r14,%rdi
    6262:	e8 49 6b 00 00       	call   cdb0 <_ZN2ML11LayerParamsD1Ev>
    6267:	48 8b bc 24 a0 01 00 	mov    0x1a0(%rsp),%rdi
    626e:	00 
    626f:	48 85 ff             	test   %rdi,%rdi
    6272:	74 05                	je     6279 <_ZN2ML13buildToyModelENS_4PathE.cold+0x663>
    6274:	e8 d7 df ff ff       	call   4250 <_ZdlPv@plt>
    6279:	48 89 df             	mov    %rbx,%rdi
    627c:	48 89 eb             	mov    %rbp,%rbx
    627f:	e8 2c 6b 00 00       	call   cdb0 <_ZN2ML11LayerParamsD1Ev>
    6284:	48 8b bc 24 00 02 00 	mov    0x200(%rsp),%rdi
    628b:	00 
    628c:	48 85 ff             	test   %rdi,%rdi
    628f:	0f 84 1b fa ff ff    	je     5cb0 <_ZN2ML13buildToyModelENS_4PathE.cold+0x9a>
    6295:	e8 b6 df ff ff       	call   4250 <_ZdlPv@plt>
    629a:	e9 11 fa ff ff       	jmp    5cb0 <_ZN2ML13buildToyModelENS_4PathE.cold+0x9a>
    629f:	e8 ac df ff ff       	call   4250 <_ZdlPv@plt>
    62a4:	e9 48 ff ff ff       	jmp    61f1 <_ZN2ML13buildToyModelENS_4PathE.cold+0x5db>
    62a9:	4c 89 f7             	mov    %r14,%rdi
    62ac:	e8 ff 6a 00 00       	call   cdb0 <_ZN2ML11LayerParamsD1Ev>
    62b1:	48 8b bc 24 a0 01 00 	mov    0x1a0(%rsp),%rdi
    62b8:	00 
    62b9:	48 85 ff             	test   %rdi,%rdi
    62bc:	74 05                	je     62c3 <_ZN2ML13buildToyModelENS_4PathE.cold+0x6ad>
    62be:	e8 8d df ff ff       	call   4250 <_ZdlPv@plt>
    62c3:	48 89 df             	mov    %rbx,%rdi
    62c6:	48 89 eb             	mov    %rbp,%rbx
    62c9:	e8 e2 6a 00 00       	call   cdb0 <_ZN2ML11LayerParamsD1Ev>
    62ce:	48 8b bc 24 00 02 00 	mov    0x200(%rsp),%rdi
    62d5:	00 
    62d6:	48 85 ff             	test   %rdi,%rdi
    62d9:	0f 84 d1 f9 ff ff    	je     5cb0 <_ZN2ML13buildToyModelENS_4PathE.cold+0x9a>
    62df:	e8 6c df ff ff       	call   4250 <_ZdlPv@plt>
    62e4:	e9 c7 f9 ff ff       	jmp    5cb0 <_ZN2ML13buildToyModelENS_4PathE.cold+0x9a>

00000000000062e9 <_ZN2ML10formatDimsB5cxx11ERKSt6vectorImSaImEE.cold>:
    62e9:	49 8b 7d 00          	mov    0x0(%r13),%rdi
    62ed:	48 39 fb             	cmp    %rdi,%rbx
    62f0:	74 05                	je     62f7 <_ZN2ML10formatDimsB5cxx11ERKSt6vectorImSaImEE.cold+0xe>
    62f2:	e8 59 df ff ff       	call   4250 <_ZdlPv@plt>
    62f7:	48 8b 7c 24 38       	mov    0x38(%rsp),%rdi
    62fc:	e8 ef de ff ff       	call   41f0 <_ZNSt7__cxx1118basic_stringstreamIcSt11char_traitsIcESaIcEED1Ev@plt>
    6301:	48 89 ef             	mov    %rbp,%rdi
    6304:	e8 47 e1 ff ff       	call   4450 <_Unwind_Resume@plt>
    6309:	48 8b bc 24 a0 00 00 	mov    0xa0(%rsp),%rdi
    6310:	00 
    6311:	48 8b 44 24 10       	mov    0x10(%rsp),%rax
    6316:	48 89 5c 24 58       	mov    %rbx,0x58(%rsp)
    631b:	48 39 c7             	cmp    %rax,%rdi
    631e:	74 05                	je     6325 <_ZN2ML10formatDimsB5cxx11ERKSt6vectorImSaImEE.cold+0x3c>
    6320:	e8 2b df ff ff       	call   4250 <_ZdlPv@plt>
    6325:	48 8b 7c 24 30       	mov    0x30(%rsp),%rdi
    632a:	48 8d 05 ef c6 02 00 	lea    0x2c6ef(%rip),%rax        # 32a20 <_ZTVSt15basic_streambufIcSt11char_traitsIcEE@GLIBCXX_3.4+0x10>
    6331:	48 89 44 24 58       	mov    %rax,0x58(%rsp)
    6336:	e8 f5 df ff ff       	call   4330 <_ZNSt6localeD1Ev@plt>
    633b:	48 8b 05 86 c6 02 00 	mov    0x2c686(%rip),%rax        # 329c8 <_ZTTNSt7__cxx1118basic_stringstreamIcSt11char_traitsIcESaIcEEE@GLIBCXX_3.4.21+0x8>
    6342:	48 8b 0d a7 c6 02 00 	mov    0x2c6a7(%rip),%rcx        # 329f0 <_ZTTNSt7__cxx1118basic_stringstreamIcSt11char_traitsIcESaIcEEE@GLIBCXX_3.4.21+0x30>
    6349:	48 8b 40 e8          	mov    -0x18(%rax),%rax
    634d:	48 89 4c 04 40       	mov    %rcx,0x40(%rsp,%rax,1)
    6352:	49 8b 47 e8          	mov    -0x18(%r15),%rax
    6356:	48 8b 0d 8b c6 02 00 	mov    0x2c68b(%rip),%rcx        # 329e8 <_ZTTNSt7__cxx1118basic_stringstreamIcSt11char_traitsIcESaIcEEE@GLIBCXX_3.4.21+0x28>
    635d:	4c 89 7c 24 50       	mov    %r15,0x50(%rsp)
    6362:	48 89 4c 04 50       	mov    %rcx,0x50(%rsp,%rax,1)
    6367:	49 8b 46 e8          	mov    -0x18(%r14),%rax
    636b:	48 8b 0d 66 c6 02 00 	mov    0x2c666(%rip),%rcx        # 329d8 <_ZTTNSt7__cxx1118basic_stringstreamIcSt11char_traitsIcESaIcEEE@GLIBCXX_3.4.21+0x18>
    6372:	4c 89 74 24 40       	mov    %r14,0x40(%rsp)
    6377:	48 89 4c 04 40       	mov    %rcx,0x40(%rsp,%rax,1)
    637c:	31 c0                	xor    %eax,%eax
    637e:	48 89 44 24 48       	mov    %rax,0x48(%rsp)
    6383:	48 8b 7c 24 08       	mov    0x8(%rsp),%rdi
    6388:	48 8d 05 21 c6 02 00 	lea    0x2c621(%rip),%rax        # 329b0 <_ZTVSt9basic_iosIcSt11char_traitsIcEE@GLIBCXX_3.4+0x10>
    638f:	48 89 84 24 c0 00 00 	mov    %rax,0xc0(%rsp)
    6396:	00 
    6397:	e8 44 dd ff ff       	call   40e0 <_ZNSt8ios_baseD2Ev@plt>
    639c:	48 89 ef             	mov    %rbp,%rdi
    639f:	e8 ac e0 ff ff       	call   4450 <_Unwind_Resume@plt>
    63a4:	49 8b 46 e8          	mov    -0x18(%r14),%rax
    63a8:	48 8b 0d 29 c6 02 00 	mov    0x2c629(%rip),%rcx        # 329d8 <_ZTTNSt7__cxx1118basic_stringstreamIcSt11char_traitsIcESaIcEEE@GLIBCXX_3.4.21+0x18>
    63af:	31 d2                	xor    %edx,%edx
    63b1:	4c 89 74 24 40       	mov    %r14,0x40(%rsp)
    63b6:	48 89 4c 04 40       	mov    %rcx,0x40(%rsp,%rax,1)
    63bb:	48 89 54 24 48       	mov    %rdx,0x48(%rsp)
    63c0:	eb c1                	jmp    6383 <_ZN2ML10formatDimsB5cxx11ERKSt6vectorImSaImEE.cold+0x9a>

00000000000063c2 <_ZN2ML15runInfTestQuantERKNS_5ModelENS_4PathEiPK7QParams.cold>:
    63c2:	48 8b 7c 24 60       	mov    0x60(%rsp),%rdi
    63c7:	48 39 ef             	cmp    %rbp,%rdi
    63ca:	74 05                	je     63d1 <_ZN2ML15runInfTestQuantERKNS_5ModelENS_4PathEiPK7QParams.cold+0xf>
    63cc:	e8 7f de ff ff       	call   4250 <_ZdlPv@plt>
    63d1:	4c 89 ef             	mov    %r13,%rdi
    63d4:	e8 17 05 02 00       	call   268f0 <_ZN2ML9LayerDataD1Ev>
    63d9:	48 89 df             	mov    %rbx,%rdi
    63dc:	e8 6f e0 ff ff       	call   4450 <_Unwind_Resume@plt>
    63e1:	48 8b 7c 24 60       	mov    0x60(%rsp),%rdi
    63e6:	48 39 ef             	cmp    %rbp,%rdi
    63e9:	74 05                	je     63f0 <_ZN2ML15runInfTestQuantERKNS_5ModelENS_4PathEiPK7QParams.cold+0x2e>
    63eb:	e8 60 de ff ff       	call   4250 <_ZdlPv@plt>
    63f0:	48 89 df             	mov    %rbx,%rdi
    63f3:	e8 58 e0 ff ff       	call   4450 <_Unwind_Resume@plt>
    63f8:	48 8b 7c 24 60       	mov    0x60(%rsp),%rdi
    63fd:	48 39 ef             	cmp    %rbp,%rdi
    6400:	74 05                	je     6407 <_ZN2ML15runInfTestQuantERKNS_5ModelENS_4PathEiPK7QParams.cold+0x45>
    6402:	e8 49 de ff ff       	call   4250 <_ZdlPv@plt>
    6407:	48 89 df             	mov    %rbx,%rdi
    640a:	e8 41 e0 ff ff       	call   4450 <_Unwind_Resume@plt>

000000000000640f <_ZN2ML16runInferenceTestERKNS_5ModelERKNS_4PathE.cold>:
    640f:	48 8b bc 24 70 01 00 	mov    0x170(%rsp),%rdi
    6416:	00 
    6417:	4c 39 e7             	cmp    %r12,%rdi
    641a:	0f 85 98 00 00 00    	jne    64b8 <_ZN2ML16runInferenceTestERKNS_5ModelERKNS_4PathE.cold+0xa9>
    6420:	48 89 ef             	mov    %rbp,%rdi
    6423:	e8 c8 04 02 00       	call   268f0 <_ZN2ML9LayerDataD1Ev>
    6428:	48 8b bc 24 a0 00 00 	mov    0xa0(%rsp),%rdi
    642f:	00 
    6430:	4c 39 ff             	cmp    %r15,%rdi
    6433:	74 05                	je     643a <_ZN2ML16runInferenceTestERKNS_5ModelERKNS_4PathE.cold+0x2b>
    6435:	e8 16 de ff ff       	call   4250 <_ZdlPv@plt>
    643a:	4c 89 f7             	mov    %r14,%rdi
    643d:	e8 ae 04 02 00       	call   268f0 <_ZN2ML9LayerDataD1Ev>
    6442:	48 89 df             	mov    %rbx,%rdi
    6445:	e8 06 e0 ff ff       	call   4450 <_Unwind_Resume@plt>
    644a:	48 8b bc 24 70 01 00 	mov    0x170(%rsp),%rdi
    6451:	00 
    6452:	4c 39 e7             	cmp    %r12,%rdi
    6455:	74 05                	je     645c <_ZN2ML16runInferenceTestERKNS_5ModelERKNS_4PathE.cold+0x4d>
    6457:	e8 f4 dd ff ff       	call   4250 <_ZdlPv@plt>
    645c:	48 8b 7c 24 10       	mov    0x10(%rsp),%rdi
    6461:	48 8d 44 24 20       	lea    0x20(%rsp),%rax
    6466:	48 39 c7             	cmp    %rax,%rdi
    6469:	74 05                	je     6470 <_ZN2ML16runInferenceTestERKNS_5ModelERKNS_4PathE.cold+0x61>
    646b:	e8 e0 dd ff ff       	call   4250 <_ZdlPv@plt>
    6470:	48 8b 7c 24 70       	mov    0x70(%rsp),%rdi
    6475:	48 8d 84 24 80 00 00 	lea    0x80(%rsp),%rax
    647c:	00 
    647d:	48 39 c7             	cmp    %rax,%rdi
    6480:	74 05                	je     6487 <_ZN2ML16runInferenceTestERKNS_5ModelERKNS_4PathE.cold+0x78>
    6482:	e8 c9 dd ff ff       	call   4250 <_ZdlPv@plt>
    6487:	48 8b 7c 24 50       	mov    0x50(%rsp),%rdi
    648c:	48 8d 44 24 60       	lea    0x60(%rsp),%rax
    6491:	48 39 c7             	cmp    %rax,%rdi
    6494:	74 05                	je     649b <_ZN2ML16runInferenceTestERKNS_5ModelERKNS_4PathE.cold+0x8c>
    6496:	e8 b5 dd ff ff       	call   4250 <_ZdlPv@plt>
    649b:	48 8b 7c 24 30       	mov    0x30(%rsp),%rdi
    64a0:	48 8d 44 24 40       	lea    0x40(%rsp),%rax
    64a5:	48 39 c7             	cmp    %rax,%rdi
    64a8:	0f 84 7a ff ff ff    	je     6428 <_ZN2ML16runInferenceTestERKNS_5ModelERKNS_4PathE.cold+0x19>
    64ae:	e8 9d dd ff ff       	call   4250 <_ZdlPv@plt>
    64b3:	e9 70 ff ff ff       	jmp    6428 <_ZN2ML16runInferenceTestERKNS_5ModelERKNS_4PathE.cold+0x19>
    64b8:	e8 93 dd ff ff       	call   4250 <_ZdlPv@plt>
    64bd:	e9 5e ff ff ff       	jmp    6420 <_ZN2ML16runInferenceTestERKNS_5ModelERKNS_4PathE.cold+0x11>
    64c2:	48 8b bc 24 70 01 00 	mov    0x170(%rsp),%rdi
    64c9:	00 
    64ca:	4c 39 e7             	cmp    %r12,%rdi
    64cd:	0f 84 67 ff ff ff    	je     643a <_ZN2ML16runInferenceTestERKNS_5ModelERKNS_4PathE.cold+0x2b>
    64d3:	e8 78 dd ff ff       	call   4250 <_ZdlPv@plt>
    64d8:	e9 5d ff ff ff       	jmp    643a <_ZN2ML16runInferenceTestERKNS_5ModelERKNS_4PathE.cold+0x2b>
    64dd:	48 8b bc 24 70 01 00 	mov    0x170(%rsp),%rdi
    64e4:	00 
    64e5:	48 8d 84 24 80 01 00 	lea    0x180(%rsp),%rax
    64ec:	00 
    64ed:	48 39 c7             	cmp    %rax,%rdi
    64f0:	74 05                	je     64f7 <_ZN2ML16runInferenceTestERKNS_5ModelERKNS_4PathE.cold+0xe8>
    64f2:	e8 59 dd ff ff       	call   4250 <_ZdlPv@plt>
    64f7:	48 89 df             	mov    %rbx,%rdi
    64fa:	e8 51 df ff ff       	call   4450 <_Unwind_Resume@plt>
    64ff:	48 8b bc 24 70 01 00 	mov    0x170(%rsp),%rdi
    6506:	00 
    6507:	4c 39 e7             	cmp    %r12,%rdi
    650a:	0f 84 2a ff ff ff    	je     643a <_ZN2ML16runInferenceTestERKNS_5ModelERKNS_4PathE.cold+0x2b>
    6510:	e8 3b dd ff ff       	call   4250 <_ZdlPv@plt>
    6515:	e9 20 ff ff ff       	jmp    643a <_ZN2ML16runInferenceTestERKNS_5ModelERKNS_4PathE.cold+0x2b>
    651a:	48 8b bc 24 70 01 00 	mov    0x170(%rsp),%rdi
    6521:	00 
    6522:	4c 39 e7             	cmp    %r12,%rdi
    6525:	74 05                	je     652c <_ZN2ML16runInferenceTestERKNS_5ModelERKNS_4PathE.cold+0x11d>
    6527:	e8 24 dd ff ff       	call   4250 <_ZdlPv@plt>
    652c:	48 89 df             	mov    %rbx,%rdi
    652f:	e8 1c df ff ff       	call   4450 <_Unwind_Resume@plt>

0000000000006534 <_ZN2ML21inspectQuantizedLayerERKNS_4PathERKNSt7__cxx1112basic_stringIcSt11char_traitsIcESaIcEEERKSt6vectorImSaImEESF_.cold>:
    6534:	48 8b bc 24 70 01 00 	mov    0x170(%rsp),%rdi
    653b:	00 
    653c:	4c 39 ef             	cmp    %r13,%rdi
    653f:	74 05                	je     6546 <_ZN2ML21inspectQuantizedLayerERKNS_4PathERKNSt7__cxx1112basic_stringIcSt11char_traitsIcESaIcEEERKSt6vectorImSaImEESF_.cold+0x12>
    6541:	e8 0a dd ff ff       	call   4250 <_ZdlPv@plt>
    6546:	48 8b 7c 24 40       	mov    0x40(%rsp),%rdi
    654b:	48 8d 44 24 50       	lea    0x50(%rsp),%rax
    6550:	48 39 c7             	cmp    %rax,%rdi
    6553:	74 05                	je     655a <_ZN2ML21inspectQuantizedLayerERKNS_4PathERKNSt7__cxx1112basic_stringIcSt11char_traitsIcESaIcEEERKSt6vectorImSaImEESF_.cold+0x26>
    6555:	e8 f6 dc ff ff       	call   4250 <_ZdlPv@plt>
    655a:	48 8b 7c 24 20       	mov    0x20(%rsp),%rdi
    655f:	48 8d 44 24 30       	lea    0x30(%rsp),%rax
    6564:	48 39 c7             	cmp    %rax,%rdi
    6567:	74 05                	je     656e <_ZN2ML21inspectQuantizedLayerERKNS_4PathERKNSt7__cxx1112basic_stringIcSt11char_traitsIcESaIcEEERKSt6vectorImSaImEESF_.cold+0x3a>
    6569:	e8 e2 dc ff ff       	call   4250 <_ZdlPv@plt>
    656e:	48 89 df             	mov    %rbx,%rdi
    6571:	e8 da de ff ff       	call   4450 <_Unwind_Resume@plt>
    6576:	48 8b bc 24 70 01 00 	mov    0x170(%rsp),%rdi
    657d:	00 
    657e:	4c 39 ef             	cmp    %r13,%rdi
    6581:	74 c3                	je     6546 <_ZN2ML21inspectQuantizedLayerERKNS_4PathERKNSt7__cxx1112basic_stringIcSt11char_traitsIcESaIcEEERKSt6vectorImSaImEESF_.cold+0x12>
    6583:	e8 c8 dc ff ff       	call   4250 <_ZdlPv@plt>
    6588:	eb bc                	jmp    6546 <_ZN2ML21inspectQuantizedLayerERKNS_4PathERKNSt7__cxx1112basic_stringIcSt11char_traitsIcESaIcEEERKSt6vectorImSaImEESF_.cold+0x12>
    658a:	48 8b bc 24 70 01 00 	mov    0x170(%rsp),%rdi
    6591:	00 
    6592:	4c 39 ef             	cmp    %r13,%rdi
    6595:	74 05                	je     659c <_ZN2ML21inspectQuantizedLayerERKNS_4PathERKNSt7__cxx1112basic_stringIcSt11char_traitsIcESaIcEEERKSt6vectorImSaImEESF_.cold+0x68>
    6597:	e8 b4 dc ff ff       	call   4250 <_ZdlPv@plt>
    659c:	48 8b bc 24 20 01 00 	mov    0x120(%rsp),%rdi
    65a3:	00 
    65a4:	48 85 ff             	test   %rdi,%rdi
    65a7:	0f 85 0b 01 00 00    	jne    66b8 <_ZN2ML21inspectQuantizedLayerERKNS_4PathERKNSt7__cxx1112basic_stringIcSt11char_traitsIcESaIcEEERKSt6vectorImSaImEESF_.cold+0x184>
    65ad:	48 89 e8             	mov    %rbp,%rax
    65b0:	48 83 e8 01          	sub    $0x1,%rax
    65b4:	0f 85 cf 00 00 00    	jne    6689 <_ZN2ML21inspectQuantizedLayerERKNS_4PathERKNSt7__cxx1112basic_stringIcSt11char_traitsIcESaIcEEERKSt6vectorImSaImEESF_.cold+0x155>
    65ba:	48 89 df             	mov    %rbx,%rdi
    65bd:	e8 4e db ff ff       	call   4110 <__cxa_begin_catch@plt>
    65c2:	48 8b 74 24 40       	mov    0x40(%rsp),%rsi
    65c7:	48 8d 3d 3a 34 02 00 	lea    0x2343a(%rip),%rdi        # 29a08 <_ZTSN2ML12SoftmaxLayerE+0x788>
    65ce:	48 89 c3             	mov    %rax,%rbx
    65d1:	31 c0                	xor    %eax,%eax
    65d3:	e8 78 da ff ff       	call   4050 <printf@plt>
    65d8:	48 8d 2d c1 cd 02 00 	lea    0x2cdc1(%rip),%rbp        # 333a0 <_ZSt4cerr@GLIBCXX_3.4>
    65df:	ba 0a 00 00 00       	mov    $0xa,%edx
    65e4:	48 8d 35 80 3c 02 00 	lea    0x23c80(%rip),%rsi        # 2a26b <_ZTSN2ML12SoftmaxLayerE+0xfeb>
    65eb:	48 89 ef             	mov    %rbp,%rdi
    65ee:	e8 ad dc ff ff       	call   42a0 <_ZSt16__ostream_insertIcSt11char_traitsIcEERSt13basic_ostreamIT_T0_ES6_PKS3_l@plt>
    65f3:	48 8b 03             	mov    (%rbx),%rax
    65f6:	48 89 df             	mov    %rbx,%rdi
    65f9:	ff 50 10             	call   *0x10(%rax)
    65fc:	48 89 ef             	mov    %rbp,%rdi
    65ff:	48 89 c6             	mov    %rax,%rsi
    6602:	e8 59 dc ff ff       	call   4260 <_ZStlsISt11char_traitsIcEERSt13basic_ostreamIcT_ES5_PKc@plt>
    6607:	c6 84 24 70 01 00 00 	movb   $0xa,0x170(%rsp)
    660e:	0a 
    660f:	48 89 c7             	mov    %rax,%rdi
    6612:	48 8b 00             	mov    (%rax),%rax
    6615:	48 8b 40 e8          	mov    -0x18(%rax),%rax
    6619:	48 83 7c 07 10 00    	cmpq   $0x0,0x10(%rdi,%rax,1)
    661f:	0f 85 81 00 00 00    	jne    66a6 <_ZN2ML21inspectQuantizedLayerERKNS_4PathERKNSt7__cxx1112basic_stringIcSt11char_traitsIcESaIcEEERKSt6vectorImSaImEESF_.cold+0x172>
    6625:	be 0a 00 00 00       	mov    $0xa,%esi
    662a:	e8 11 da ff ff       	call   4040 <_ZNSo3putEc@plt>
    662f:	e8 ac dd ff ff       	call   43e0 <__cxa_end_catch@plt>
    6634:	e9 c1 06 01 00       	jmp    16cfa <_ZN2ML21inspectQuantizedLayerERKNS_4PathERKNSt7__cxx1112basic_stringIcSt11char_traitsIcESaIcEEERKSt6vectorImSaImEESF_+0x3ba>
    6639:	48 8b bc 24 80 00 00 	mov    0x80(%rsp),%rdi
    6640:	00 
    6641:	48 8d 84 24 90 00 00 	lea    0x90(%rsp),%rax
    6648:	00 
    6649:	48 39 c7             	cmp    %rax,%rdi
    664c:	74 05                	je     6653 <_ZN2ML21inspectQuantizedLayerERKNS_4PathERKNSt7__cxx1112basic_stringIcSt11char_traitsIcESaIcEEERKSt6vectorImSaImEESF_.cold+0x11f>
    664e:	e8 fd db ff ff       	call   4250 <_ZdlPv@plt>
    6653:	4c 89 e7             	mov    %r12,%rdi
    6656:	e8 95 02 02 00       	call   268f0 <_ZN2ML9LayerDataD1Ev>
    665b:	48 8b 7c 24 08       	mov    0x8(%rsp),%rdi
    6660:	e8 4b 67 00 00       	call   cdb0 <_ZN2ML11LayerParamsD1Ev>
    6665:	48 8b 7c 24 10       	mov    0x10(%rsp),%rdi
    666a:	e8 81 02 02 00       	call   268f0 <_ZN2ML9LayerDataD1Ev>
    666f:	48 8b 7c 24 18       	mov    0x18(%rsp),%rdi
    6674:	e8 37 67 00 00       	call   cdb0 <_ZN2ML11LayerParamsD1Ev>
    6679:	48 89 e8             	mov    %rbp,%rax
    667c:	e9 2f ff ff ff       	jmp    65b0 <_ZN2ML21inspectQuantizedLayerERKNS_4PathERKNSt7__cxx1112basic_stringIcSt11char_traitsIcESaIcEEERKSt6vectorImSaImEESF_.cold+0x7c>
    6681:	48 89 c3             	mov    %rax,%rbx
    6684:	e8 57 dd ff ff       	call   43e0 <__cxa_end_catch@plt>
    6689:	48 8b 7c 24 60       	mov    0x60(%rsp),%rdi
    668e:	48 8d 44 24 70       	lea    0x70(%rsp),%rax
    6693:	48 39 c7             	cmp    %rax,%rdi
    6696:	0f 84 aa fe ff ff    	je     6546 <_ZN2ML21inspectQuantizedLayerERKNS_4PathERKNSt7__cxx1112basic_stringIcSt11char_traitsIcESaIcEEERKSt6vectorImSaImEESF_.cold+0x12>
    669c:	e8 af db ff ff       	call   4250 <_ZdlPv@plt>
    66a1:	e9 a0 fe ff ff       	jmp    6546 <_ZN2ML21inspectQuantizedLayerERKNS_4PathERKNSt7__cxx1112basic_stringIcSt11char_traitsIcESaIcEEERKSt6vectorImSaImEESF_.cold+0x12>
    66a6:	ba 01 00 00 00       	mov    $0x1,%edx
    66ab:	4c 89 e6             	mov    %r12,%rsi
    66ae:	e8 ed db ff ff       	call   42a0 <_ZSt16__ostream_insertIcSt11char_traitsIcEERSt13basic_ostreamIT_T0_ES6_PKS3_l@plt>
    66b3:	e9 77 ff ff ff       	jmp    662f <_ZN2ML21inspectQuantizedLayerERKNS_4PathERKNSt7__cxx1112basic_stringIcSt11char_traitsIcESaIcEEERKSt6vectorImSaImEESF_.cold+0xfb>
    66b8:	e8 93 db ff ff       	call   4250 <_ZdlPv@plt>
    66bd:	e9 eb fe ff ff       	jmp    65ad <_ZN2ML21inspectQuantizedLayerERKNS_4PathERKNSt7__cxx1112basic_stringIcSt11char_traitsIcESaIcEEERKSt6vectorImSaImEESF_.cold+0x79>
    66c2:	48 8b bc 24 70 01 00 	mov    0x170(%rsp),%rdi
    66c9:	00 
    66ca:	48 8d 84 24 80 01 00 	lea    0x180(%rsp),%rax
    66d1:	00 
    66d2:	48 39 c7             	cmp    %rax,%rdi
    66d5:	74 05                	je     66dc <_ZN2ML21inspectQuantizedLayerERKNS_4PathERKNSt7__cxx1112basic_stringIcSt11char_traitsIcESaIcEEERKSt6vectorImSaImEESF_.cold+0x1a8>
    66d7:	e8 74 db ff ff       	call   4250 <_ZdlPv@plt>
    66dc:	48 89 df             	mov    %rbx,%rdi
    66df:	e8 6c dd ff ff       	call   4450 <_Unwind_Resume@plt>
    66e4:	48 8b bc 24 70 01 00 	mov    0x170(%rsp),%rdi
    66eb:	00 
    66ec:	4c 39 ef             	cmp    %r13,%rdi
    66ef:	74 05                	je     66f6 <_ZN2ML21inspectQuantizedLayerERKNS_4PathERKNSt7__cxx1112basic_stringIcSt11char_traitsIcESaIcEEERKSt6vectorImSaImEESF_.cold+0x1c2>
    66f1:	e8 5a db ff ff       	call   4250 <_ZdlPv@plt>
    66f6:	48 8b bc 24 80 00 00 	mov    0x80(%rsp),%rdi
    66fd:	00 
    66fe:	48 85 ff             	test   %rdi,%rdi
    6701:	0f 84 5e ff ff ff    	je     6665 <_ZN2ML21inspectQuantizedLayerERKNS_4PathERKNSt7__cxx1112basic_stringIcSt11char_traitsIcESaIcEEERKSt6vectorImSaImEESF_.cold+0x131>
    6707:	e8 44 db ff ff       	call   4250 <_ZdlPv@plt>
    670c:	e9 54 ff ff ff       	jmp    6665 <_ZN2ML21inspectQuantizedLayerERKNS_4PathERKNSt7__cxx1112basic_stringIcSt11char_traitsIcESaIcEEERKSt6vectorImSaImEESF_.cold+0x131>
    6711:	48 8b bc 24 70 01 00 	mov    0x170(%rsp),%rdi
    6718:	00 
    6719:	4c 39 ef             	cmp    %r13,%rdi
    671c:	0f 84 43 ff ff ff    	je     6665 <_ZN2ML21inspectQuantizedLayerERKNS_4PathERKNSt7__cxx1112basic_stringIcSt11char_traitsIcESaIcEEERKSt6vectorImSaImEESF_.cold+0x131>
    6722:	e8 29 db ff ff       	call   4250 <_ZdlPv@plt>
    6727:	e9 39 ff ff ff       	jmp    6665 <_ZN2ML21inspectQuantizedLayerERKNS_4PathERKNSt7__cxx1112basic_stringIcSt11char_traitsIcESaIcEEERKSt6vectorImSaImEESF_.cold+0x131>
    672c:	48 8b bc 24 70 01 00 	mov    0x170(%rsp),%rdi
    6733:	00 
    6734:	4c 39 ef             	cmp    %r13,%rdi
    6737:	0f 84 1d fe ff ff    	je     655a <_ZN2ML21inspectQuantizedLayerERKNS_4PathERKNSt7__cxx1112basic_stringIcSt11char_traitsIcESaIcEEERKSt6vectorImSaImEESF_.cold+0x26>
    673d:	e8 0e db ff ff       	call   4250 <_ZdlPv@plt>
    6742:	e9 13 fe ff ff       	jmp    655a <_ZN2ML21inspectQuantizedLayerERKNS_4PathERKNSt7__cxx1112basic_stringIcSt11char_traitsIcESaIcEEERKSt6vectorImSaImEESF_.cold+0x26>
    6747:	48 8b bc 24 70 01 00 	mov    0x170(%rsp),%rdi
    674e:	00 
    674f:	4c 39 ef             	cmp    %r13,%rdi
    6752:	0f 84 02 fe ff ff    	je     655a <_ZN2ML21inspectQuantizedLayerERKNS_4PathERKNSt7__cxx1112basic_stringIcSt11char_traitsIcESaIcEEERKSt6vectorImSaImEESF_.cold+0x26>
    6758:	e8 f3 da ff ff       	call   4250 <_ZdlPv@plt>
    675d:	e9 f8 fd ff ff       	jmp    655a <_ZN2ML21inspectQuantizedLayerERKNS_4PathERKNSt7__cxx1112basic_stringIcSt11char_traitsIcESaIcEEERKSt6vectorImSaImEESF_.cold+0x26>

0000000000006762 <_ZN2ML12runBasicTestERKNS_5ModelERKNS_4PathE.cold>:
    6762:	48 8b bc 24 b0 00 00 	mov    0xb0(%rsp),%rdi
    6769:	00 
    676a:	48 8d 84 24 c0 00 00 	lea    0xc0(%rsp),%rax
    6771:	00 
    6772:	48 39 c7             	cmp    %rax,%rdi
    6775:	74 05                	je     677c <_ZN2ML12runBasicTestERKNS_5ModelERKNS_4PathE.cold+0x1a>
    6777:	e8 d4 da ff ff       	call   4250 <_ZdlPv@plt>
    677c:	48 89 df             	mov    %rbx,%rdi
    677f:	e8 cc dc ff ff       	call   4450 <_Unwind_Resume@plt>
    6784:	48 8b 7c 24 40       	mov    0x40(%rsp),%rdi
    6789:	4c 39 f7             	cmp    %r14,%rdi
    678c:	75 18                	jne    67a6 <_ZN2ML12runBasicTestERKNS_5ModelERKNS_4PathE.cold+0x44>
    678e:	48 89 df             	mov    %rbx,%rdi
    6791:	e8 5a 01 02 00       	call   268f0 <_ZN2ML9LayerDataD1Ev>
    6796:	48 89 ef             	mov    %rbp,%rdi
    6799:	e8 52 01 02 00       	call   268f0 <_ZN2ML9LayerDataD1Ev>
    679e:	4c 89 e7             	mov    %r12,%rdi
    67a1:	e8 aa dc ff ff       	call   4450 <_Unwind_Resume@plt>
    67a6:	e8 a5 da ff ff       	call   4250 <_ZdlPv@plt>
    67ab:	eb e1                	jmp    678e <_ZN2ML12runBasicTestERKNS_5ModelERKNS_4PathE.cold+0x2c>
    67ad:	e8 8e db ff ff       	call   4340 <__cxa_throw_bad_array_new_length@plt>
    67b2:	48 8b bc 24 f0 00 00 	mov    0xf0(%rsp),%rdi
    67b9:	00 
    67ba:	49 89 c4             	mov    %rax,%r12
    67bd:	48 85 ff             	test   %rdi,%rdi
    67c0:	74 05                	je     67c7 <_ZN2ML12runBasicTestERKNS_5ModelERKNS_4PathE.cold+0x65>
    67c2:	e8 29 db ff ff       	call   42f0 <_ZdaPv@plt>
    67c7:	48 89 df             	mov    %rbx,%rdi
    67ca:	e8 e1 65 00 00       	call   cdb0 <_ZN2ML11LayerParamsD1Ev>
    67cf:	eb c5                	jmp    6796 <_ZN2ML12runBasicTestERKNS_5ModelERKNS_4PathE.cold+0x34>
    67d1:	48 8b bc 24 b0 00 00 	mov    0xb0(%rsp),%rdi
    67d8:	00 
    67d9:	4c 39 e7             	cmp    %r12,%rdi
    67dc:	74 05                	je     67e3 <_ZN2ML12runBasicTestERKNS_5ModelERKNS_4PathE.cold+0x81>
    67de:	e8 6d da ff ff       	call   4250 <_ZdlPv@plt>
    67e3:	49 89 dc             	mov    %rbx,%r12
    67e6:	eb ae                	jmp    6796 <_ZN2ML12runBasicTestERKNS_5ModelERKNS_4PathE.cold+0x34>
    67e8:	48 89 df             	mov    %rbx,%rdi
    67eb:	48 89 eb             	mov    %rbp,%rbx
    67ee:	e8 bd 65 00 00       	call   cdb0 <_ZN2ML11LayerParamsD1Ev>
    67f3:	48 8b 7c 24 40       	mov    0x40(%rsp),%rdi
    67f8:	48 8d 44 24 50       	lea    0x50(%rsp),%rax
    67fd:	48 39 c7             	cmp    %rax,%rdi
    6800:	74 05                	je     6807 <_ZN2ML12runBasicTestERKNS_5ModelERKNS_4PathE.cold+0xa5>
    6802:	e8 49 da ff ff       	call   4250 <_ZdlPv@plt>
    6807:	48 8b 7c 24 20       	mov    0x20(%rsp),%rdi
    680c:	48 85 ff             	test   %rdi,%rdi
    680f:	74 05                	je     6816 <_ZN2ML12runBasicTestERKNS_5ModelERKNS_4PathE.cold+0xb4>
    6811:	e8 3a da ff ff       	call   4250 <_ZdlPv@plt>
    6816:	48 89 df             	mov    %rbx,%rdi
    6819:	e8 32 dc ff ff       	call   4450 <_Unwind_Resume@plt>

000000000000681e <_ZN2ML12runLayerTestEmRKNS_5ModelERKNS_4PathE.cold>:
    681e:	48 89 df             	mov    %rbx,%rdi
    6821:	4c 89 f3             	mov    %r14,%rbx
    6824:	e8 87 65 00 00       	call   cdb0 <_ZN2ML11LayerParamsD1Ev>
    6829:	48 8b bd f0 fe ff ff 	mov    -0x110(%rbp),%rdi
    6830:	4c 39 ef             	cmp    %r13,%rdi
    6833:	74 05                	je     683a <_ZN2ML12runLayerTestEmRKNS_5ModelERKNS_4PathE.cold+0x1c>
    6835:	e8 16 da ff ff       	call   4250 <_ZdlPv@plt>
    683a:	48 8b bd d0 fe ff ff 	mov    -0x130(%rbp),%rdi
    6841:	48 85 ff             	test   %rdi,%rdi
    6844:	74 05                	je     684b <_ZN2ML12runLayerTestEmRKNS_5ModelERKNS_4PathE.cold+0x2d>
    6846:	e8 05 da ff ff       	call   4250 <_ZdlPv@plt>
    684b:	48 8b bd 70 fe ff ff 	mov    -0x190(%rbp),%rdi
    6852:	48 85 ff             	test   %rdi,%rdi
    6855:	74 05                	je     685c <_ZN2ML12runLayerTestEmRKNS_5ModelERKNS_4PathE.cold+0x3e>
    6857:	e8 f4 d9 ff ff       	call   4250 <_ZdlPv@plt>
    685c:	48 89 df             	mov    %rbx,%rdi
    685f:	e8 ec db ff ff       	call   4450 <_Unwind_Resume@plt>
    6864:	48 8b bd b0 fe ff ff 	mov    -0x150(%rbp),%rdi
    686b:	4c 39 ef             	cmp    %r13,%rdi
    686e:	74 05                	je     6875 <_ZN2ML12runLayerTestEmRKNS_5ModelERKNS_4PathE.cold+0x57>
    6870:	e8 db d9 ff ff       	call   4250 <_ZdlPv@plt>
    6875:	48 89 df             	mov    %rbx,%rdi
    6878:	4c 89 f3             	mov    %r14,%rbx
    687b:	e8 70 00 02 00       	call   268f0 <_ZN2ML9LayerDataD1Ev>
    6880:	48 8b bd 00 ff ff ff 	mov    -0x100(%rbp),%rdi
    6887:	4c 39 e7             	cmp    %r12,%rdi
    688a:	74 05                	je     6891 <_ZN2ML12runLayerTestEmRKNS_5ModelERKNS_4PathE.cold+0x73>
    688c:	e8 bf d9 ff ff       	call   4250 <_ZdlPv@plt>
    6891:	48 8b bd 68 fe ff ff 	mov    -0x198(%rbp),%rdi
    6898:	e8 53 00 02 00       	call   268f0 <_ZN2ML9LayerDataD1Ev>
    689d:	eb ac                	jmp    684b <_ZN2ML12runLayerTestEmRKNS_5ModelERKNS_4PathE.cold+0x2d>
    689f:	48 8b bd b0 fe ff ff 	mov    -0x150(%rbp),%rdi
    68a6:	48 8d 85 c0 fe ff ff 	lea    -0x140(%rbp),%rax
    68ad:	48 39 c7             	cmp    %rax,%rdi
    68b0:	74 05                	je     68b7 <_ZN2ML12runLayerTestEmRKNS_5ModelERKNS_4PathE.cold+0x99>
    68b2:	e8 99 d9 ff ff       	call   4250 <_ZdlPv@plt>
    68b7:	48 8b bd 90 fe ff ff 	mov    -0x170(%rbp),%rdi
    68be:	48 8d 85 a0 fe ff ff 	lea    -0x160(%rbp),%rax
    68c5:	48 39 c7             	cmp    %rax,%rdi
    68c8:	74 b6                	je     6880 <_ZN2ML12runLayerTestEmRKNS_5ModelERKNS_4PathE.cold+0x62>
    68ca:	e8 81 d9 ff ff       	call   4250 <_ZdlPv@plt>
    68cf:	eb af                	jmp    6880 <_ZN2ML12runLayerTestEmRKNS_5ModelERKNS_4PathE.cold+0x62>
    68d1:	48 8b 7d 80          	mov    -0x80(%rbp),%rdi
    68d5:	4c 39 ff             	cmp    %r15,%rdi
    68d8:	74 b7                	je     6891 <_ZN2ML12runLayerTestEmRKNS_5ModelERKNS_4PathE.cold+0x73>
    68da:	e8 71 d9 ff ff       	call   4250 <_ZdlPv@plt>
    68df:	eb b0                	jmp    6891 <_ZN2ML12runLayerTestEmRKNS_5ModelERKNS_4PathE.cold+0x73>
    68e1:	48 8b 7d 80          	mov    -0x80(%rbp),%rdi
    68e5:	4c 39 ff             	cmp    %r15,%rdi
    68e8:	74 a7                	je     6891 <_ZN2ML12runLayerTestEmRKNS_5ModelERKNS_4PathE.cold+0x73>
    68ea:	e8 61 d9 ff ff       	call   4250 <_ZdlPv@plt>
    68ef:	eb a0                	jmp    6891 <_ZN2ML12runLayerTestEmRKNS_5ModelERKNS_4PathE.cold+0x73>
    68f1:	48 8b 7d 80          	mov    -0x80(%rbp),%rdi
    68f5:	48 8d 45 90          	lea    -0x70(%rbp),%rax
    68f9:	48 39 c7             	cmp    %rax,%rdi
    68fc:	74 05                	je     6903 <_ZN2ML12runLayerTestEmRKNS_5ModelERKNS_4PathE.cold+0xe5>
    68fe:	e8 4d d9 ff ff       	call   4250 <_ZdlPv@plt>
    6903:	48 8b bd 30 ff ff ff 	mov    -0xd0(%rbp),%rdi
    690a:	48 8d 85 40 ff ff ff 	lea    -0xc0(%rbp),%rax
    6911:	48 39 c7             	cmp    %rax,%rdi
    6914:	74 05                	je     691b <_ZN2ML12runLayerTestEmRKNS_5ModelERKNS_4PathE.cold+0xfd>
    6916:	e8 35 d9 ff ff       	call   4250 <_ZdlPv@plt>
    691b:	48 8b bd d0 fe ff ff 	mov    -0x130(%rbp),%rdi
    6922:	48 8b 85 58 fe ff ff 	mov    -0x1a8(%rbp),%rax
    6929:	48 39 c7             	cmp    %rax,%rdi
    692c:	74 05                	je     6933 <_ZN2ML12runLayerTestEmRKNS_5ModelERKNS_4PathE.cold+0x115>
    692e:	e8 1d d9 ff ff       	call   4250 <_ZdlPv@plt>
    6933:	48 8b bd f0 fe ff ff 	mov    -0x110(%rbp),%rdi
    693a:	4c 39 ef             	cmp    %r13,%rdi
    693d:	74 05                	je     6944 <_ZN2ML12runLayerTestEmRKNS_5ModelERKNS_4PathE.cold+0x126>
    693f:	e8 0c d9 ff ff       	call   4250 <_ZdlPv@plt>
    6944:	48 89 df             	mov    %rbx,%rdi
    6947:	e8 04 db ff ff       	call   4450 <_Unwind_Resume@plt>

000000000000694c <_ZN2ML16profileFp32ModelERKNS_5ModelERKNS_4PathEi.cold>:
    694c:	48 8b bd 40 ff ff ff 	mov    -0xc0(%rbp),%rdi
    6953:	48 8b 85 70 fe ff ff 	mov    -0x190(%rbp),%rax
    695a:	48 39 c7             	cmp    %rax,%rdi
    695d:	74 05                	je     6964 <_ZN2ML16profileFp32ModelERKNS_5ModelERKNS_4PathEi.cold+0x18>
    695f:	e8 ec d8 ff ff       	call   4250 <_ZdlPv@plt>
    6964:	48 8b bd c0 fe ff ff 	mov    -0x140(%rbp),%rdi
    696b:	48 8d 85 d0 fe ff ff 	lea    -0x130(%rbp),%rax
    6972:	48 39 c7             	cmp    %rax,%rdi
    6975:	74 05                	je     697c <_ZN2ML16profileFp32ModelERKNS_5ModelERKNS_4PathEi.cold+0x30>
    6977:	e8 d4 d8 ff ff       	call   4250 <_ZdlPv@plt>
    697c:	48 83 bd 78 fe ff ff 	cmpq   $0x0,-0x188(%rbp)
    6983:	00 
    6984:	74 0c                	je     6992 <_ZN2ML16profileFp32ModelERKNS_5ModelERKNS_4PathEi.cold+0x46>
    6986:	48 8b bd 78 fe ff ff 	mov    -0x188(%rbp),%rdi
    698d:	e8 be d8 ff ff       	call   4250 <_ZdlPv@plt>
    6992:	48 89 df             	mov    %rbx,%rdi
    6995:	e8 b6 da ff ff       	call   4450 <_Unwind_Resume@plt>
    699a:	48 8b bd 40 ff ff ff 	mov    -0xc0(%rbp),%rdi
    69a1:	48 8b 85 70 fe ff ff 	mov    -0x190(%rbp),%rax
    69a8:	48 39 c7             	cmp    %rax,%rdi
    69ab:	74 05                	je     69b2 <_ZN2ML16profileFp32ModelERKNS_5ModelERKNS_4PathEi.cold+0x66>
    69ad:	e8 9e d8 ff ff       	call   4250 <_ZdlPv@plt>
    69b2:	48 8b bd 60 fe ff ff 	mov    -0x1a0(%rbp),%rdi
    69b9:	e8 32 ff 01 00       	call   268f0 <_ZN2ML9LayerDataD1Ev>
    69be:	eb a4                	jmp    6964 <_ZN2ML16profileFp32ModelERKNS_5ModelERKNS_4PathEi.cold+0x18>
    69c0:	48 8b bd 00 ff ff ff 	mov    -0x100(%rbp),%rdi
    69c7:	48 8b 85 a0 fe ff ff 	mov    -0x160(%rbp),%rax
    69ce:	48 39 c7             	cmp    %rax,%rdi
    69d1:	74 05                	je     69d8 <_ZN2ML16profileFp32ModelERKNS_5ModelERKNS_4PathEi.cold+0x8c>
    69d3:	e8 78 d8 ff ff       	call   4250 <_ZdlPv@plt>
    69d8:	48 8b bd e0 fe ff ff 	mov    -0x120(%rbp),%rdi
    69df:	48 8b 85 98 fe ff ff 	mov    -0x168(%rbp),%rax
    69e6:	48 39 c7             	cmp    %rax,%rdi
    69e9:	74 c7                	je     69b2 <_ZN2ML16profileFp32ModelERKNS_5ModelERKNS_4PathEi.cold+0x66>
    69eb:	e8 60 d8 ff ff       	call   4250 <_ZdlPv@plt>
    69f0:	eb c0                	jmp    69b2 <_ZN2ML16profileFp32ModelERKNS_5ModelERKNS_4PathEi.cold+0x66>
    69f2:	48 8b bd 00 ff ff ff 	mov    -0x100(%rbp),%rdi
    69f9:	48 8d 85 10 ff ff ff 	lea    -0xf0(%rbp),%rax
    6a00:	48 39 c7             	cmp    %rax,%rdi
    6a03:	74 05                	je     6a0a <_ZN2ML16profileFp32ModelERKNS_5ModelERKNS_4PathEi.cold+0xbe>
    6a05:	e8 46 d8 ff ff       	call   4250 <_ZdlPv@plt>
    6a0a:	48 8b bd e0 fe ff ff 	mov    -0x120(%rbp),%rdi
    6a11:	48 8d 85 f0 fe ff ff 	lea    -0x110(%rbp),%rax
    6a18:	48 39 c7             	cmp    %rax,%rdi
    6a1b:	74 05                	je     6a22 <_ZN2ML16profileFp32ModelERKNS_5ModelERKNS_4PathEi.cold+0xd6>
    6a1d:	e8 2e d8 ff ff       	call   4250 <_ZdlPv@plt>
    6a22:	48 8b 7d 80          	mov    -0x80(%rbp),%rdi
    6a26:	48 8b 85 48 fe ff ff 	mov    -0x1b8(%rbp),%rax
    6a2d:	48 39 c7             	cmp    %rax,%rdi
    6a30:	74 05                	je     6a37 <_ZN2ML16profileFp32ModelERKNS_5ModelERKNS_4PathEi.cold+0xeb>
    6a32:	e8 19 d8 ff ff       	call   4250 <_ZdlPv@plt>
    6a37:	48 8b bd 40 ff ff ff 	mov    -0xc0(%rbp),%rdi
    6a3e:	48 8b 85 70 fe ff ff 	mov    -0x190(%rbp),%rax
    6a45:	48 39 c7             	cmp    %rax,%rdi
    6a48:	0f 84 2e ff ff ff    	je     697c <_ZN2ML16profileFp32ModelERKNS_5ModelERKNS_4PathEi.cold+0x30>
    6a4e:	e8 fd d7 ff ff       	call   4250 <_ZdlPv@plt>
    6a53:	e9 24 ff ff ff       	jmp    697c <_ZN2ML16profileFp32ModelERKNS_5ModelERKNS_4PathEi.cold+0x30>
    6a58:	48 8b 7d 80          	mov    -0x80(%rbp),%rdi
    6a5c:	48 8d 45 90          	lea    -0x70(%rbp),%rax
    6a60:	48 39 c7             	cmp    %rax,%rdi
    6a63:	0f 85 24 ff ff ff    	jne    698d <_ZN2ML16profileFp32ModelERKNS_5ModelERKNS_4PathEi.cold+0x41>
    6a69:	e9 24 ff ff ff       	jmp    6992 <_ZN2ML16profileFp32ModelERKNS_5ModelERKNS_4PathEi.cold+0x46>
    6a6e:	48 8b 7d 80          	mov    -0x80(%rbp),%rdi
    6a72:	48 8b 85 48 fe ff ff 	mov    -0x1b8(%rbp),%rax
    6a79:	48 39 c7             	cmp    %rax,%rdi
    6a7c:	0f 84 fa fe ff ff    	je     697c <_ZN2ML16profileFp32ModelERKNS_5ModelERKNS_4PathEi.cold+0x30>
    6a82:	e8 c9 d7 ff ff       	call   4250 <_ZdlPv@plt>
    6a87:	e9 f0 fe ff ff       	jmp    697c <_ZN2ML16profileFp32ModelERKNS_5ModelERKNS_4PathEi.cold+0x30>
    6a8c:	48 8b bd 50 ff ff ff 	mov    -0xb0(%rbp),%rdi
    6a93:	4c 39 f7             	cmp    %r14,%rdi
    6a96:	0f 84 16 ff ff ff    	je     69b2 <_ZN2ML16profileFp32ModelERKNS_5ModelERKNS_4PathEi.cold+0x66>
    6a9c:	e8 af d7 ff ff       	call   4250 <_ZdlPv@plt>
    6aa1:	e9 0c ff ff ff       	jmp    69b2 <_ZN2ML16profileFp32ModelERKNS_5ModelERKNS_4PathEi.cold+0x66>

0000000000006aa6 <_ZN2ML22profileModelWithTilingERKNS_5ModelERKNS_4PathEi.cold>:
    6aa6:	48 8b bd 40 ff ff ff 	mov    -0xc0(%rbp),%rdi
    6aad:	48 8b 85 08 fe ff ff 	mov    -0x1f8(%rbp),%rax
    6ab4:	48 39 c7             	cmp    %rax,%rdi
    6ab7:	74 05                	je     6abe <_ZN2ML22profileModelWithTilingERKNS_5ModelERKNS_4PathEi.cold+0x18>
    6ab9:	e8 92 d7 ff ff       	call   4250 <_ZdlPv@plt>
    6abe:	48 8b 7d 80          	mov    -0x80(%rbp),%rdi
    6ac2:	48 8b 85 e8 fd ff ff 	mov    -0x218(%rbp),%rax
    6ac9:	48 39 c7             	cmp    %rax,%rdi
    6acc:	74 05                	je     6ad3 <_ZN2ML22profileModelWithTilingERKNS_5ModelERKNS_4PathEi.cold+0x2d>
    6ace:	e8 7d d7 ff ff       	call   4250 <_ZdlPv@plt>
    6ad3:	48 8b bd 80 fe ff ff 	mov    -0x180(%rbp),%rdi
    6ada:	4c 39 e7             	cmp    %r12,%rdi
    6add:	74 05                	je     6ae4 <_ZN2ML22profileModelWithTilingERKNS_5ModelERKNS_4PathEi.cold+0x3e>
    6adf:	e8 6c d7 ff ff       	call   4250 <_ZdlPv@plt>
    6ae4:	48 8b bd e0 fe ff ff 	mov    -0x120(%rbp),%rdi
    6aeb:	48 8b 85 28 fe ff ff 	mov    -0x1d8(%rbp),%rax
    6af2:	48 39 c7             	cmp    %rax,%rdi
    6af5:	74 05                	je     6afc <_ZN2ML22profileModelWithTilingERKNS_5ModelERKNS_4PathEi.cold+0x56>
    6af7:	e8 54 d7 ff ff       	call   4250 <_ZdlPv@plt>
    6afc:	48 8b bd c0 fe ff ff 	mov    -0x140(%rbp),%rdi
    6b03:	48 8b 85 20 fe ff ff 	mov    -0x1e0(%rbp),%rax
    6b0a:	48 39 c7             	cmp    %rax,%rdi
    6b0d:	74 05                	je     6b14 <_ZN2ML22profileModelWithTilingERKNS_5ModelERKNS_4PathEi.cold+0x6e>
    6b0f:	e8 3c d7 ff ff       	call   4250 <_ZdlPv@plt>
    6b14:	48 83 bd f0 fd ff ff 	cmpq   $0x0,-0x210(%rbp)
    6b1b:	00 
    6b1c:	74 0c                	je     6b2a <_ZN2ML22profileModelWithTilingERKNS_5ModelERKNS_4PathEi.cold+0x84>
    6b1e:	48 8b bd f0 fd ff ff 	mov    -0x210(%rbp),%rdi
    6b25:	e8 26 d7 ff ff       	call   4250 <_ZdlPv@plt>
    6b2a:	48 8b bd 40 fe ff ff 	mov    -0x1c0(%rbp),%rdi
    6b31:	48 85 ff             	test   %rdi,%rdi
    6b34:	74 05                	je     6b3b <_ZN2ML22profileModelWithTilingERKNS_5ModelERKNS_4PathEi.cold+0x95>
    6b36:	e8 15 d7 ff ff       	call   4250 <_ZdlPv@plt>
    6b3b:	48 89 df             	mov    %rbx,%rdi
    6b3e:	e8 0d d9 ff ff       	call   4450 <_Unwind_Resume@plt>
    6b43:	48 8b bd 40 ff ff ff 	mov    -0xc0(%rbp),%rdi
    6b4a:	48 8b 85 08 fe ff ff 	mov    -0x1f8(%rbp),%rax
    6b51:	48 39 c7             	cmp    %rax,%rdi
    6b54:	75 26                	jne    6b7c <_ZN2ML22profileModelWithTilingERKNS_5ModelERKNS_4PathEi.cold+0xd6>
    6b56:	48 8b bd f8 fd ff ff 	mov    -0x208(%rbp),%rdi
    6b5d:	e8 8e fd 01 00       	call   268f0 <_ZN2ML9LayerDataD1Ev>
    6b62:	48 8b bd 60 fe ff ff 	mov    -0x1a0(%rbp),%rdi
    6b69:	48 8b 85 b8 fd ff ff 	mov    -0x248(%rbp),%rax
    6b70:	48 39 c7             	cmp    %rax,%rdi
    6b73:	74 9f                	je     6b14 <_ZN2ML22profileModelWithTilingERKNS_5ModelERKNS_4PathEi.cold+0x6e>
    6b75:	e8 d6 d6 ff ff       	call   4250 <_ZdlPv@plt>
    6b7a:	eb 98                	jmp    6b14 <_ZN2ML22profileModelWithTilingERKNS_5ModelERKNS_4PathEi.cold+0x6e>
    6b7c:	e8 cf d6 ff ff       	call   4250 <_ZdlPv@plt>
    6b81:	eb d3                	jmp    6b56 <_ZN2ML22profileModelWithTilingERKNS_5ModelERKNS_4PathEi.cold+0xb0>
    6b83:	48 8b bd 40 ff ff ff 	mov    -0xc0(%rbp),%rdi
    6b8a:	48 8b 85 08 fe ff ff 	mov    -0x1f8(%rbp),%rax
    6b91:	48 39 c7             	cmp    %rax,%rdi
    6b94:	74 05                	je     6b9b <_ZN2ML22profileModelWithTilingERKNS_5ModelERKNS_4PathEi.cold+0xf5>
    6b96:	e8 b5 d6 ff ff       	call   4250 <_ZdlPv@plt>
    6b9b:	48 8b 7d 80          	mov    -0x80(%rbp),%rdi
    6b9f:	48 8b 85 e8 fd ff ff 	mov    -0x218(%rbp),%rax
    6ba6:	48 39 c7             	cmp    %rax,%rdi
    6ba9:	0f 85 30 ff ff ff    	jne    6adf <_ZN2ML22profileModelWithTilingERKNS_5ModelERKNS_4PathEi.cold+0x39>
    6baf:	e9 30 ff ff ff       	jmp    6ae4 <_ZN2ML22profileModelWithTilingERKNS_5ModelERKNS_4PathEi.cold+0x3e>
    6bb4:	48 8b 7d 80          	mov    -0x80(%rbp),%rdi
    6bb8:	48 8b 85 e8 fd ff ff 	mov    -0x218(%rbp),%rax
    6bbf:	48 39 c7             	cmp    %rax,%rdi
    6bc2:	74 05                	je     6bc9 <_ZN2ML22profileModelWithTilingERKNS_5ModelERKNS_4PathEi.cold+0x123>
    6bc4:	e8 87 d6 ff ff       	call   4250 <_ZdlPv@plt>
    6bc9:	48 8b bd 40 ff ff ff 	mov    -0xc0(%rbp),%rdi
    6bd0:	48 8b 85 08 fe ff ff 	mov    -0x1f8(%rbp),%rax
    6bd7:	48 39 c7             	cmp    %rax,%rdi
    6bda:	74 05                	je     6be1 <_ZN2ML22profileModelWithTilingERKNS_5ModelERKNS_4PathEi.cold+0x13b>
    6bdc:	e8 6f d6 ff ff       	call   4250 <_ZdlPv@plt>
    6be1:	48 8b bd e0 fe ff ff 	mov    -0x120(%rbp),%rdi
    6be8:	48 8d 85 f0 fe ff ff 	lea    -0x110(%rbp),%rax
    6bef:	48 39 c7             	cmp    %rax,%rdi
    6bf2:	0f 84 32 ff ff ff    	je     6b2a <_ZN2ML22profileModelWithTilingERKNS_5ModelERKNS_4PathEi.cold+0x84>
    6bf8:	e8 53 d6 ff ff       	call   4250 <_ZdlPv@plt>
    6bfd:	e9 28 ff ff ff       	jmp    6b2a <_ZN2ML22profileModelWithTilingERKNS_5ModelERKNS_4PathEi.cold+0x84>
    6c02:	48 8b 7d 80          	mov    -0x80(%rbp),%rdi
    6c06:	48 8b 85 e8 fd ff ff 	mov    -0x218(%rbp),%rax
    6c0d:	48 39 c7             	cmp    %rax,%rdi
    6c10:	74 05                	je     6c17 <_ZN2ML22profileModelWithTilingERKNS_5ModelERKNS_4PathEi.cold+0x171>
    6c12:	e8 39 d6 ff ff       	call   4250 <_ZdlPv@plt>
    6c17:	48 8b bd 40 ff ff ff 	mov    -0xc0(%rbp),%rdi
    6c1e:	48 8b 85 08 fe ff ff 	mov    -0x1f8(%rbp),%rax
    6c25:	48 39 c7             	cmp    %rax,%rdi
    6c28:	74 05                	je     6c2f <_ZN2ML22profileModelWithTilingERKNS_5ModelERKNS_4PathEi.cold+0x189>
    6c2a:	e8 21 d6 ff ff       	call   4250 <_ZdlPv@plt>
    6c2f:	48 8b bd e0 fe ff ff 	mov    -0x120(%rbp),%rdi
    6c36:	48 8b 85 28 fe ff ff 	mov    -0x1d8(%rbp),%rax
    6c3d:	48 39 c7             	cmp    %rax,%rdi
    6c40:	0f 84 ce fe ff ff    	je     6b14 <_ZN2ML22profileModelWithTilingERKNS_5ModelERKNS_4PathEi.cold+0x6e>
    6c46:	e8 05 d6 ff ff       	call   4250 <_ZdlPv@plt>
    6c4b:	e9 c4 fe ff ff       	jmp    6b14 <_ZN2ML22profileModelWithTilingERKNS_5ModelERKNS_4PathEi.cold+0x6e>
    6c50:	48 8b 7d 80          	mov    -0x80(%rbp),%rdi
    6c54:	48 8d 45 90          	lea    -0x70(%rbp),%rax
    6c58:	48 39 c7             	cmp    %rax,%rdi
    6c5b:	0f 85 d5 fe ff ff    	jne    6b36 <_ZN2ML22profileModelWithTilingERKNS_5ModelERKNS_4PathEi.cold+0x90>
    6c61:	e9 d5 fe ff ff       	jmp    6b3b <_ZN2ML22profileModelWithTilingERKNS_5ModelERKNS_4PathEi.cold+0x95>
    6c66:	48 8b bd 50 ff ff ff 	mov    -0xb0(%rbp),%rdi
    6c6d:	4c 39 f7             	cmp    %r14,%rdi
    6c70:	0f 84 e0 fe ff ff    	je     6b56 <_ZN2ML22profileModelWithTilingERKNS_5ModelERKNS_4PathEi.cold+0xb0>
    6c76:	e8 d5 d5 ff ff       	call   4250 <_ZdlPv@plt>
    6c7b:	e9 d6 fe ff ff       	jmp    6b56 <_ZN2ML22profileModelWithTilingERKNS_5ModelERKNS_4PathEi.cold+0xb0>
    6c80:	48 8b 7d 88          	mov    -0x78(%rbp),%rdi
    6c84:	48 85 ff             	test   %rdi,%rdi
    6c87:	74 05                	je     6c8e <_ZN2ML22profileModelWithTilingERKNS_5ModelERKNS_4PathEi.cold+0x1e8>
    6c89:	e8 c2 d5 ff ff       	call   4250 <_ZdlPv@plt>
    6c8e:	48 85 db             	test   %rbx,%rbx
    6c91:	0f 85 d2 00 00 00    	jne    6d69 <_ZN2ML22profileModelWithTilingERKNS_5ModelERKNS_4PathEi.cold+0x2c3>
    6c97:	4c 89 f3             	mov    %r14,%rbx
    6c9a:	48 8b bd 40 ff ff ff 	mov    -0xc0(%rbp),%rdi
    6ca1:	48 8b 85 08 fe ff ff 	mov    -0x1f8(%rbp),%rax
    6ca8:	48 39 c7             	cmp    %rax,%rdi
    6cab:	74 05                	je     6cb2 <_ZN2ML22profileModelWithTilingERKNS_5ModelERKNS_4PathEi.cold+0x20c>
    6cad:	e8 9e d5 ff ff       	call   4250 <_ZdlPv@plt>
    6cb2:	48 8b bd e0 fe ff ff 	mov    -0x120(%rbp),%rdi
    6cb9:	48 8b 85 28 fe ff ff 	mov    -0x1d8(%rbp),%rax
    6cc0:	48 39 c7             	cmp    %rax,%rdi
    6cc3:	0f 84 99 fe ff ff    	je     6b62 <_ZN2ML22profileModelWithTilingERKNS_5ModelERKNS_4PathEi.cold+0xbc>
    6cc9:	e8 82 d5 ff ff       	call   4250 <_ZdlPv@plt>
    6cce:	e9 8f fe ff ff       	jmp    6b62 <_ZN2ML22profileModelWithTilingERKNS_5ModelERKNS_4PathEi.cold+0xbc>
    6cd3:	48 8b 7d 80          	mov    -0x80(%rbp),%rdi
    6cd7:	48 8b 85 e8 fd ff ff 	mov    -0x218(%rbp),%rax
    6cde:	48 39 c7             	cmp    %rax,%rdi
    6ce1:	74 05                	je     6ce8 <_ZN2ML22profileModelWithTilingERKNS_5ModelERKNS_4PathEi.cold+0x242>
    6ce3:	e8 68 d5 ff ff       	call   4250 <_ZdlPv@plt>
    6ce8:	48 8b bd a0 fe ff ff 	mov    -0x160(%rbp),%rdi
    6cef:	48 39 df             	cmp    %rbx,%rdi
    6cf2:	74 05                	je     6cf9 <_ZN2ML22profileModelWithTilingERKNS_5ModelERKNS_4PathEi.cold+0x253>
    6cf4:	e8 57 d5 ff ff       	call   4250 <_ZdlPv@plt>
    6cf9:	4c 89 f3             	mov    %r14,%rbx
    6cfc:	e9 d2 fd ff ff       	jmp    6ad3 <_ZN2ML22profileModelWithTilingERKNS_5ModelERKNS_4PathEi.cold+0x2d>
    6d01:	48 8b bd 40 ff ff ff 	mov    -0xc0(%rbp),%rdi
    6d08:	48 8b 85 08 fe ff ff 	mov    -0x1f8(%rbp),%rax
    6d0f:	48 39 c7             	cmp    %rax,%rdi
    6d12:	74 05                	je     6d19 <_ZN2ML22profileModelWithTilingERKNS_5ModelERKNS_4PathEi.cold+0x273>
    6d14:	e8 37 d5 ff ff       	call   4250 <_ZdlPv@plt>
    6d19:	48 8b 7d 80          	mov    -0x80(%rbp),%rdi
    6d1d:	48 8b 85 e8 fd ff ff 	mov    -0x218(%rbp),%rax
    6d24:	48 39 c7             	cmp    %rax,%rdi
    6d27:	74 bf                	je     6ce8 <_ZN2ML22profileModelWithTilingERKNS_5ModelERKNS_4PathEi.cold+0x242>
    6d29:	e8 22 d5 ff ff       	call   4250 <_ZdlPv@plt>
    6d2e:	eb b8                	jmp    6ce8 <_ZN2ML22profileModelWithTilingERKNS_5ModelERKNS_4PathEi.cold+0x242>
    6d30:	48 8b bd e0 fe ff ff 	mov    -0x120(%rbp),%rdi
    6d37:	48 8b 85 28 fe ff ff 	mov    -0x1d8(%rbp),%rax
    6d3e:	48 39 c7             	cmp    %rax,%rdi
    6d41:	74 05                	je     6d48 <_ZN2ML22profileModelWithTilingERKNS_5ModelERKNS_4PathEi.cold+0x2a2>
    6d43:	e8 08 d5 ff ff       	call   4250 <_ZdlPv@plt>
    6d48:	48 8b bd c0 fe ff ff 	mov    -0x140(%rbp),%rdi
    6d4f:	48 8b 85 20 fe ff ff 	mov    -0x1e0(%rbp),%rax
    6d56:	48 39 c7             	cmp    %rax,%rdi
    6d59:	0f 84 f7 fd ff ff    	je     6b56 <_ZN2ML22profileModelWithTilingERKNS_5ModelERKNS_4PathEi.cold+0xb0>
    6d5f:	e8 ec d4 ff ff       	call   4250 <_ZdlPv@plt>
    6d64:	e9 ed fd ff ff       	jmp    6b56 <_ZN2ML22profileModelWithTilingERKNS_5ModelERKNS_4PathEi.cold+0xb0>
    6d69:	48 89 df             	mov    %rbx,%rdi
    6d6c:	e8 df d4 ff ff       	call   4250 <_ZdlPv@plt>
    6d71:	e9 21 ff ff ff       	jmp    6c97 <_ZN2ML22profileModelWithTilingERKNS_5ModelERKNS_4PathEi.cold+0x1f1>
    6d76:	48 8b 7d 80          	mov    -0x80(%rbp),%rdi
    6d7a:	48 8b 85 e8 fd ff ff 	mov    -0x218(%rbp),%rax
    6d81:	48 39 c7             	cmp    %rax,%rdi
    6d84:	0f 84 49 fd ff ff    	je     6ad3 <_ZN2ML22profileModelWithTilingERKNS_5ModelERKNS_4PathEi.cold+0x2d>
    6d8a:	e8 c1 d4 ff ff       	call   4250 <_ZdlPv@plt>
    6d8f:	e9 3f fd ff ff       	jmp    6ad3 <_ZN2ML22profileModelWithTilingERKNS_5ModelERKNS_4PathEi.cold+0x2d>

0000000000006d94 <_ZN2ML25profileModelWithThreadingERKNS_5ModelERKNS_4PathEi.cold>:
    6d94:	48 8b bd 40 ff ff ff 	mov    -0xc0(%rbp),%rdi
    6d9b:	48 8b 85 08 fe ff ff 	mov    -0x1f8(%rbp),%rax
    6da2:	48 39 c7             	cmp    %rax,%rdi
    6da5:	74 05                	je     6dac <_ZN2ML25profileModelWithThreadingERKNS_5ModelERKNS_4PathEi.cold+0x18>
    6da7:	e8 a4 d4 ff ff       	call   4250 <_ZdlPv@plt>
    6dac:	48 8b 7d 80          	mov    -0x80(%rbp),%rdi
    6db0:	48 8b 85 e8 fd ff ff 	mov    -0x218(%rbp),%rax
    6db7:	48 39 c7             	cmp    %rax,%rdi
    6dba:	74 05                	je     6dc1 <_ZN2ML25profileModelWithThreadingERKNS_5ModelERKNS_4PathEi.cold+0x2d>
    6dbc:	e8 8f d4 ff ff       	call   4250 <_ZdlPv@plt>
    6dc1:	48 8b bd 80 fe ff ff 	mov    -0x180(%rbp),%rdi
    6dc8:	4c 39 e7             	cmp    %r12,%rdi
    6dcb:	74 05                	je     6dd2 <_ZN2ML25profileModelWithThreadingERKNS_5ModelERKNS_4PathEi.cold+0x3e>
    6dcd:	e8 7e d4 ff ff       	call   4250 <_ZdlPv@plt>
    6dd2:	48 8b bd e0 fe ff ff 	mov    -0x120(%rbp),%rdi
    6dd9:	48 8b 85 28 fe ff ff 	mov    -0x1d8(%rbp),%rax
    6de0:	48 39 c7             	cmp    %rax,%rdi
    6de3:	74 05                	je     6dea <_ZN2ML25profileModelWithThreadingERKNS_5ModelERKNS_4PathEi.cold+0x56>
    6de5:	e8 66 d4 ff ff       	call   4250 <_ZdlPv@plt>
    6dea:	48 8b bd c0 fe ff ff 	mov    -0x140(%rbp),%rdi
    6df1:	48 8b 85 20 fe ff ff 	mov    -0x1e0(%rbp),%rax
    6df8:	48 39 c7             	cmp    %rax,%rdi
    6dfb:	74 05                	je     6e02 <_ZN2ML25profileModelWithThreadingERKNS_5ModelERKNS_4PathEi.cold+0x6e>
    6dfd:	e8 4e d4 ff ff       	call   4250 <_ZdlPv@plt>
    6e02:	48 83 bd f0 fd ff ff 	cmpq   $0x0,-0x210(%rbp)
    6e09:	00 
    6e0a:	74 0c                	je     6e18 <_ZN2ML25profileModelWithThreadingERKNS_5ModelERKNS_4PathEi.cold+0x84>
    6e0c:	48 8b bd f0 fd ff ff 	mov    -0x210(%rbp),%rdi
    6e13:	e8 38 d4 ff ff       	call   4250 <_ZdlPv@plt>
    6e18:	48 8b bd 40 fe ff ff 	mov    -0x1c0(%rbp),%rdi
    6e1f:	48 85 ff             	test   %rdi,%rdi
    6e22:	74 05                	je     6e29 <_ZN2ML25profileModelWithThreadingERKNS_5ModelERKNS_4PathEi.cold+0x95>
    6e24:	e8 27 d4 ff ff       	call   4250 <_ZdlPv@plt>
    6e29:	48 89 df             	mov    %rbx,%rdi
    6e2c:	e8 1f d6 ff ff       	call   4450 <_Unwind_Resume@plt>
    6e31:	48 8b bd 40 ff ff ff 	mov    -0xc0(%rbp),%rdi
    6e38:	48 8b 85 08 fe ff ff 	mov    -0x1f8(%rbp),%rax
    6e3f:	48 39 c7             	cmp    %rax,%rdi
    6e42:	75 26                	jne    6e6a <_ZN2ML25profileModelWithThreadingERKNS_5ModelERKNS_4PathEi.cold+0xd6>
    6e44:	48 8b bd f8 fd ff ff 	mov    -0x208(%rbp),%rdi
    6e4b:	e8 a0 fa 01 00       	call   268f0 <_ZN2ML9LayerDataD1Ev>
    6e50:	48 8b bd 60 fe ff ff 	mov    -0x1a0(%rbp),%rdi
    6e57:	48 8b 85 b8 fd ff ff 	mov    -0x248(%rbp),%rax
    6e5e:	48 39 c7             	cmp    %rax,%rdi
    6e61:	74 9f                	je     6e02 <_ZN2ML25profileModelWithThreadingERKNS_5ModelERKNS_4PathEi.cold+0x6e>
    6e63:	e8 e8 d3 ff ff       	call   4250 <_ZdlPv@plt>
    6e68:	eb 98                	jmp    6e02 <_ZN2ML25profileModelWithThreadingERKNS_5ModelERKNS_4PathEi.cold+0x6e>
    6e6a:	e8 e1 d3 ff ff       	call   4250 <_ZdlPv@plt>
    6e6f:	eb d3                	jmp    6e44 <_ZN2ML25profileModelWithThreadingERKNS_5ModelERKNS_4PathEi.cold+0xb0>
    6e71:	48 8b bd 40 ff ff ff 	mov    -0xc0(%rbp),%rdi
    6e78:	48 8b 85 08 fe ff ff 	mov    -0x1f8(%rbp),%rax
    6e7f:	48 39 c7             	cmp    %rax,%rdi
    6e82:	74 05                	je     6e89 <_ZN2ML25profileModelWithThreadingERKNS_5ModelERKNS_4PathEi.cold+0xf5>
    6e84:	e8 c7 d3 ff ff       	call   4250 <_ZdlPv@plt>
    6e89:	48 8b 7d 80          	mov    -0x80(%rbp),%rdi
    6e8d:	48 8b 85 e8 fd ff ff 	mov    -0x218(%rbp),%rax
    6e94:	48 39 c7             	cmp    %rax,%rdi
    6e97:	0f 85 30 ff ff ff    	jne    6dcd <_ZN2ML25profileModelWithThreadingERKNS_5ModelERKNS_4PathEi.cold+0x39>
    6e9d:	e9 30 ff ff ff       	jmp    6dd2 <_ZN2ML25profileModelWithThreadingERKNS_5ModelERKNS_4PathEi.cold+0x3e>
    6ea2:	48 8b 7d 80          	mov    -0x80(%rbp),%rdi
    6ea6:	48 8b 85 e8 fd ff ff 	mov    -0x218(%rbp),%rax
    6ead:	48 39 c7             	cmp    %rax,%rdi
    6eb0:	74 05                	je     6eb7 <_ZN2ML25profileModelWithThreadingERKNS_5ModelERKNS_4PathEi.cold+0x123>
    6eb2:	e8 99 d3 ff ff       	call   4250 <_ZdlPv@plt>
    6eb7:	48 8b bd 40 ff ff ff 	mov    -0xc0(%rbp),%rdi
    6ebe:	48 8b 85 08 fe ff ff 	mov    -0x1f8(%rbp),%rax
    6ec5:	48 39 c7             	cmp    %rax,%rdi
    6ec8:	74 05                	je     6ecf <_ZN2ML25profileModelWithThreadingERKNS_5ModelERKNS_4PathEi.cold+0x13b>
    6eca:	e8 81 d3 ff ff       	call   4250 <_ZdlPv@plt>
    6ecf:	48 8b bd e0 fe ff ff 	mov    -0x120(%rbp),%rdi
    6ed6:	48 8d 85 f0 fe ff ff 	lea    -0x110(%rbp),%rax
    6edd:	48 39 c7             	cmp    %rax,%rdi
    6ee0:	0f 84 32 ff ff ff    	je     6e18 <_ZN2ML25profileModelWithThreadingERKNS_5ModelERKNS_4PathEi.cold+0x84>
    6ee6:	e8 65 d3 ff ff       	call   4250 <_ZdlPv@plt>
    6eeb:	e9 28 ff ff ff       	jmp    6e18 <_ZN2ML25profileModelWithThreadingERKNS_5ModelERKNS_4PathEi.cold+0x84>
    6ef0:	48 8b 7d 80          	mov    -0x80(%rbp),%rdi
    6ef4:	48 8b 85 e8 fd ff ff 	mov    -0x218(%rbp),%rax
    6efb:	48 39 c7             	cmp    %rax,%rdi
    6efe:	74 05                	je     6f05 <_ZN2ML25profileModelWithThreadingERKNS_5ModelERKNS_4PathEi.cold+0x171>
    6f00:	e8 4b d3 ff ff       	call   4250 <_ZdlPv@plt>
    6f05:	48 8b bd 40 ff ff ff 	mov    -0xc0(%rbp),%rdi
    6f0c:	48 8b 85 08 fe ff ff 	mov    -0x1f8(%rbp),%rax
    6f13:	48 39 c7             	cmp    %rax,%rdi
    6f16:	74 05                	je     6f1d <_ZN2ML25profileModelWithThreadingERKNS_5ModelERKNS_4PathEi.cold+0x189>
    6f18:	e8 33 d3 ff ff       	call   4250 <_ZdlPv@plt>
    6f1d:	48 8b bd e0 fe ff ff 	mov    -0x120(%rbp),%rdi
    6f24:	48 8b 85 28 fe ff ff 	mov    -0x1d8(%rbp),%rax
    6f2b:	48 39 c7             	cmp    %rax,%rdi
    6f2e:	0f 84 ce fe ff ff    	je     6e02 <_ZN2ML25profileModelWithThreadingERKNS_5ModelERKNS_4PathEi.cold+0x6e>
    6f34:	e8 17 d3 ff ff       	call   4250 <_ZdlPv@plt>
    6f39:	e9 c4 fe ff ff       	jmp    6e02 <_ZN2ML25profileModelWithThreadingERKNS_5ModelERKNS_4PathEi.cold+0x6e>
    6f3e:	48 8b 7d 80          	mov    -0x80(%rbp),%rdi
    6f42:	48 8d 45 90          	lea    -0x70(%rbp),%rax
    6f46:	48 39 c7             	cmp    %rax,%rdi
    6f49:	0f 85 d5 fe ff ff    	jne    6e24 <_ZN2ML25profileModelWithThreadingERKNS_5ModelERKNS_4PathEi.cold+0x90>
    6f4f:	e9 d5 fe ff ff       	jmp    6e29 <_ZN2ML25profileModelWithThreadingERKNS_5ModelERKNS_4PathEi.cold+0x95>
    6f54:	48 8b bd 50 ff ff ff 	mov    -0xb0(%rbp),%rdi
    6f5b:	4c 39 f7             	cmp    %r14,%rdi
    6f5e:	0f 84 e0 fe ff ff    	je     6e44 <_ZN2ML25profileModelWithThreadingERKNS_5ModelERKNS_4PathEi.cold+0xb0>
    6f64:	e8 e7 d2 ff ff       	call   4250 <_ZdlPv@plt>
    6f69:	e9 d6 fe ff ff       	jmp    6e44 <_ZN2ML25profileModelWithThreadingERKNS_5ModelERKNS_4PathEi.cold+0xb0>
    6f6e:	48 8b 7d 88          	mov    -0x78(%rbp),%rdi
    6f72:	48 85 ff             	test   %rdi,%rdi
    6f75:	74 05                	je     6f7c <_ZN2ML25profileModelWithThreadingERKNS_5ModelERKNS_4PathEi.cold+0x1e8>
    6f77:	e8 d4 d2 ff ff       	call   4250 <_ZdlPv@plt>
    6f7c:	48 85 db             	test   %rbx,%rbx
    6f7f:	0f 85 d2 00 00 00    	jne    7057 <_ZN2ML25profileModelWithThreadingERKNS_5ModelERKNS_4PathEi.cold+0x2c3>
    6f85:	4c 89 f3             	mov    %r14,%rbx
    6f88:	48 8b bd 40 ff ff ff 	mov    -0xc0(%rbp),%rdi
    6f8f:	48 8b 85 08 fe ff ff 	mov    -0x1f8(%rbp),%rax
    6f96:	48 39 c7             	cmp    %rax,%rdi
    6f99:	74 05                	je     6fa0 <_ZN2ML25profileModelWithThreadingERKNS_5ModelERKNS_4PathEi.cold+0x20c>
    6f9b:	e8 b0 d2 ff ff       	call   4250 <_ZdlPv@plt>
    6fa0:	48 8b bd e0 fe ff ff 	mov    -0x120(%rbp),%rdi
    6fa7:	48 8b 85 28 fe ff ff 	mov    -0x1d8(%rbp),%rax
    6fae:	48 39 c7             	cmp    %rax,%rdi
    6fb1:	0f 84 99 fe ff ff    	je     6e50 <_ZN2ML25profileModelWithThreadingERKNS_5ModelERKNS_4PathEi.cold+0xbc>
    6fb7:	e8 94 d2 ff ff       	call   4250 <_ZdlPv@plt>
    6fbc:	e9 8f fe ff ff       	jmp    6e50 <_ZN2ML25profileModelWithThreadingERKNS_5ModelERKNS_4PathEi.cold+0xbc>
    6fc1:	48 8b 7d 80          	mov    -0x80(%rbp),%rdi
    6fc5:	48 8b 85 e8 fd ff ff 	mov    -0x218(%rbp),%rax
    6fcc:	48 39 c7             	cmp    %rax,%rdi
    6fcf:	74 05                	je     6fd6 <_ZN2ML25profileModelWithThreadingERKNS_5ModelERKNS_4PathEi.cold+0x242>
    6fd1:	e8 7a d2 ff ff       	call   4250 <_ZdlPv@plt>
    6fd6:	48 8b bd a0 fe ff ff 	mov    -0x160(%rbp),%rdi
    6fdd:	48 39 df             	cmp    %rbx,%rdi
    6fe0:	74 05                	je     6fe7 <_ZN2ML25profileModelWithThreadingERKNS_5ModelERKNS_4PathEi.cold+0x253>
    6fe2:	e8 69 d2 ff ff       	call   4250 <_ZdlPv@plt>
    6fe7:	4c 89 f3             	mov    %r14,%rbx
    6fea:	e9 d2 fd ff ff       	jmp    6dc1 <_ZN2ML25profileModelWithThreadingERKNS_5ModelERKNS_4PathEi.cold+0x2d>
    6fef:	48 8b bd 40 ff ff ff 	mov    -0xc0(%rbp),%rdi
    6ff6:	48 8b 85 08 fe ff ff 	mov    -0x1f8(%rbp),%rax
    6ffd:	48 39 c7             	cmp    %rax,%rdi
    7000:	74 05                	je     7007 <_ZN2ML25profileModelWithThreadingERKNS_5ModelERKNS_4PathEi.cold+0x273>
    7002:	e8 49 d2 ff ff       	call   4250 <_ZdlPv@plt>
    7007:	48 8b 7d 80          	mov    -0x80(%rbp),%rdi
    700b:	48 8b 85 e8 fd ff ff 	mov    -0x218(%rbp),%rax
    7012:	48 39 c7             	cmp    %rax,%rdi
    7015:	74 bf                	je     6fd6 <_ZN2ML25profileModelWithThreadingERKNS_5ModelERKNS_4PathEi.cold+0x242>
    7017:	e8 34 d2 ff ff       	call   4250 <_ZdlPv@plt>
    701c:	eb b8                	jmp    6fd6 <_ZN2ML25profileModelWithThreadingERKNS_5ModelERKNS_4PathEi.cold+0x242>
    701e:	48 8b bd e0 fe ff ff 	mov    -0x120(%rbp),%rdi
    7025:	48 8b 85 28 fe ff ff 	mov    -0x1d8(%rbp),%rax
    702c:	48 39 c7             	cmp    %rax,%rdi
    702f:	74 05                	je     7036 <_ZN2ML25profileModelWithThreadingERKNS_5ModelERKNS_4PathEi.cold+0x2a2>
    7031:	e8 1a d2 ff ff       	call   4250 <_ZdlPv@plt>
    7036:	48 8b bd c0 fe ff ff 	mov    -0x140(%rbp),%rdi
    703d:	48 8b 85 20 fe ff ff 	mov    -0x1e0(%rbp),%rax
    7044:	48 39 c7             	cmp    %rax,%rdi
    7047:	0f 84 f7 fd ff ff    	je     6e44 <_ZN2ML25profileModelWithThreadingERKNS_5ModelERKNS_4PathEi.cold+0xb0>
    704d:	e8 fe d1 ff ff       	call   4250 <_ZdlPv@plt>
    7052:	e9 ed fd ff ff       	jmp    6e44 <_ZN2ML25profileModelWithThreadingERKNS_5ModelERKNS_4PathEi.cold+0xb0>
    7057:	48 89 df             	mov    %rbx,%rdi
    705a:	e8 f1 d1 ff ff       	call   4250 <_ZdlPv@plt>
    705f:	e9 21 ff ff ff       	jmp    6f85 <_ZN2ML25profileModelWithThreadingERKNS_5ModelERKNS_4PathEi.cold+0x1f1>
    7064:	48 8b 7d 80          	mov    -0x80(%rbp),%rdi
    7068:	48 8b 85 e8 fd ff ff 	mov    -0x218(%rbp),%rax
    706f:	48 39 c7             	cmp    %rax,%rdi
    7072:	0f 84 49 fd ff ff    	je     6dc1 <_ZN2ML25profileModelWithThreadingERKNS_5ModelERKNS_4PathEi.cold+0x2d>
    7078:	e8 d3 d1 ff ff       	call   4250 <_ZdlPv@plt>
    707d:	e9 3f fd ff ff       	jmp    6dc1 <_ZN2ML25profileModelWithThreadingERKNS_5ModelERKNS_4PathEi.cold+0x2d>

0000000000007082 <_ZN2ML20checkMaxPoolingLayerERKNS_4PathEiRKNS_11LayerParamsES5_.cold>:
    7082:	48 8b bc 24 a0 01 00 	mov    0x1a0(%rsp),%rdi
    7089:	00 
    708a:	4c 39 f7             	cmp    %r14,%rdi
    708d:	74 05                	je     7094 <_ZN2ML20checkMaxPoolingLayerERKNS_4PathEiRKNS_11LayerParamsES5_.cold+0x12>
    708f:	e8 bc d1 ff ff       	call   4250 <_ZdlPv@plt>
    7094:	48 8b bc 24 50 01 00 	mov    0x150(%rsp),%rdi
    709b:	00 
    709c:	48 39 ef             	cmp    %rbp,%rdi
    709f:	74 05                	je     70a6 <_ZN2ML20checkMaxPoolingLayerERKNS_4PathEiRKNS_11LayerParamsES5_.cold+0x24>
    70a1:	e8 aa d1 ff ff       	call   4250 <_ZdlPv@plt>
    70a6:	48 8b 7c 24 20       	mov    0x20(%rsp),%rdi
    70ab:	48 8d 44 24 30       	lea    0x30(%rsp),%rax
    70b0:	48 39 c7             	cmp    %rax,%rdi
    70b3:	74 05                	je     70ba <_ZN2ML20checkMaxPoolingLayerERKNS_4PathEiRKNS_11LayerParamsES5_.cold+0x38>
    70b5:	e8 96 d1 ff ff       	call   4250 <_ZdlPv@plt>
    70ba:	48 89 df             	mov    %rbx,%rdi
    70bd:	e8 8e d3 ff ff       	call   4450 <_Unwind_Resume@plt>
    70c2:	48 8b bc 24 a0 01 00 	mov    0x1a0(%rsp),%rdi
    70c9:	00 
    70ca:	48 8d 84 24 b0 01 00 	lea    0x1b0(%rsp),%rax
    70d1:	00 
    70d2:	48 39 c7             	cmp    %rax,%rdi
    70d5:	74 05                	je     70dc <_ZN2ML20checkMaxPoolingLayerERKNS_4PathEiRKNS_11LayerParamsES5_.cold+0x5a>
    70d7:	e8 74 d1 ff ff       	call   4250 <_ZdlPv@plt>
    70dc:	48 8b bc 24 50 01 00 	mov    0x150(%rsp),%rdi
    70e3:	00 
    70e4:	48 8d 84 24 60 01 00 	lea    0x160(%rsp),%rax
    70eb:	00 
    70ec:	48 39 c7             	cmp    %rax,%rdi
    70ef:	74 05                	je     70f6 <_ZN2ML20checkMaxPoolingLayerERKNS_4PathEiRKNS_11LayerParamsES5_.cold+0x74>
    70f1:	e8 5a d1 ff ff       	call   4250 <_ZdlPv@plt>
    70f6:	48 89 df             	mov    %rbx,%rdi
    70f9:	e8 52 d3 ff ff       	call   4450 <_Unwind_Resume@plt>
    70fe:	48 8b bc 24 50 01 00 	mov    0x150(%rsp),%rdi
    7105:	00 
    7106:	48 39 ef             	cmp    %rbp,%rdi
    7109:	74 05                	je     7110 <_ZN2ML20checkMaxPoolingLayerERKNS_4PathEiRKNS_11LayerParamsES5_.cold+0x8e>
    710b:	e8 40 d1 ff ff       	call   4250 <_ZdlPv@plt>
    7110:	48 8b bc 24 a0 00 00 	mov    0xa0(%rsp),%rdi
    7117:	00 
    7118:	48 8d 84 24 b0 00 00 	lea    0xb0(%rsp),%rax
    711f:	00 
    7120:	48 39 c7             	cmp    %rax,%rdi
    7123:	74 05                	je     712a <_ZN2ML20checkMaxPoolingLayerERKNS_4PathEiRKNS_11LayerParamsES5_.cold+0xa8>
    7125:	e8 26 d1 ff ff       	call   4250 <_ZdlPv@plt>
    712a:	48 8b bc 24 d0 00 00 	mov    0xd0(%rsp),%rdi
    7131:	00 
    7132:	4c 39 ff             	cmp    %r15,%rdi
    7135:	74 05                	je     713c <_ZN2ML20checkMaxPoolingLayerERKNS_4PathEiRKNS_11LayerParamsES5_.cold+0xba>
    7137:	e8 14 d1 ff ff       	call   4250 <_ZdlPv@plt>
    713c:	4c 89 f7             	mov    %r14,%rdi
    713f:	e8 ac f7 01 00       	call   268f0 <_ZN2ML9LayerDataD1Ev>
    7144:	48 8b 7c 24 40       	mov    0x40(%rsp),%rdi
    7149:	48 8d 44 24 50       	lea    0x50(%rsp),%rax
    714e:	48 39 c7             	cmp    %rax,%rdi
    7151:	74 05                	je     7158 <_ZN2ML20checkMaxPoolingLayerERKNS_4PathEiRKNS_11LayerParamsES5_.cold+0xd6>
    7153:	e8 f8 d0 ff ff       	call   4250 <_ZdlPv@plt>
    7158:	48 8d 05 49 b4 02 00 	lea    0x2b449(%rip),%rax        # 325a8 <_ZTVN2ML15MaxPoolingLayerE+0x10>
    715f:	4c 89 ef             	mov    %r13,%rdi
    7162:	48 89 84 24 a0 01 00 	mov    %rax,0x1a0(%rsp)
    7169:	00 
    716a:	e8 c1 f7 01 00       	call   26930 <_ZN2ML5LayerD1Ev>
    716f:	e9 32 ff ff ff       	jmp    70a6 <_ZN2ML20checkMaxPoolingLayerERKNS_4PathEiRKNS_11LayerParamsES5_.cold+0x24>
    7174:	48 8b bc 24 50 01 00 	mov    0x150(%rsp),%rdi
    717b:	00 
    717c:	48 39 ef             	cmp    %rbp,%rdi
    717f:	74 c3                	je     7144 <_ZN2ML20checkMaxPoolingLayerERKNS_4PathEiRKNS_11LayerParamsES5_.cold+0xc2>
    7181:	e8 ca d0 ff ff       	call   4250 <_ZdlPv@plt>
    7186:	eb bc                	jmp    7144 <_ZN2ML20checkMaxPoolingLayerERKNS_4PathEiRKNS_11LayerParamsES5_.cold+0xc2>
    7188:	48 8b bc 24 50 01 00 	mov    0x150(%rsp),%rdi
    718f:	00 
    7190:	48 39 ef             	cmp    %rbp,%rdi
    7193:	74 a7                	je     713c <_ZN2ML20checkMaxPoolingLayerERKNS_4PathEiRKNS_11LayerParamsES5_.cold+0xba>
    7195:	e8 b6 d0 ff ff       	call   4250 <_ZdlPv@plt>
    719a:	eb a0                	jmp    713c <_ZN2ML20checkMaxPoolingLayerERKNS_4PathEiRKNS_11LayerParamsES5_.cold+0xba>
    719c:	48 8b bc 24 50 01 00 	mov    0x150(%rsp),%rdi
    71a3:	00 
    71a4:	48 39 ef             	cmp    %rbp,%rdi
    71a7:	74 93                	je     713c <_ZN2ML20checkMaxPoolingLayerERKNS_4PathEiRKNS_11LayerParamsES5_.cold+0xba>
    71a9:	e8 a2 d0 ff ff       	call   4250 <_ZdlPv@plt>
    71ae:	eb 8c                	jmp    713c <_ZN2ML20checkMaxPoolingLayerERKNS_4PathEiRKNS_11LayerParamsES5_.cold+0xba>
    71b0:	48 8b bc 24 a0 00 00 	mov    0xa0(%rsp),%rdi
    71b7:	00 
    71b8:	48 39 ef             	cmp    %rbp,%rdi
    71bb:	74 05                	je     71c2 <_ZN2ML20checkMaxPoolingLayerERKNS_4PathEiRKNS_11LayerParamsES5_.cold+0x140>
    71bd:	e8 8e d0 ff ff       	call   4250 <_ZdlPv@plt>
    71c2:	48 8b bc 24 80 00 00 	mov    0x80(%rsp),%rdi
    71c9:	00 
    71ca:	48 8d 84 24 90 00 00 	lea    0x90(%rsp),%rax
    71d1:	00 
    71d2:	48 39 c7             	cmp    %rax,%rdi
    71d5:	74 05                	je     71dc <_ZN2ML20checkMaxPoolingLayerERKNS_4PathEiRKNS_11LayerParamsES5_.cold+0x15a>
    71d7:	e8 74 d0 ff ff       	call   4250 <_ZdlPv@plt>
    71dc:	48 8b 7c 24 60       	mov    0x60(%rsp),%rdi
    71e1:	48 8d 44 24 70       	lea    0x70(%rsp),%rax
    71e6:	48 39 c7             	cmp    %rax,%rdi
    71e9:	0f 84 3b ff ff ff    	je     712a <_ZN2ML20checkMaxPoolingLayerERKNS_4PathEiRKNS_11LayerParamsES5_.cold+0xa8>
    71ef:	e8 5c d0 ff ff       	call   4250 <_ZdlPv@plt>
    71f4:	e9 31 ff ff ff       	jmp    712a <_ZN2ML20checkMaxPoolingLayerERKNS_4PathEiRKNS_11LayerParamsES5_.cold+0xa8>
    71f9:	48 8b bc 24 a0 00 00 	mov    0xa0(%rsp),%rdi
    7200:	00 
    7201:	48 39 ef             	cmp    %rbp,%rdi
    7204:	74 05                	je     720b <_ZN2ML20checkMaxPoolingLayerERKNS_4PathEiRKNS_11LayerParamsES5_.cold+0x189>
    7206:	e8 45 d0 ff ff       	call   4250 <_ZdlPv@plt>
    720b:	48 89 df             	mov    %rbx,%rdi
    720e:	4c 89 e3             	mov    %r12,%rbx
    7211:	e8 da f6 01 00       	call   268f0 <_ZN2ML9LayerDataD1Ev>
    7216:	eb c4                	jmp    71dc <_ZN2ML20checkMaxPoolingLayerERKNS_4PathEiRKNS_11LayerParamsES5_.cold+0x15a>
    7218:	48 8b bc 24 a0 00 00 	mov    0xa0(%rsp),%rdi
    721f:	00 
    7220:	48 39 ef             	cmp    %rbp,%rdi
    7223:	74 e6                	je     720b <_ZN2ML20checkMaxPoolingLayerERKNS_4PathEiRKNS_11LayerParamsES5_.cold+0x189>
    7225:	e8 26 d0 ff ff       	call   4250 <_ZdlPv@plt>
    722a:	eb df                	jmp    720b <_ZN2ML20checkMaxPoolingLayerERKNS_4PathEiRKNS_11LayerParamsES5_.cold+0x189>

000000000000722c <_ZN2ML17checkFlattenLayerERKNS_4PathEiRKNS_11LayerParamsES5_.cold>:
    722c:	48 8b bc 24 a0 01 00 	mov    0x1a0(%rsp),%rdi
    7233:	00 
    7234:	4c 39 f7             	cmp    %r14,%rdi
    7237:	74 05                	je     723e <_ZN2ML17checkFlattenLayerERKNS_4PathEiRKNS_11LayerParamsES5_.cold+0x12>
    7239:	e8 12 d0 ff ff       	call   4250 <_ZdlPv@plt>
    723e:	48 8b bc 24 50 01 00 	mov    0x150(%rsp),%rdi
    7245:	00 
    7246:	48 39 ef             	cmp    %rbp,%rdi
    7249:	74 05                	je     7250 <_ZN2ML17checkFlattenLayerERKNS_4PathEiRKNS_11LayerParamsES5_.cold+0x24>
    724b:	e8 00 d0 ff ff       	call   4250 <_ZdlPv@plt>
    7250:	48 8b 7c 24 20       	mov    0x20(%rsp),%rdi
    7255:	48 8d 44 24 30       	lea    0x30(%rsp),%rax
    725a:	48 39 c7             	cmp    %rax,%rdi
    725d:	74 05                	je     7264 <_ZN2ML17checkFlattenLayerERKNS_4PathEiRKNS_11LayerParamsES5_.cold+0x38>
    725f:	e8 ec cf ff ff       	call   4250 <_ZdlPv@plt>
    7264:	48 89 df             	mov    %rbx,%rdi
    7267:	e8 e4 d1 ff ff       	call   4450 <_Unwind_Resume@plt>
    726c:	48 8b bc 24 a0 01 00 	mov    0x1a0(%rsp),%rdi
    7273:	00 
    7274:	48 8d 84 24 b0 01 00 	lea    0x1b0(%rsp),%rax
    727b:	00 
    727c:	48 39 c7             	cmp    %rax,%rdi
    727f:	74 05                	je     7286 <_ZN2ML17checkFlattenLayerERKNS_4PathEiRKNS_11LayerParamsES5_.cold+0x5a>
    7281:	e8 ca cf ff ff       	call   4250 <_ZdlPv@plt>
    7286:	48 8b bc 24 50 01 00 	mov    0x150(%rsp),%rdi
    728d:	00 
    728e:	48 8d 84 24 60 01 00 	lea    0x160(%rsp),%rax
    7295:	00 
    7296:	48 39 c7             	cmp    %rax,%rdi
    7299:	74 05                	je     72a0 <_ZN2ML17checkFlattenLayerERKNS_4PathEiRKNS_11LayerParamsES5_.cold+0x74>
    729b:	e8 b0 cf ff ff       	call   4250 <_ZdlPv@plt>
    72a0:	48 89 df             	mov    %rbx,%rdi
    72a3:	e8 a8 d1 ff ff       	call   4450 <_Unwind_Resume@plt>
    72a8:	48 8b bc 24 50 01 00 	mov    0x150(%rsp),%rdi
    72af:	00 
    72b0:	48 39 ef             	cmp    %rbp,%rdi
    72b3:	74 05                	je     72ba <_ZN2ML17checkFlattenLayerERKNS_4PathEiRKNS_11LayerParamsES5_.cold+0x8e>
    72b5:	e8 96 cf ff ff       	call   4250 <_ZdlPv@plt>
    72ba:	48 8b bc 24 a0 00 00 	mov    0xa0(%rsp),%rdi
    72c1:	00 
    72c2:	48 8d 84 24 b0 00 00 	lea    0xb0(%rsp),%rax
    72c9:	00 
    72ca:	48 39 c7             	cmp    %rax,%rdi
    72cd:	74 05                	je     72d4 <_ZN2ML17checkFlattenLayerERKNS_4PathEiRKNS_11LayerParamsES5_.cold+0xa8>
    72cf:	e8 7c cf ff ff       	call   4250 <_ZdlPv@plt>
    72d4:	48 8b bc 24 d0 00 00 	mov    0xd0(%rsp),%rdi
    72db:	00 
    72dc:	4c 39 ff             	cmp    %r15,%rdi
    72df:	74 05                	je     72e6 <_ZN2ML17checkFlattenLayerERKNS_4PathEiRKNS_11LayerParamsES5_.cold+0xba>
    72e1:	e8 6a cf ff ff       	call   4250 <_ZdlPv@plt>
    72e6:	4c 89 f7             	mov    %r14,%rdi
    72e9:	e8 02 f6 01 00       	call   268f0 <_ZN2ML9LayerDataD1Ev>
    72ee:	48 8b 7c 24 40       	mov    0x40(%rsp),%rdi
    72f3:	48 8d 44 24 50       	lea    0x50(%rsp),%rax
    72f8:	48 39 c7             	cmp    %rax,%rdi
    72fb:	74 05                	je     7302 <_ZN2ML17checkFlattenLayerERKNS_4PathEiRKNS_11LayerParamsES5_.cold+0xd6>
    72fd:	e8 4e cf ff ff       	call   4250 <_ZdlPv@plt>
    7302:	48 8d 05 3f b2 02 00 	lea    0x2b23f(%rip),%rax        # 32548 <_ZTVN2ML12FlattenLayerE+0x10>
    7309:	4c 89 ef             	mov    %r13,%rdi
    730c:	48 89 84 24 a0 01 00 	mov    %rax,0x1a0(%rsp)
    7313:	00 
    7314:	e8 17 f6 01 00       	call   26930 <_ZN2ML5LayerD1Ev>
    7319:	e9 32 ff ff ff       	jmp    7250 <_ZN2ML17checkFlattenLayerERKNS_4PathEiRKNS_11LayerParamsES5_.cold+0x24>
    731e:	48 8b bc 24 50 01 00 	mov    0x150(%rsp),%rdi
    7325:	00 
    7326:	48 39 ef             	cmp    %rbp,%rdi
    7329:	74 c3                	je     72ee <_ZN2ML17checkFlattenLayerERKNS_4PathEiRKNS_11LayerParamsES5_.cold+0xc2>
    732b:	e8 20 cf ff ff       	call   4250 <_ZdlPv@plt>
    7330:	eb bc                	jmp    72ee <_ZN2ML17checkFlattenLayerERKNS_4PathEiRKNS_11LayerParamsES5_.cold+0xc2>
    7332:	48 8b bc 24 50 01 00 	mov    0x150(%rsp),%rdi
    7339:	00 
    733a:	48 39 ef             	cmp    %rbp,%rdi
    733d:	74 a7                	je     72e6 <_ZN2ML17checkFlattenLayerERKNS_4PathEiRKNS_11LayerParamsES5_.cold+0xba>
    733f:	e8 0c cf ff ff       	call   4250 <_ZdlPv@plt>
    7344:	eb a0                	jmp    72e6 <_ZN2ML17checkFlattenLayerERKNS_4PathEiRKNS_11LayerParamsES5_.cold+0xba>
    7346:	48 8b bc 24 50 01 00 	mov    0x150(%rsp),%rdi
    734d:	00 
    734e:	48 39 ef             	cmp    %rbp,%rdi
    7351:	74 93                	je     72e6 <_ZN2ML17checkFlattenLayerERKNS_4PathEiRKNS_11LayerParamsES5_.cold+0xba>
    7353:	e8 f8 ce ff ff       	call   4250 <_ZdlPv@plt>
    7358:	eb 8c                	jmp    72e6 <_ZN2ML17checkFlattenLayerERKNS_4PathEiRKNS_11LayerParamsES5_.cold+0xba>
    735a:	48 8b bc 24 a0 00 00 	mov    0xa0(%rsp),%rdi
    7361:	00 
    7362:	48 39 ef             	cmp    %rbp,%rdi
    7365:	74 05                	je     736c <_ZN2ML17checkFlattenLayerERKNS_4PathEiRKNS_11LayerParamsES5_.cold+0x140>
    7367:	e8 e4 ce ff ff       	call   4250 <_ZdlPv@plt>
    736c:	48 8b bc 24 80 00 00 	mov    0x80(%rsp),%rdi
    7373:	00 
    7374:	48 8d 84 24 90 00 00 	lea    0x90(%rsp),%rax
    737b:	00 
    737c:	48 39 c7             	cmp    %rax,%rdi
    737f:	74 05                	je     7386 <_ZN2ML17checkFlattenLayerERKNS_4PathEiRKNS_11LayerParamsES5_.cold+0x15a>
    7381:	e8 ca ce ff ff       	call   4250 <_ZdlPv@plt>
    7386:	48 8b 7c 24 60       	mov    0x60(%rsp),%rdi
    738b:	48 8d 44 24 70       	lea    0x70(%rsp),%rax
    7390:	48 39 c7             	cmp    %rax,%rdi
    7393:	0f 84 3b ff ff ff    	je     72d4 <_ZN2ML17checkFlattenLayerERKNS_4PathEiRKNS_11LayerParamsES5_.cold+0xa8>
    7399:	e8 b2 ce ff ff       	call   4250 <_ZdlPv@plt>
    739e:	e9 31 ff ff ff       	jmp    72d4 <_ZN2ML17checkFlattenLayerERKNS_4PathEiRKNS_11LayerParamsES5_.cold+0xa8>
    73a3:	48 8b bc 24 a0 00 00 	mov    0xa0(%rsp),%rdi
    73aa:	00 
    73ab:	48 39 ef             	cmp    %rbp,%rdi
    73ae:	74 05                	je     73b5 <_ZN2ML17checkFlattenLayerERKNS_4PathEiRKNS_11LayerParamsES5_.cold+0x189>
    73b0:	e8 9b ce ff ff       	call   4250 <_ZdlPv@plt>
    73b5:	48 89 df             	mov    %rbx,%rdi
    73b8:	4c 89 e3             	mov    %r12,%rbx
    73bb:	e8 30 f5 01 00       	call   268f0 <_ZN2ML9LayerDataD1Ev>
    73c0:	eb c4                	jmp    7386 <_ZN2ML17checkFlattenLayerERKNS_4PathEiRKNS_11LayerParamsES5_.cold+0x15a>
    73c2:	48 8b bc 24 a0 00 00 	mov    0xa0(%rsp),%rdi
    73c9:	00 
    73ca:	48 39 ef             	cmp    %rbp,%rdi
    73cd:	74 e6                	je     73b5 <_ZN2ML17checkFlattenLayerERKNS_4PathEiRKNS_11LayerParamsES5_.cold+0x189>
    73cf:	e8 7c ce ff ff       	call   4250 <_ZdlPv@plt>
    73d4:	eb df                	jmp    73b5 <_ZN2ML17checkFlattenLayerERKNS_4PathEiRKNS_11LayerParamsES5_.cold+0x189>

00000000000073d6 <_ZN2ML8runTestsEv.cold>:
    73d6:	48 8b bd f0 fe ff ff 	mov    -0x110(%rbp),%rdi
    73dd:	48 8b 85 40 fd ff ff 	mov    -0x2c0(%rbp),%rax
    73e4:	48 39 c7             	cmp    %rax,%rdi
    73e7:	74 05                	je     73ee <_ZN2ML8runTestsEv.cold+0x18>
    73e9:	e8 62 ce ff ff       	call   4250 <_ZdlPv@plt>
    73ee:	48 8b 7d 80          	mov    -0x80(%rbp),%rdi
    73f2:	48 8b 85 08 fd ff ff 	mov    -0x2f8(%rbp),%rax
    73f9:	48 39 c7             	cmp    %rax,%rdi
    73fc:	74 05                	je     7403 <_ZN2ML8runTestsEv.cold+0x2d>
    73fe:	e8 4d ce ff ff       	call   4250 <_ZdlPv@plt>
    7403:	48 8b bd d0 fe ff ff 	mov    -0x130(%rbp),%rdi
    740a:	48 8b 85 60 fd ff ff 	mov    -0x2a0(%rbp),%rax
    7411:	48 39 c7             	cmp    %rax,%rdi
    7414:	74 05                	je     741b <_ZN2ML8runTestsEv.cold+0x45>
    7416:	e8 35 ce ff ff       	call   4250 <_ZdlPv@plt>
    741b:	48 8b bd 30 fe ff ff 	mov    -0x1d0(%rbp),%rdi
    7422:	4c 39 f7             	cmp    %r14,%rdi
    7425:	74 05                	je     742c <_ZN2ML8runTestsEv.cold+0x56>
    7427:	e8 24 ce ff ff       	call   4250 <_ZdlPv@plt>
    742c:	48 8b bd 50 fe ff ff 	mov    -0x1b0(%rbp),%rdi
    7433:	48 8b 85 20 fd ff ff 	mov    -0x2e0(%rbp),%rax
    743a:	48 39 c7             	cmp    %rax,%rdi
    743d:	74 05                	je     7444 <_ZN2ML8runTestsEv.cold+0x6e>
    743f:	e8 0c ce ff ff       	call   4250 <_ZdlPv@plt>
    7444:	48 83 bd 18 fd ff ff 	cmpq   $0x0,-0x2e8(%rbp)
    744b:	00 
    744c:	74 0c                	je     745a <_ZN2ML8runTestsEv.cold+0x84>
    744e:	48 8b bd 18 fd ff ff 	mov    -0x2e8(%rbp),%rdi
    7455:	e8 f6 cd ff ff       	call   4250 <_ZdlPv@plt>
    745a:	48 8b bd 90 fd ff ff 	mov    -0x270(%rbp),%rdi
    7461:	48 85 ff             	test   %rdi,%rdi
    7464:	75 68                	jne    74ce <_ZN2ML8runTestsEv.cold+0xf8>
    7466:	48 8b bd 10 fd ff ff 	mov    -0x2f0(%rbp),%rdi
    746d:	e8 ae fc 01 00       	call   27120 <_ZNSt6vectorISt10unique_ptrIN2ML5LayerESt14default_deleteIS2_EESaIS5_EED1Ev>
    7472:	48 8b bd c8 fc ff ff 	mov    -0x338(%rbp),%rdi
    7479:	e8 72 f4 01 00       	call   268f0 <_ZN2ML9LayerDataD1Ev>
    747e:	48 8b bd f0 fd ff ff 	mov    -0x210(%rbp),%rdi
    7485:	48 8b 85 b0 fc ff ff 	mov    -0x350(%rbp),%rax
    748c:	48 39 c7             	cmp    %rax,%rdi
    748f:	74 05                	je     7496 <_ZN2ML8runTestsEv.cold+0xc0>
    7491:	e8 ba cd ff ff       	call   4250 <_ZdlPv@plt>
    7496:	48 8b bd d0 fd ff ff 	mov    -0x230(%rbp),%rdi
    749d:	48 8d 85 e0 fd ff ff 	lea    -0x220(%rbp),%rax
    74a4:	48 39 c7             	cmp    %rax,%rdi
    74a7:	74 05                	je     74ae <_ZN2ML8runTestsEv.cold+0xd8>
    74a9:	e8 a2 cd ff ff       	call   4250 <_ZdlPv@plt>
    74ae:	48 8b bd b0 fd ff ff 	mov    -0x250(%rbp),%rdi
    74b5:	48 8d 85 c0 fd ff ff 	lea    -0x240(%rbp),%rax
    74bc:	48 39 c7             	cmp    %rax,%rdi
    74bf:	74 05                	je     74c6 <_ZN2ML8runTestsEv.cold+0xf0>
    74c1:	e8 8a cd ff ff       	call   4250 <_ZdlPv@plt>
    74c6:	48 89 df             	mov    %rbx,%rdi
    74c9:	e8 82 cf ff ff       	call   4450 <_Unwind_Resume@plt>
    74ce:	e8 7d cd ff ff       	call   4250 <_ZdlPv@plt>
    74d3:	eb 91                	jmp    7466 <_ZN2ML8runTestsEv.cold+0x90>
    74d5:	48 8b 7d 80          	mov    -0x80(%rbp),%rdi
    74d9:	48 8b 85 08 fd ff ff 	mov    -0x2f8(%rbp),%rax
    74e0:	48 39 c7             	cmp    %rax,%rdi
    74e3:	74 8d                	je     7472 <_ZN2ML8runTestsEv.cold+0x9c>
    74e5:	e8 66 cd ff ff       	call   4250 <_ZdlPv@plt>
    74ea:	eb 86                	jmp    7472 <_ZN2ML8runTestsEv.cold+0x9c>
    74ec:	48 8b bd f0 fe ff ff 	mov    -0x110(%rbp),%rdi
    74f3:	48 8b 85 40 fd ff ff 	mov    -0x2c0(%rbp),%rax
    74fa:	48 39 c7             	cmp    %rax,%rdi
    74fd:	74 05                	je     7504 <_ZN2ML8runTestsEv.cold+0x12e>
    74ff:	e8 4c cd ff ff       	call   4250 <_ZdlPv@plt>
    7504:	48 8b 7d 80          	mov    -0x80(%rbp),%rdi
    7508:	48 8b 85 08 fd ff ff 	mov    -0x2f8(%rbp),%rax
    750f:	48 39 c7             	cmp    %rax,%rdi
    7512:	0f 85 fe fe ff ff    	jne    7416 <_ZN2ML8runTestsEv.cold+0x40>
    7518:	e9 fe fe ff ff       	jmp    741b <_ZN2ML8runTestsEv.cold+0x45>
    751d:	48 8b bd 00 ff ff ff 	mov    -0x100(%rbp),%rdi
    7524:	4c 39 ef             	cmp    %r13,%rdi
    7527:	75 58                	jne    7581 <_ZN2ML8runTestsEv.cold+0x1ab>
    7529:	48 8b bd 28 fd ff ff 	mov    -0x2d8(%rbp),%rdi
    7530:	e8 bb f3 01 00       	call   268f0 <_ZN2ML9LayerDataD1Ev>
    7535:	48 8b bd 10 fe ff ff 	mov    -0x1f0(%rbp),%rdi
    753c:	48 8b 85 e0 fc ff ff 	mov    -0x320(%rbp),%rax
    7543:	48 39 c7             	cmp    %rax,%rdi
    7546:	0f 84 f8 fe ff ff    	je     7444 <_ZN2ML8runTestsEv.cold+0x6e>
    754c:	e8 ff cc ff ff       	call   4250 <_ZdlPv@plt>
    7551:	e9 ee fe ff ff       	jmp    7444 <_ZN2ML8runTestsEv.cold+0x6e>
    7556:	48 8b bd 70 fe ff ff 	mov    -0x190(%rbp),%rdi
    755d:	4c 39 e7             	cmp    %r12,%rdi
    7560:	74 05                	je     7567 <_ZN2ML8runTestsEv.cold+0x191>
    7562:	e8 e9 cc ff ff       	call   4250 <_ZdlPv@plt>
    7567:	48 8b bd d0 fe ff ff 	mov    -0x130(%rbp),%rdi
    756e:	48 8b 85 60 fd ff ff 	mov    -0x2a0(%rbp),%rax
    7575:	48 39 c7             	cmp    %rax,%rdi
    7578:	74 af                	je     7529 <_ZN2ML8runTestsEv.cold+0x153>
    757a:	e8 d1 cc ff ff       	call   4250 <_ZdlPv@plt>
    757f:	eb a8                	jmp    7529 <_ZN2ML8runTestsEv.cold+0x153>
    7581:	e8 ca cc ff ff       	call   4250 <_ZdlPv@plt>
    7586:	eb a1                	jmp    7529 <_ZN2ML8runTestsEv.cold+0x153>
    7588:	48 8b 7d 80          	mov    -0x80(%rbp),%rdi
    758c:	48 8b 85 08 fd ff ff 	mov    -0x2f8(%rbp),%rax
    7593:	48 39 c7             	cmp    %rax,%rdi
    7596:	0f 84 67 fe ff ff    	je     7403 <_ZN2ML8runTestsEv.cold+0x2d>
    759c:	e8 af cc ff ff       	call   4250 <_ZdlPv@plt>
    75a1:	e9 5d fe ff ff       	jmp    7403 <_ZN2ML8runTestsEv.cold+0x2d>
    75a6:	48 8b bd d0 fe ff ff 	mov    -0x130(%rbp),%rdi
    75ad:	48 8b 85 60 fd ff ff 	mov    -0x2a0(%rbp),%rax
    75b4:	48 39 c7             	cmp    %rax,%rdi
    75b7:	74 05                	je     75be <_ZN2ML8runTestsEv.cold+0x1e8>
    75b9:	e8 92 cc ff ff       	call   4250 <_ZdlPv@plt>
    75be:	48 8b bd f0 fe ff ff 	mov    -0x110(%rbp),%rdi
    75c5:	48 8b 85 40 fd ff ff 	mov    -0x2c0(%rbp),%rax
    75cc:	48 39 c7             	cmp    %rax,%rdi
    75cf:	74 05                	je     75d6 <_ZN2ML8runTestsEv.cold+0x200>
    75d1:	e8 7a cc ff ff       	call   4250 <_ZdlPv@plt>
    75d6:	48 8b 7d 80          	mov    -0x80(%rbp),%rdi
    75da:	48 8b 85 08 fd ff ff 	mov    -0x2f8(%rbp),%rax
    75e1:	48 39 c7             	cmp    %rax,%rdi
    75e4:	0f 84 5a fe ff ff    	je     7444 <_ZN2ML8runTestsEv.cold+0x6e>
    75ea:	e8 61 cc ff ff       	call   4250 <_ZdlPv@plt>
    75ef:	e9 50 fe ff ff       	jmp    7444 <_ZN2ML8runTestsEv.cold+0x6e>
    75f4:	48 8b 7d 80          	mov    -0x80(%rbp),%rdi
    75f8:	48 8b 85 08 fd ff ff 	mov    -0x2f8(%rbp),%rax
    75ff:	48 39 c7             	cmp    %rax,%rdi
    7602:	0f 84 5e fe ff ff    	je     7466 <_ZN2ML8runTestsEv.cold+0x90>
    7608:	e8 43 cc ff ff       	call   4250 <_ZdlPv@plt>
    760d:	e9 54 fe ff ff       	jmp    7466 <_ZN2ML8runTestsEv.cold+0x90>
    7612:	48 8b 7d 80          	mov    -0x80(%rbp),%rdi
    7616:	48 8b 85 08 fd ff ff 	mov    -0x2f8(%rbp),%rax
    761d:	48 39 c7             	cmp    %rax,%rdi
    7620:	74 05                	je     7627 <_ZN2ML8runTestsEv.cold+0x251>
    7622:	e8 29 cc ff ff       	call   4250 <_ZdlPv@plt>
    7627:	48 8b bd 70 fe ff ff 	mov    -0x190(%rbp),%rdi
    762e:	4c 39 e7             	cmp    %r12,%rdi
    7631:	0f 84 cc fd ff ff    	je     7403 <_ZN2ML8runTestsEv.cold+0x2d>
    7637:	e8 14 cc ff ff       	call   4250 <_ZdlPv@plt>
    763c:	e9 c2 fd ff ff       	jmp    7403 <_ZN2ML8runTestsEv.cold+0x2d>
    7641:	48 8b bd f0 fe ff ff 	mov    -0x110(%rbp),%rdi
    7648:	48 8b 85 40 fd ff ff 	mov    -0x2c0(%rbp),%rax
    764f:	48 39 c7             	cmp    %rax,%rdi
    7652:	74 05                	je     7659 <_ZN2ML8runTestsEv.cold+0x283>
    7654:	e8 f7 cb ff ff       	call   4250 <_ZdlPv@plt>
    7659:	48 8b 7d 80          	mov    -0x80(%rbp),%rdi
    765d:	48 8b 85 08 fd ff ff 	mov    -0x2f8(%rbp),%rax
    7664:	48 39 c7             	cmp    %rax,%rdi
    7667:	74 be                	je     7627 <_ZN2ML8runTestsEv.cold+0x251>
    7669:	e8 e2 cb ff ff       	call   4250 <_ZdlPv@plt>
    766e:	eb b7                	jmp    7627 <_ZN2ML8runTestsEv.cold+0x251>
    7670:	48 8b bd 28 fd ff ff 	mov    -0x2d8(%rbp),%rdi
    7677:	e8 34 57 00 00       	call   cdb0 <_ZN2ML11LayerParamsD1Ev>
    767c:	48 8b bd d0 fe ff ff 	mov    -0x130(%rbp),%rdi
    7683:	48 85 ff             	test   %rdi,%rdi
    7686:	74 05                	je     768d <_ZN2ML8runTestsEv.cold+0x2b7>
    7688:	e8 c3 cb ff ff       	call   4250 <_ZdlPv@plt>
    768d:	48 8b bd f0 fe ff ff 	mov    -0x110(%rbp),%rdi
    7694:	48 8b 85 40 fd ff ff 	mov    -0x2c0(%rbp),%rax
    769b:	48 39 c7             	cmp    %rax,%rdi
    769e:	0f 84 da fd ff ff    	je     747e <_ZN2ML8runTestsEv.cold+0xa8>
    76a4:	e8 a7 cb ff ff       	call   4250 <_ZdlPv@plt>
    76a9:	e9 d0 fd ff ff       	jmp    747e <_ZN2ML8runTestsEv.cold+0xa8>
    76ae:	48 8b bd d0 fe ff ff 	mov    -0x130(%rbp),%rdi
    76b5:	48 8b 85 60 fd ff ff 	mov    -0x2a0(%rbp),%rax
    76bc:	48 39 c7             	cmp    %rax,%rdi
    76bf:	74 05                	je     76c6 <_ZN2ML8runTestsEv.cold+0x2f0>
    76c1:	e8 8a cb ff ff       	call   4250 <_ZdlPv@plt>
    76c6:	48 8b bd f0 fe ff ff 	mov    -0x110(%rbp),%rdi
    76cd:	48 8b 85 40 fd ff ff 	mov    -0x2c0(%rbp),%rax
    76d4:	48 39 c7             	cmp    %rax,%rdi
    76d7:	74 05                	je     76de <_ZN2ML8runTestsEv.cold+0x308>
    76d9:	e8 72 cb ff ff       	call   4250 <_ZdlPv@plt>
    76de:	48 8b 7d 80          	mov    -0x80(%rbp),%rdi
    76e2:	48 8b 85 08 fd ff ff 	mov    -0x2f8(%rbp),%rax
    76e9:	48 39 c7             	cmp    %rax,%rdi
    76ec:	0f 84 68 fd ff ff    	je     745a <_ZN2ML8runTestsEv.cold+0x84>
    76f2:	e8 59 cb ff ff       	call   4250 <_ZdlPv@plt>
    76f7:	e9 5e fd ff ff       	jmp    745a <_ZN2ML8runTestsEv.cold+0x84>
    76fc:	48 8b 7d 88          	mov    -0x78(%rbp),%rdi
    7700:	48 85 ff             	test   %rdi,%rdi
    7703:	74 05                	je     770a <_ZN2ML8runTestsEv.cold+0x334>
    7705:	e8 46 cb ff ff       	call   4250 <_ZdlPv@plt>
    770a:	48 85 db             	test   %rbx,%rbx
    770d:	74 08                	je     7717 <_ZN2ML8runTestsEv.cold+0x341>
    770f:	48 89 df             	mov    %rbx,%rdi
    7712:	e8 39 cb ff ff       	call   4250 <_ZdlPv@plt>
    7717:	4c 89 fb             	mov    %r15,%rbx
    771a:	48 8b bd f0 fe ff ff 	mov    -0x110(%rbp),%rdi
    7721:	48 8b 85 40 fd ff ff 	mov    -0x2c0(%rbp),%rax
    7728:	48 39 c7             	cmp    %rax,%rdi
    772b:	74 05                	je     7732 <_ZN2ML8runTestsEv.cold+0x35c>
    772d:	e8 1e cb ff ff       	call   4250 <_ZdlPv@plt>
    7732:	48 8b bd d0 fe ff ff 	mov    -0x130(%rbp),%rdi
    7739:	48 8b 85 60 fd ff ff 	mov    -0x2a0(%rbp),%rax
    7740:	48 39 c7             	cmp    %rax,%rdi
    7743:	0f 84 ec fd ff ff    	je     7535 <_ZN2ML8runTestsEv.cold+0x15f>
    7749:	e8 02 cb ff ff       	call   4250 <_ZdlPv@plt>
    774e:	e9 e2 fd ff ff       	jmp    7535 <_ZN2ML8runTestsEv.cold+0x15f>
    7753:	48 8b bd f0 fe ff ff 	mov    -0x110(%rbp),%rdi
    775a:	48 8b 85 40 fd ff ff 	mov    -0x2c0(%rbp),%rax
    7761:	48 39 c7             	cmp    %rax,%rdi
    7764:	0f 84 bf fd ff ff    	je     7529 <_ZN2ML8runTestsEv.cold+0x153>
    776a:	e8 e1 ca ff ff       	call   4250 <_ZdlPv@plt>
    776f:	e9 b5 fd ff ff       	jmp    7529 <_ZN2ML8runTestsEv.cold+0x153>

0000000000007774 <_ZN2ML16test4BitAccuracyEv.cold>:
    7774:	48 8b bc 24 60 01 00 	mov    0x160(%rsp),%rdi
    777b:	00 
    777c:	48 8b 44 24 10       	mov    0x10(%rsp),%rax
    7781:	48 39 c7             	cmp    %rax,%rdi
    7784:	74 05                	je     778b <_ZN2ML16test4BitAccuracyEv.cold+0x17>
    7786:	e8 c5 ca ff ff       	call   4250 <_ZdlPv@plt>
    778b:	48 8b bc 24 10 01 00 	mov    0x110(%rsp),%rdi
    7792:	00 
    7793:	4c 39 ff             	cmp    %r15,%rdi
    7796:	74 05                	je     779d <_ZN2ML16test4BitAccuracyEv.cold+0x29>
    7798:	e8 b3 ca ff ff       	call   4250 <_ZdlPv@plt>
    779d:	48 8b 7c 24 68       	mov    0x68(%rsp),%rdi
    77a2:	e8 79 f9 01 00       	call   27120 <_ZNSt6vectorISt10unique_ptrIN2ML5LayerESt14default_deleteIS2_EESaIS5_EED1Ev>
    77a7:	48 89 df             	mov    %rbx,%rdi
    77aa:	e8 a1 cc ff ff       	call   4450 <_Unwind_Resume@plt>
    77af:	48 8b bc 24 60 01 00 	mov    0x160(%rsp),%rdi
    77b6:	00 
    77b7:	48 8b 44 24 10       	mov    0x10(%rsp),%rax
    77bc:	48 39 c7             	cmp    %rax,%rdi
    77bf:	74 05                	je     77c6 <_ZN2ML16test4BitAccuracyEv.cold+0x52>
    77c1:	e8 8a ca ff ff       	call   4250 <_ZdlPv@plt>
    77c6:	48 8b bc 24 b0 00 00 	mov    0xb0(%rsp),%rdi
    77cd:	00 
    77ce:	48 8b 44 24 38       	mov    0x38(%rsp),%rax
    77d3:	48 39 c7             	cmp    %rax,%rdi
    77d6:	74 05                	je     77dd <_ZN2ML16test4BitAccuracyEv.cold+0x69>
    77d8:	e8 73 ca ff ff       	call   4250 <_ZdlPv@plt>
    77dd:	48 8b bc 24 90 00 00 	mov    0x90(%rsp),%rdi
    77e4:	00 
    77e5:	48 8b 44 24 28       	mov    0x28(%rsp),%rax
    77ea:	48 39 c7             	cmp    %rax,%rdi
    77ed:	74 ae                	je     779d <_ZN2ML16test4BitAccuracyEv.cold+0x29>
    77ef:	e8 5c ca ff ff       	call   4250 <_ZdlPv@plt>
    77f4:	eb a7                	jmp    779d <_ZN2ML16test4BitAccuracyEv.cold+0x29>
    77f6:	48 8b bc 24 18 01 00 	mov    0x118(%rsp),%rdi
    77fd:	00 
    77fe:	48 85 ff             	test   %rdi,%rdi
    7801:	74 05                	je     7808 <_ZN2ML16test4BitAccuracyEv.cold+0x94>
    7803:	e8 48 ca ff ff       	call   4250 <_ZdlPv@plt>
    7808:	4d 85 e4             	test   %r12,%r12
    780b:	74 08                	je     7815 <_ZN2ML16test4BitAccuracyEv.cold+0xa1>
    780d:	4c 89 e7             	mov    %r12,%rdi
    7810:	e8 3b ca ff ff       	call   4250 <_ZdlPv@plt>
    7815:	48 8b bc 24 60 01 00 	mov    0x160(%rsp),%rdi
    781c:	00 
    781d:	48 8b 44 24 10       	mov    0x10(%rsp),%rax
    7822:	48 39 c7             	cmp    %rax,%rdi
    7825:	74 05                	je     782c <_ZN2ML16test4BitAccuracyEv.cold+0xb8>
    7827:	e8 24 ca ff ff       	call   4250 <_ZdlPv@plt>
    782c:	48 8b bc 24 f0 00 00 	mov    0xf0(%rsp),%rdi
    7833:	00 
    7834:	48 8b 44 24 20       	mov    0x20(%rsp),%rax
    7839:	48 39 c7             	cmp    %rax,%rdi
    783c:	74 88                	je     77c6 <_ZN2ML16test4BitAccuracyEv.cold+0x52>
    783e:	e8 0d ca ff ff       	call   4250 <_ZdlPv@plt>
    7843:	eb 81                	jmp    77c6 <_ZN2ML16test4BitAccuracyEv.cold+0x52>
    7845:	48 8b bc 24 60 01 00 	mov    0x160(%rsp),%rdi
    784c:	00 
    784d:	48 8d 84 24 70 01 00 	lea    0x170(%rsp),%rax
    7854:	00 
    7855:	48 39 c7             	cmp    %rax,%rdi
    7858:	74 05                	je     785f <_ZN2ML16test4BitAccuracyEv.cold+0xeb>
    785a:	e8 f1 c9 ff ff       	call   4250 <_ZdlPv@plt>
    785f:	48 89 df             	mov    %rbx,%rdi
    7862:	e8 e9 cb ff ff       	call   4450 <_Unwind_Resume@plt>
    7867:	48 89 c3             	mov    %rax,%rbx
    786a:	48 8b 7c 24 18       	mov    0x18(%rsp),%rdi
    786f:	e8 1c c8 ff ff       	call   4090 <_ZNSt14basic_ifstreamIcSt11char_traitsIcEED1Ev@plt>
    7874:	48 8b bc 24 d0 00 00 	mov    0xd0(%rsp),%rdi
    787b:	00 
    787c:	4c 39 ef             	cmp    %r13,%rdi
    787f:	74 05                	je     7886 <_ZN2ML16test4BitAccuracyEv.cold+0x112>
    7881:	e8 ca c9 ff ff       	call   4250 <_ZdlPv@plt>
    7886:	48 8b 7c 24 08       	mov    0x8(%rsp),%rdi
    788b:	e8 60 f0 01 00       	call   268f0 <_ZN2ML9LayerDataD1Ev>
    7890:	e9 31 ff ff ff       	jmp    77c6 <_ZN2ML16test4BitAccuracyEv.cold+0x52>
    7895:	bf 10 00 00 00       	mov    $0x10,%edi
    789a:	e8 b1 c8 ff ff       	call   4150 <__cxa_allocate_exception@plt>
    789f:	48 8d 35 e4 17 02 00 	lea    0x217e4(%rip),%rsi        # 2908a <_IO_stdin_used+0x8a>
    78a6:	48 89 c7             	mov    %rax,%rdi
    78a9:	48 89 c5             	mov    %rax,%rbp
    78ac:	e8 4f c8 ff ff       	call   4100 <_ZNSt13runtime_errorC1EPKc@plt>
    78b1:	48 8b 15 08 b7 02 00 	mov    0x2b708(%rip),%rdx        # 32fc0 <_ZNSt13runtime_errorD1Ev@GLIBCXX_3.4>
    78b8:	48 8d 35 41 b3 02 00 	lea    0x2b341(%rip),%rsi        # 32c00 <_ZTISt13runtime_error@GLIBCXX_3.4>
    78bf:	48 89 ef             	mov    %rbp,%rdi
    78c2:	e8 69 cb ff ff       	call   4430 <__cxa_throw@plt>
    78c7:	e8 44 c8 ff ff       	call   4110 <__cxa_begin_catch@plt>
    78cc:	e8 0f cb ff ff       	call   43e0 <__cxa_end_catch@plt>
    78d1:	e9 10 6f 01 00       	jmp    1e7e6 <_ZN2ML16test4BitAccuracyEv+0x8e6>
    78d6:	48 89 c3             	mov    %rax,%rbx
    78d9:	48 89 ef             	mov    %rbp,%rdi
    78dc:	e8 ff c8 ff ff       	call   41e0 <__cxa_free_exception@plt>
    78e1:	eb 87                	jmp    786a <_ZN2ML16test4BitAccuracyEv.cold+0xf6>
    78e3:	bf 10 00 00 00       	mov    $0x10,%edi
    78e8:	e8 63 c8 ff ff       	call   4150 <__cxa_allocate_exception@plt>
    78ed:	48 8b 54 24 40       	mov    0x40(%rsp),%rdx
    78f2:	48 8b 7c 24 58       	mov    0x58(%rsp),%rdi
    78f7:	48 8d 35 6f 17 02 00 	lea    0x2176f(%rip),%rsi        # 2906d <_IO_stdin_used+0x6d>
    78fe:	48 89 c5             	mov    %rax,%rbp
    7901:	e8 5a f7 01 00       	call   27060 <_ZStplIcSt11char_traitsIcESaIcEENSt7__cxx1112basic_stringIT_T0_T1_EEPKS5_RKS8_>
    7906:	48 8b 74 24 58       	mov    0x58(%rsp),%rsi
    790b:	48 89 ef             	mov    %rbp,%rdi
    790e:	e8 ad ca ff ff       	call   43c0 <_ZNSt13runtime_errorC1ERKNSt7__cxx1112basic_stringIcSt11char_traitsIcESaIcEEE@plt>
    7913:	48 8b bc 24 f0 00 00 	mov    0xf0(%rsp),%rdi
    791a:	00 
    791b:	48 8b 44 24 20       	mov    0x20(%rsp),%rax
    7920:	48 39 c7             	cmp    %rax,%rdi
    7923:	74 05                	je     792a <_ZN2ML16test4BitAccuracyEv.cold+0x1b6>
    7925:	e8 26 c9 ff ff       	call   4250 <_ZdlPv@plt>
    792a:	48 8b 15 8f b6 02 00 	mov    0x2b68f(%rip),%rdx        # 32fc0 <_ZNSt13runtime_errorD1Ev@GLIBCXX_3.4>
    7931:	48 8d 35 c8 b2 02 00 	lea    0x2b2c8(%rip),%rsi        # 32c00 <_ZTISt13runtime_error@GLIBCXX_3.4>
    7938:	48 89 ef             	mov    %rbp,%rdi
    793b:	e8 f0 ca ff ff       	call   4430 <__cxa_throw@plt>
    7940:	48 8b 7c 24 10       	mov    0x10(%rsp),%rdi
    7945:	e8 46 ca ff ff       	call   4390 <_ZNSt13basic_filebufIcSt11char_traitsIcEED1Ev@plt>
    794a:	48 8b 05 8f b2 02 00 	mov    0x2b28f(%rip),%rax        # 32be0 <_ZTTSt14basic_ifstreamIcSt11char_traitsIcEE@GLIBCXX_3.4+0x8>
    7951:	48 8b 0d 90 b2 02 00 	mov    0x2b290(%rip),%rcx        # 32be8 <_ZTTSt14basic_ifstreamIcSt11char_traitsIcEE@GLIBCXX_3.4+0x10>
    7958:	48 89 84 24 60 01 00 	mov    %rax,0x160(%rsp)
    795f:	00 
    7960:	48 8b 40 e8          	mov    -0x18(%rax),%rax
    7964:	48 89 8c 04 60 01 00 	mov    %rcx,0x160(%rsp,%rax,1)
    796b:	00 
    796c:	31 c0                	xor    %eax,%eax
    796e:	48 89 84 24 68 01 00 	mov    %rax,0x168(%rsp)
    7975:	00 
    7976:	4c 89 f7             	mov    %r14,%rdi
    7979:	4c 89 a4 24 60 02 00 	mov    %r12,0x260(%rsp)
    7980:	00 
    7981:	e8 5a c7 ff ff       	call   40e0 <_ZNSt8ios_baseD2Ev@plt>
    7986:	e9 e9 fe ff ff       	jmp    7874 <_ZN2ML16test4BitAccuracyEv.cold+0x100>
    798b:	48 89 c3             	mov    %rax,%rbx
    798e:	48 8b bc 24 f0 00 00 	mov    0xf0(%rsp),%rdi
    7995:	00 
    7996:	48 8b 44 24 20       	mov    0x20(%rsp),%rax
    799b:	48 39 c7             	cmp    %rax,%rdi
    799e:	0f 84 35 ff ff ff    	je     78d9 <_ZN2ML16test4BitAccuracyEv.cold+0x165>
    79a4:	e8 a7 c8 ff ff       	call   4250 <_ZdlPv@plt>
    79a9:	e9 2b ff ff ff       	jmp    78d9 <_ZN2ML16test4BitAccuracyEv.cold+0x165>
    79ae:	e9 23 ff ff ff       	jmp    78d6 <_ZN2ML16test4BitAccuracyEv.cold+0x162>
    79b3:	bf 10 00 00 00       	mov    $0x10,%edi
    79b8:	e8 93 c7 ff ff       	call   4150 <__cxa_allocate_exception@plt>
    79bd:	48 8d 35 5c 16 02 00 	lea    0x2165c(%rip),%rsi        # 29020 <_IO_stdin_used+0x20>
    79c4:	48 89 c7             	mov    %rax,%rdi
    79c7:	48 89 c5             	mov    %rax,%rbp
    79ca:	e8 31 c7 ff ff       	call   4100 <_ZNSt13runtime_errorC1EPKc@plt>
    79cf:	48 8b 15 ea b5 02 00 	mov    0x2b5ea(%rip),%rdx        # 32fc0 <_ZNSt13runtime_errorD1Ev@GLIBCXX_3.4>
    79d6:	48 8d 35 23 b2 02 00 	lea    0x2b223(%rip),%rsi        # 32c00 <_ZTISt13runtime_error@GLIBCXX_3.4>
    79dd:	48 89 ef             	mov    %rbp,%rdi
    79e0:	e8 4b ca ff ff       	call   4430 <__cxa_throw@plt>
    79e5:	e8 56 c9 ff ff       	call   4340 <__cxa_throw_bad_array_new_length@plt>
    79ea:	48 89 c3             	mov    %rax,%rbx
    79ed:	e9 82 fe ff ff       	jmp    7874 <_ZN2ML16test4BitAccuracyEv.cold+0x100>
    79f2:	48 89 ef             	mov    %rbp,%rdi
    79f5:	48 89 c3             	mov    %rax,%rbx
    79f8:	e8 e3 c7 ff ff       	call   41e0 <__cxa_free_exception@plt>
    79fd:	e9 72 fe ff ff       	jmp    7874 <_ZN2ML16test4BitAccuracyEv.cold+0x100>

0000000000007a02 <_ZN2ML16test8BitAccuracyEv.cold>:
    7a02:	48 8b bc 24 60 01 00 	mov    0x160(%rsp),%rdi
    7a09:	00 
    7a0a:	48 8b 44 24 10       	mov    0x10(%rsp),%rax
    7a0f:	48 39 c7             	cmp    %rax,%rdi
    7a12:	74 05                	je     7a19 <_ZN2ML16test8BitAccuracyEv.cold+0x17>
    7a14:	e8 37 c8 ff ff       	call   4250 <_ZdlPv@plt>
    7a19:	48 8b bc 24 10 01 00 	mov    0x110(%rsp),%rdi
    7a20:	00 
    7a21:	4c 39 ff             	cmp    %r15,%rdi
    7a24:	74 05                	je     7a2b <_ZN2ML16test8BitAccuracyEv.cold+0x29>
    7a26:	e8 25 c8 ff ff       	call   4250 <_ZdlPv@plt>
    7a2b:	48 8b 7c 24 68       	mov    0x68(%rsp),%rdi
    7a30:	e8 eb f6 01 00       	call   27120 <_ZNSt6vectorISt10unique_ptrIN2ML5LayerESt14default_deleteIS2_EESaIS5_EED1Ev>
    7a35:	48 89 df             	mov    %rbx,%rdi
    7a38:	e8 13 ca ff ff       	call   4450 <_Unwind_Resume@plt>
    7a3d:	48 8b bc 24 60 01 00 	mov    0x160(%rsp),%rdi
    7a44:	00 
    7a45:	48 8b 44 24 10       	mov    0x10(%rsp),%rax
    7a4a:	48 39 c7             	cmp    %rax,%rdi
    7a4d:	74 05                	je     7a54 <_ZN2ML16test8BitAccuracyEv.cold+0x52>
    7a4f:	e8 fc c7 ff ff       	call   4250 <_ZdlPv@plt>
    7a54:	48 8b bc 24 b0 00 00 	mov    0xb0(%rsp),%rdi
    7a5b:	00 
    7a5c:	48 8b 44 24 38       	mov    0x38(%rsp),%rax
    7a61:	48 39 c7             	cmp    %rax,%rdi
    7a64:	74 05                	je     7a6b <_ZN2ML16test8BitAccuracyEv.cold+0x69>
    7a66:	e8 e5 c7 ff ff       	call   4250 <_ZdlPv@plt>
    7a6b:	48 8b bc 24 90 00 00 	mov    0x90(%rsp),%rdi
    7a72:	00 
    7a73:	48 8b 44 24 28       	mov    0x28(%rsp),%rax
    7a78:	48 39 c7             	cmp    %rax,%rdi
    7a7b:	74 ae                	je     7a2b <_ZN2ML16test8BitAccuracyEv.cold+0x29>
    7a7d:	e8 ce c7 ff ff       	call   4250 <_ZdlPv@plt>
    7a82:	eb a7                	jmp    7a2b <_ZN2ML16test8BitAccuracyEv.cold+0x29>
    7a84:	48 8b bc 24 18 01 00 	mov    0x118(%rsp),%rdi
    7a8b:	00 
    7a8c:	48 85 ff             	test   %rdi,%rdi
    7a8f:	74 05                	je     7a96 <_ZN2ML16test8BitAccuracyEv.cold+0x94>
    7a91:	e8 ba c7 ff ff       	call   4250 <_ZdlPv@plt>
    7a96:	4d 85 e4             	test   %r12,%r12
    7a99:	74 08                	je     7aa3 <_ZN2ML16test8BitAccuracyEv.cold+0xa1>
    7a9b:	4c 89 e7             	mov    %r12,%rdi
    7a9e:	e8 ad c7 ff ff       	call   4250 <_ZdlPv@plt>
    7aa3:	48 8b bc 24 60 01 00 	mov    0x160(%rsp),%rdi
    7aaa:	00 
    7aab:	48 8b 44 24 10       	mov    0x10(%rsp),%rax
    7ab0:	48 39 c7             	cmp    %rax,%rdi
    7ab3:	74 05                	je     7aba <_ZN2ML16test8BitAccuracyEv.cold+0xb8>
    7ab5:	e8 96 c7 ff ff       	call   4250 <_ZdlPv@plt>
    7aba:	48 8b bc 24 f0 00 00 	mov    0xf0(%rsp),%rdi
    7ac1:	00 
    7ac2:	48 8b 44 24 20       	mov    0x20(%rsp),%rax
    7ac7:	48 39 c7             	cmp    %rax,%rdi
    7aca:	74 88                	je     7a54 <_ZN2ML16test8BitAccuracyEv.cold+0x52>
    7acc:	e8 7f c7 ff ff       	call   4250 <_ZdlPv@plt>
    7ad1:	eb 81                	jmp    7a54 <_ZN2ML16test8BitAccuracyEv.cold+0x52>
    7ad3:	48 8b bc 24 60 01 00 	mov    0x160(%rsp),%rdi
    7ada:	00 
    7adb:	48 8d 84 24 70 01 00 	lea    0x170(%rsp),%rax
    7ae2:	00 
    7ae3:	48 39 c7             	cmp    %rax,%rdi
    7ae6:	74 05                	je     7aed <_ZN2ML16test8BitAccuracyEv.cold+0xeb>
    7ae8:	e8 63 c7 ff ff       	call   4250 <_ZdlPv@plt>
    7aed:	48 89 df             	mov    %rbx,%rdi
    7af0:	e8 5b c9 ff ff       	call   4450 <_Unwind_Resume@plt>
    7af5:	48 89 c3             	mov    %rax,%rbx
    7af8:	48 8b 7c 24 18       	mov    0x18(%rsp),%rdi
    7afd:	e8 8e c5 ff ff       	call   4090 <_ZNSt14basic_ifstreamIcSt11char_traitsIcEED1Ev@plt>
    7b02:	48 8b bc 24 d0 00 00 	mov    0xd0(%rsp),%rdi
    7b09:	00 
    7b0a:	4c 39 ef             	cmp    %r13,%rdi
    7b0d:	74 05                	je     7b14 <_ZN2ML16test8BitAccuracyEv.cold+0x112>
    7b0f:	e8 3c c7 ff ff       	call   4250 <_ZdlPv@plt>
    7b14:	48 8b 7c 24 08       	mov    0x8(%rsp),%rdi
    7b19:	e8 d2 ed 01 00       	call   268f0 <_ZN2ML9LayerDataD1Ev>
    7b1e:	e9 31 ff ff ff       	jmp    7a54 <_ZN2ML16test8BitAccuracyEv.cold+0x52>
    7b23:	bf 10 00 00 00       	mov    $0x10,%edi
    7b28:	e8 23 c6 ff ff       	call   4150 <__cxa_allocate_exception@plt>
    7b2d:	48 8d 35 56 15 02 00 	lea    0x21556(%rip),%rsi        # 2908a <_IO_stdin_used+0x8a>
    7b34:	48 89 c7             	mov    %rax,%rdi
    7b37:	48 89 c5             	mov    %rax,%rbp
    7b3a:	e8 c1 c5 ff ff       	call   4100 <_ZNSt13runtime_errorC1EPKc@plt>
    7b3f:	48 8b 15 7a b4 02 00 	mov    0x2b47a(%rip),%rdx        # 32fc0 <_ZNSt13runtime_errorD1Ev@GLIBCXX_3.4>
    7b46:	48 8d 35 b3 b0 02 00 	lea    0x2b0b3(%rip),%rsi        # 32c00 <_ZTISt13runtime_error@GLIBCXX_3.4>
    7b4d:	48 89 ef             	mov    %rbp,%rdi
    7b50:	e8 db c8 ff ff       	call   4430 <__cxa_throw@plt>
    7b55:	e8 b6 c5 ff ff       	call   4110 <__cxa_begin_catch@plt>
    7b5a:	e8 81 c8 ff ff       	call   43e0 <__cxa_end_catch@plt>
    7b5f:	e9 02 7e 01 00       	jmp    1f966 <_ZN2ML16test8BitAccuracyEv+0x8e6>
    7b64:	48 89 c3             	mov    %rax,%rbx
    7b67:	48 89 ef             	mov    %rbp,%rdi
    7b6a:	e8 71 c6 ff ff       	call   41e0 <__cxa_free_exception@plt>
    7b6f:	eb 87                	jmp    7af8 <_ZN2ML16test8BitAccuracyEv.cold+0xf6>
    7b71:	bf 10 00 00 00       	mov    $0x10,%edi
    7b76:	e8 d5 c5 ff ff       	call   4150 <__cxa_allocate_exception@plt>
    7b7b:	48 8b 54 24 40       	mov    0x40(%rsp),%rdx
    7b80:	48 8b 7c 24 58       	mov    0x58(%rsp),%rdi
    7b85:	48 8d 35 e1 14 02 00 	lea    0x214e1(%rip),%rsi        # 2906d <_IO_stdin_used+0x6d>
    7b8c:	48 89 c5             	mov    %rax,%rbp
    7b8f:	e8 cc f4 01 00       	call   27060 <_ZStplIcSt11char_traitsIcESaIcEENSt7__cxx1112basic_stringIT_T0_T1_EEPKS5_RKS8_>
    7b94:	48 8b 74 24 58       	mov    0x58(%rsp),%rsi
    7b99:	48 89 ef             	mov    %rbp,%rdi
    7b9c:	e8 1f c8 ff ff       	call   43c0 <_ZNSt13runtime_errorC1ERKNSt7__cxx1112basic_stringIcSt11char_traitsIcESaIcEEE@plt>
    7ba1:	48 8b bc 24 f0 00 00 	mov    0xf0(%rsp),%rdi
    7ba8:	00 
    7ba9:	48 8b 44 24 20       	mov    0x20(%rsp),%rax
    7bae:	48 39 c7             	cmp    %rax,%rdi
    7bb1:	74 05                	je     7bb8 <_ZN2ML16test8BitAccuracyEv.cold+0x1b6>
    7bb3:	e8 98 c6 ff ff       	call   4250 <_ZdlPv@plt>
    7bb8:	48 8b 15 01 b4 02 00 	mov    0x2b401(%rip),%rdx        # 32fc0 <_ZNSt13runtime_errorD1Ev@GLIBCXX_3.4>
    7bbf:	48 8d 35 3a b0 02 00 	lea    0x2b03a(%rip),%rsi        # 32c00 <_ZTISt13runtime_error@GLIBCXX_3.4>
    7bc6:	48 89 ef             	mov    %rbp,%rdi
    7bc9:	e8 62 c8 ff ff       	call   4430 <__cxa_throw@plt>
    7bce:	48 8b 7c 24 10       	mov    0x10(%rsp),%rdi
    7bd3:	e8 b8 c7 ff ff       	call   4390 <_ZNSt13basic_filebufIcSt11char_traitsIcEED1Ev@plt>
    7bd8:	48 8b 05 01 b0 02 00 	mov    0x2b001(%rip),%rax        # 32be0 <_ZTTSt14basic_ifstreamIcSt11char_traitsIcEE@GLIBCXX_3.4+0x8>
    7bdf:	48 8b 0d 02 b0 02 00 	mov    0x2b002(%rip),%rcx        # 32be8 <_ZTTSt14basic_ifstreamIcSt11char_traitsIcEE@GLIBCXX_3.4+0x10>
    7be6:	48 89 84 24 60 01 00 	mov    %rax,0x160(%rsp)
    7bed:	00 
    7bee:	48 8b 40 e8          	mov    -0x18(%rax),%rax
    7bf2:	48 89 8c 04 60 01 00 	mov    %rcx,0x160(%rsp,%rax,1)
    7bf9:	00 
    7bfa:	31 c0                	xor    %eax,%eax
    7bfc:	48 89 84 24 68 01 00 	mov    %rax,0x168(%rsp)
    7c03:	00 
    7c04:	4c 89 f7             	mov    %r14,%rdi
    7c07:	4c 89 a4 24 60 02 00 	mov    %r12,0x260(%rsp)
    7c0e:	00 
    7c0f:	e8 cc c4 ff ff       	call   40e0 <_ZNSt8ios_baseD2Ev@plt>
    7c14:	e9 e9 fe ff ff       	jmp    7b02 <_ZN2ML16test8BitAccuracyEv.cold+0x100>
    7c19:	48 89 c3             	mov    %rax,%rbx
    7c1c:	48 8b bc 24 f0 00 00 	mov    0xf0(%rsp),%rdi
    7c23:	00 
    7c24:	48 8b 44 24 20       	mov    0x20(%rsp),%rax
    7c29:	48 39 c7             	cmp    %rax,%rdi
    7c2c:	0f 84 35 ff ff ff    	je     7b67 <_ZN2ML16test8BitAccuracyEv.cold+0x165>
    7c32:	e8 19 c6 ff ff       	call   4250 <_ZdlPv@plt>
    7c37:	e9 2b ff ff ff       	jmp    7b67 <_ZN2ML16test8BitAccuracyEv.cold+0x165>
    7c3c:	e9 23 ff ff ff       	jmp    7b64 <_ZN2ML16test8BitAccuracyEv.cold+0x162>
    7c41:	bf 10 00 00 00       	mov    $0x10,%edi
    7c46:	e8 05 c5 ff ff       	call   4150 <__cxa_allocate_exception@plt>
    7c4b:	48 8d 35 ce 13 02 00 	lea    0x213ce(%rip),%rsi        # 29020 <_IO_stdin_used+0x20>
    7c52:	48 89 c7             	mov    %rax,%rdi
    7c55:	48 89 c5             	mov    %rax,%rbp
    7c58:	e8 a3 c4 ff ff       	call   4100 <_ZNSt13runtime_errorC1EPKc@plt>
    7c5d:	48 8b 15 5c b3 02 00 	mov    0x2b35c(%rip),%rdx        # 32fc0 <_ZNSt13runtime_errorD1Ev@GLIBCXX_3.4>
    7c64:	48 8d 35 95 af 02 00 	lea    0x2af95(%rip),%rsi        # 32c00 <_ZTISt13runtime_error@GLIBCXX_3.4>
    7c6b:	48 89 ef             	mov    %rbp,%rdi
    7c6e:	e8 bd c7 ff ff       	call   4430 <__cxa_throw@plt>
    7c73:	e8 c8 c6 ff ff       	call   4340 <__cxa_throw_bad_array_new_length@plt>
    7c78:	48 89 c3             	mov    %rax,%rbx
    7c7b:	e9 82 fe ff ff       	jmp    7b02 <_ZN2ML16test8BitAccuracyEv.cold+0x100>
    7c80:	48 89 ef             	mov    %rbp,%rdi
    7c83:	48 89 c3             	mov    %rax,%rbx
    7c86:	e8 55 c5 ff ff       	call   41e0 <__cxa_free_exception@plt>
    7c8b:	e9 72 fe ff ff       	jmp    7b02 <_ZN2ML16test8BitAccuracyEv.cold+0x100>

0000000000007c90 <_ZN2ML17testMixedAccuracyEv.cold>:
    7c90:	48 8b bc 24 60 01 00 	mov    0x160(%rsp),%rdi
    7c97:	00 
    7c98:	48 8b 44 24 10       	mov    0x10(%rsp),%rax
    7c9d:	48 39 c7             	cmp    %rax,%rdi
    7ca0:	74 05                	je     7ca7 <_ZN2ML17testMixedAccuracyEv.cold+0x17>
    7ca2:	e8 a9 c5 ff ff       	call   4250 <_ZdlPv@plt>
    7ca7:	48 8b bc 24 10 01 00 	mov    0x110(%rsp),%rdi
    7cae:	00 
    7caf:	4c 39 ff             	cmp    %r15,%rdi
    7cb2:	74 05                	je     7cb9 <_ZN2ML17testMixedAccuracyEv.cold+0x29>
    7cb4:	e8 97 c5 ff ff       	call   4250 <_ZdlPv@plt>
    7cb9:	48 8b 7c 24 68       	mov    0x68(%rsp),%rdi
    7cbe:	e8 5d f4 01 00       	call   27120 <_ZNSt6vectorISt10unique_ptrIN2ML5LayerESt14default_deleteIS2_EESaIS5_EED1Ev>
    7cc3:	48 89 df             	mov    %rbx,%rdi
    7cc6:	e8 85 c7 ff ff       	call   4450 <_Unwind_Resume@plt>
    7ccb:	48 8b bc 24 60 01 00 	mov    0x160(%rsp),%rdi
    7cd2:	00 
    7cd3:	48 8b 44 24 10       	mov    0x10(%rsp),%rax
    7cd8:	48 39 c7             	cmp    %rax,%rdi
    7cdb:	74 05                	je     7ce2 <_ZN2ML17testMixedAccuracyEv.cold+0x52>
    7cdd:	e8 6e c5 ff ff       	call   4250 <_ZdlPv@plt>
    7ce2:	48 8b bc 24 b0 00 00 	mov    0xb0(%rsp),%rdi
    7ce9:	00 
    7cea:	48 8b 44 24 38       	mov    0x38(%rsp),%rax
    7cef:	48 39 c7             	cmp    %rax,%rdi
    7cf2:	74 05                	je     7cf9 <_ZN2ML17testMixedAccuracyEv.cold+0x69>
    7cf4:	e8 57 c5 ff ff       	call   4250 <_ZdlPv@plt>
    7cf9:	48 8b bc 24 90 00 00 	mov    0x90(%rsp),%rdi
    7d00:	00 
    7d01:	48 8b 44 24 28       	mov    0x28(%rsp),%rax
    7d06:	48 39 c7             	cmp    %rax,%rdi
    7d09:	74 ae                	je     7cb9 <_ZN2ML17testMixedAccuracyEv.cold+0x29>
    7d0b:	e8 40 c5 ff ff       	call   4250 <_ZdlPv@plt>
    7d10:	eb a7                	jmp    7cb9 <_ZN2ML17testMixedAccuracyEv.cold+0x29>
    7d12:	48 8b bc 24 18 01 00 	mov    0x118(%rsp),%rdi
    7d19:	00 
    7d1a:	48 85 ff             	test   %rdi,%rdi
    7d1d:	74 05                	je     7d24 <_ZN2ML17testMixedAccuracyEv.cold+0x94>
    7d1f:	e8 2c c5 ff ff       	call   4250 <_ZdlPv@plt>
    7d24:	4d 85 e4             	test   %r12,%r12
    7d27:	74 08                	je     7d31 <_ZN2ML17testMixedAccuracyEv.cold+0xa1>
    7d29:	4c 89 e7             	mov    %r12,%rdi
    7d2c:	e8 1f c5 ff ff       	call   4250 <_ZdlPv@plt>
    7d31:	48 8b bc 24 60 01 00 	mov    0x160(%rsp),%rdi
    7d38:	00 
    7d39:	48 8b 44 24 10       	mov    0x10(%rsp),%rax
    7d3e:	48 39 c7             	cmp    %rax,%rdi
    7d41:	74 05                	je     7d48 <_ZN2ML17testMixedAccuracyEv.cold+0xb8>
    7d43:	e8 08 c5 ff ff       	call   4250 <_ZdlPv@plt>
    7d48:	48 8b bc 24 f0 00 00 	mov    0xf0(%rsp),%rdi
    7d4f:	00 
    7d50:	48 8b 44 24 20       	mov    0x20(%rsp),%rax
    7d55:	48 39 c7             	cmp    %rax,%rdi
    7d58:	74 88                	je     7ce2 <_ZN2ML17testMixedAccuracyEv.cold+0x52>
    7d5a:	e8 f1 c4 ff ff       	call   4250 <_ZdlPv@plt>
    7d5f:	eb 81                	jmp    7ce2 <_ZN2ML17testMixedAccuracyEv.cold+0x52>
    7d61:	48 8b bc 24 60 01 00 	mov    0x160(%rsp),%rdi
    7d68:	00 
    7d69:	48 8d 84 24 70 01 00 	lea    0x170(%rsp),%rax
    7d70:	00 
    7d71:	48 39 c7             	cmp    %rax,%rdi
    7d74:	74 05                	je     7d7b <_ZN2ML17testMixedAccuracyEv.cold+0xeb>
    7d76:	e8 d5 c4 ff ff       	call   4250 <_ZdlPv@plt>
    7d7b:	48 89 df             	mov    %rbx,%rdi
    7d7e:	e8 cd c6 ff ff       	call   4450 <_Unwind_Resume@plt>
    7d83:	48 89 c3             	mov    %rax,%rbx
    7d86:	48 8b 7c 24 18       	mov    0x18(%rsp),%rdi
    7d8b:	e8 00 c3 ff ff       	call   4090 <_ZNSt14basic_ifstreamIcSt11char_traitsIcEED1Ev@plt>
    7d90:	48 8b bc 24 d0 00 00 	mov    0xd0(%rsp),%rdi
    7d97:	00 
    7d98:	4c 39 ef             	cmp    %r13,%rdi
    7d9b:	74 05                	je     7da2 <_ZN2ML17testMixedAccuracyEv.cold+0x112>
    7d9d:	e8 ae c4 ff ff       	call   4250 <_ZdlPv@plt>
    7da2:	48 8b 7c 24 08       	mov    0x8(%rsp),%rdi
    7da7:	e8 44 eb 01 00       	call   268f0 <_ZN2ML9LayerDataD1Ev>
    7dac:	e9 31 ff ff ff       	jmp    7ce2 <_ZN2ML17testMixedAccuracyEv.cold+0x52>
    7db1:	bf 10 00 00 00       	mov    $0x10,%edi
    7db6:	e8 95 c3 ff ff       	call   4150 <__cxa_allocate_exception@plt>
    7dbb:	48 8d 35 c8 12 02 00 	lea    0x212c8(%rip),%rsi        # 2908a <_IO_stdin_used+0x8a>
    7dc2:	48 89 c7             	mov    %rax,%rdi
    7dc5:	48 89 c5             	mov    %rax,%rbp
    7dc8:	e8 33 c3 ff ff       	call   4100 <_ZNSt13runtime_errorC1EPKc@plt>
    7dcd:	48 8b 15 ec b1 02 00 	mov    0x2b1ec(%rip),%rdx        # 32fc0 <_ZNSt13runtime_errorD1Ev@GLIBCXX_3.4>
    7dd4:	48 8d 35 25 ae 02 00 	lea    0x2ae25(%rip),%rsi        # 32c00 <_ZTISt13runtime_error@GLIBCXX_3.4>
    7ddb:	48 89 ef             	mov    %rbp,%rdi
    7dde:	e8 4d c6 ff ff       	call   4430 <__cxa_throw@plt>
    7de3:	e8 28 c3 ff ff       	call   4110 <__cxa_begin_catch@plt>
    7de8:	e8 f3 c5 ff ff       	call   43e0 <__cxa_end_catch@plt>
    7ded:	e9 6c 8e 01 00       	jmp    20c5e <_ZN2ML17testMixedAccuracyEv+0xa5e>
    7df2:	48 89 c3             	mov    %rax,%rbx
    7df5:	48 89 ef             	mov    %rbp,%rdi
    7df8:	e8 e3 c3 ff ff       	call   41e0 <__cxa_free_exception@plt>
    7dfd:	eb 87                	jmp    7d86 <_ZN2ML17testMixedAccuracyEv.cold+0xf6>
    7dff:	bf 10 00 00 00       	mov    $0x10,%edi
    7e04:	e8 47 c3 ff ff       	call   4150 <__cxa_allocate_exception@plt>
    7e09:	48 8b 54 24 40       	mov    0x40(%rsp),%rdx
    7e0e:	48 8b 7c 24 58       	mov    0x58(%rsp),%rdi
    7e13:	48 8d 35 53 12 02 00 	lea    0x21253(%rip),%rsi        # 2906d <_IO_stdin_used+0x6d>
    7e1a:	48 89 c5             	mov    %rax,%rbp
    7e1d:	e8 3e f2 01 00       	call   27060 <_ZStplIcSt11char_traitsIcESaIcEENSt7__cxx1112basic_stringIT_T0_T1_EEPKS5_RKS8_>
    7e22:	48 8b 74 24 58       	mov    0x58(%rsp),%rsi
    7e27:	48 89 ef             	mov    %rbp,%rdi
    7e2a:	e8 91 c5 ff ff       	call   43c0 <_ZNSt13runtime_errorC1ERKNSt7__cxx1112basic_stringIcSt11char_traitsIcESaIcEEE@plt>
    7e2f:	48 8b bc 24 f0 00 00 	mov    0xf0(%rsp),%rdi
    7e36:	00 
    7e37:	48 8b 44 24 20       	mov    0x20(%rsp),%rax
    7e3c:	48 39 c7             	cmp    %rax,%rdi
    7e3f:	74 05                	je     7e46 <_ZN2ML17testMixedAccuracyEv.cold+0x1b6>
    7e41:	e8 0a c4 ff ff       	call   4250 <_ZdlPv@plt>
    7e46:	48 8b 15 73 b1 02 00 	mov    0x2b173(%rip),%rdx        # 32fc0 <_ZNSt13runtime_errorD1Ev@GLIBCXX_3.4>
    7e4d:	48 8d 35 ac ad 02 00 	lea    0x2adac(%rip),%rsi        # 32c00 <_ZTISt13runtime_error@GLIBCXX_3.4>
    7e54:	48 89 ef             	mov    %rbp,%rdi
    7e57:	e8 d4 c5 ff ff       	call   4430 <__cxa_throw@plt>
    7e5c:	48 8b 7c 24 10       	mov    0x10(%rsp),%rdi
    7e61:	e8 2a c5 ff ff       	call   4390 <_ZNSt13basic_filebufIcSt11char_traitsIcEED1Ev@plt>
    7e66:	48 8b 05 73 ad 02 00 	mov    0x2ad73(%rip),%rax        # 32be0 <_ZTTSt14basic_ifstreamIcSt11char_traitsIcEE@GLIBCXX_3.4+0x8>
    7e6d:	48 8b 0d 74 ad 02 00 	mov    0x2ad74(%rip),%rcx        # 32be8 <_ZTTSt14basic_ifstreamIcSt11char_traitsIcEE@GLIBCXX_3.4+0x10>
    7e74:	48 89 84 24 60 01 00 	mov    %rax,0x160(%rsp)
    7e7b:	00 
    7e7c:	48 8b 40 e8          	mov    -0x18(%rax),%rax
    7e80:	48 89 8c 04 60 01 00 	mov    %rcx,0x160(%rsp,%rax,1)
    7e87:	00 
    7e88:	31 c0                	xor    %eax,%eax
    7e8a:	48 89 84 24 68 01 00 	mov    %rax,0x168(%rsp)
    7e91:	00 
    7e92:	4c 89 f7             	mov    %r14,%rdi
    7e95:	4c 89 a4 24 60 02 00 	mov    %r12,0x260(%rsp)
    7e9c:	00 
    7e9d:	e8 3e c2 ff ff       	call   40e0 <_ZNSt8ios_baseD2Ev@plt>
    7ea2:	e9 e9 fe ff ff       	jmp    7d90 <_ZN2ML17testMixedAccuracyEv.cold+0x100>
    7ea7:	48 89 c3             	mov    %rax,%rbx
    7eaa:	48 8b bc 24 f0 00 00 	mov    0xf0(%rsp),%rdi
    7eb1:	00 
    7eb2:	48 8b 44 24 20       	mov    0x20(%rsp),%rax
    7eb7:	48 39 c7             	cmp    %rax,%rdi
    7eba:	0f 84 35 ff ff ff    	je     7df5 <_ZN2ML17testMixedAccuracyEv.cold+0x165>
    7ec0:	e8 8b c3 ff ff       	call   4250 <_ZdlPv@plt>
    7ec5:	e9 2b ff ff ff       	jmp    7df5 <_ZN2ML17testMixedAccuracyEv.cold+0x165>
    7eca:	e9 23 ff ff ff       	jmp    7df2 <_ZN2ML17testMixedAccuracyEv.cold+0x162>
    7ecf:	bf 10 00 00 00       	mov    $0x10,%edi
    7ed4:	e8 77 c2 ff ff       	call   4150 <__cxa_allocate_exception@plt>
    7ed9:	48 8d 35 40 11 02 00 	lea    0x21140(%rip),%rsi        # 29020 <_IO_stdin_used+0x20>
    7ee0:	48 89 c7             	mov    %rax,%rdi
    7ee3:	48 89 c5             	mov    %rax,%rbp
    7ee6:	e8 15 c2 ff ff       	call   4100 <_ZNSt13runtime_errorC1EPKc@plt>
    7eeb:	48 8b 15 ce b0 02 00 	mov    0x2b0ce(%rip),%rdx        # 32fc0 <_ZNSt13runtime_errorD1Ev@GLIBCXX_3.4>
    7ef2:	48 8d 35 07 ad 02 00 	lea    0x2ad07(%rip),%rsi        # 32c00 <_ZTISt13runtime_error@GLIBCXX_3.4>
    7ef9:	48 89 ef             	mov    %rbp,%rdi
    7efc:	e8 2f c5 ff ff       	call   4430 <__cxa_throw@plt>
    7f01:	e8 3a c4 ff ff       	call   4340 <__cxa_throw_bad_array_new_length@plt>
    7f06:	48 89 c3             	mov    %rax,%rbx
    7f09:	e9 82 fe ff ff       	jmp    7d90 <_ZN2ML17testMixedAccuracyEv.cold+0x100>
    7f0e:	48 89 ef             	mov    %rbp,%rdi
    7f11:	48 89 c3             	mov    %rax,%rbx
    7f14:	e8 c7 c2 ff ff       	call   41e0 <__cxa_free_exception@plt>
    7f19:	e9 72 fe ff ff       	jmp    7d90 <_ZN2ML17testMixedAccuracyEv.cold+0x100>

0000000000007f1e <_ZN2ML16runProfilingTestERKNS_5ModelERKNS_4PathE.cold>:
    7f1e:	48 8b 7d 80          	mov    -0x80(%rbp),%rdi
    7f22:	48 8d 45 90          	lea    -0x70(%rbp),%rax
    7f26:	48 39 c7             	cmp    %rax,%rdi
    7f29:	74 05                	je     7f30 <_ZN2ML16runProfilingTestERKNS_5ModelERKNS_4PathE.cold+0x12>
    7f2b:	e8 20 c3 ff ff       	call   4250 <_ZdlPv@plt>
    7f30:	48 89 df             	mov    %rbx,%rdi
    7f33:	e8 18 c5 ff ff       	call   4450 <_Unwind_Resume@plt>
    7f38:	48 8b bd 50 ff ff ff 	mov    -0xb0(%rbp),%rdi
    7f3f:	4c 39 ff             	cmp    %r15,%rdi
    7f42:	74 05                	je     7f49 <_ZN2ML16runProfilingTestERKNS_5ModelERKNS_4PathE.cold+0x2b>
    7f44:	e8 07 c3 ff ff       	call   4250 <_ZdlPv@plt>
    7f49:	48 8b bd a0 fe ff ff 	mov    -0x160(%rbp),%rdi
    7f50:	48 85 ff             	test   %rdi,%rdi
    7f53:	74 05                	je     7f5a <_ZN2ML16runProfilingTestERKNS_5ModelERKNS_4PathE.cold+0x3c>
    7f55:	e8 f6 c2 ff ff       	call   4250 <_ZdlPv@plt>
    7f5a:	48 8b bd 68 fe ff ff 	mov    -0x198(%rbp),%rdi
    7f61:	e8 8a e9 01 00       	call   268f0 <_ZN2ML9LayerDataD1Ev>
    7f66:	48 89 df             	mov    %rbx,%rdi
    7f69:	e8 e2 c4 ff ff       	call   4450 <_Unwind_Resume@plt>
    7f6e:	48 8b bd 40 ff ff ff 	mov    -0xc0(%rbp),%rdi
    7f75:	48 8b 85 78 fe ff ff 	mov    -0x188(%rbp),%rax
    7f7c:	48 39 c7             	cmp    %rax,%rdi
    7f7f:	74 c8                	je     7f49 <_ZN2ML16runProfilingTestERKNS_5ModelERKNS_4PathE.cold+0x2b>
    7f81:	e8 ca c2 ff ff       	call   4250 <_ZdlPv@plt>
    7f86:	eb c1                	jmp    7f49 <_ZN2ML16runProfilingTestERKNS_5ModelERKNS_4PathE.cold+0x2b>
    7f88:	48 8b bd 00 ff ff ff 	mov    -0x100(%rbp),%rdi
    7f8f:	48 8b 85 88 fe ff ff 	mov    -0x178(%rbp),%rax
    7f96:	48 39 c7             	cmp    %rax,%rdi
    7f99:	74 05                	je     7fa0 <_ZN2ML16runProfilingTestERKNS_5ModelERKNS_4PathE.cold+0x82>
    7f9b:	e8 b0 c2 ff ff       	call   4250 <_ZdlPv@plt>
    7fa0:	48 8b bd c0 fe ff ff 	mov    -0x140(%rbp),%rdi
    7fa7:	4c 39 ef             	cmp    %r13,%rdi
    7faa:	74 05                	je     7fb1 <_ZN2ML16runProfilingTestERKNS_5ModelERKNS_4PathE.cold+0x93>
    7fac:	e8 9f c2 ff ff       	call   4250 <_ZdlPv@plt>
    7fb1:	48 8b bd e0 fe ff ff 	mov    -0x120(%rbp),%rdi
    7fb8:	48 8b 85 90 fe ff ff 	mov    -0x170(%rbp),%rax
    7fbf:	48 39 c7             	cmp    %rax,%rdi
    7fc2:	74 85                	je     7f49 <_ZN2ML16runProfilingTestERKNS_5ModelERKNS_4PathE.cold+0x2b>
    7fc4:	e8 87 c2 ff ff       	call   4250 <_ZdlPv@plt>
    7fc9:	e9 7b ff ff ff       	jmp    7f49 <_ZN2ML16runProfilingTestERKNS_5ModelERKNS_4PathE.cold+0x2b>
    7fce:	48 8b bd 40 ff ff ff 	mov    -0xc0(%rbp),%rdi
    7fd5:	48 8b 85 78 fe ff ff 	mov    -0x188(%rbp),%rax
    7fdc:	48 39 c7             	cmp    %rax,%rdi
    7fdf:	0f 84 75 ff ff ff    	je     7f5a <_ZN2ML16runProfilingTestERKNS_5ModelERKNS_4PathE.cold+0x3c>
    7fe5:	e8 66 c2 ff ff       	call   4250 <_ZdlPv@plt>
    7fea:	e9 6b ff ff ff       	jmp    7f5a <_ZN2ML16runProfilingTestERKNS_5ModelERKNS_4PathE.cold+0x3c>
    7fef:	48 8b bd 40 ff ff ff 	mov    -0xc0(%rbp),%rdi
    7ff6:	48 8d 85 50 ff ff ff 	lea    -0xb0(%rbp),%rax
    7ffd:	48 39 c7             	cmp    %rax,%rdi
    8000:	74 05                	je     8007 <_ZN2ML16runProfilingTestERKNS_5ModelERKNS_4PathE.cold+0xe9>
    8002:	e8 49 c2 ff ff       	call   4250 <_ZdlPv@plt>
    8007:	48 89 df             	mov    %rbx,%rdi
    800a:	e8 41 c4 ff ff       	call   4450 <_Unwind_Resume@plt>

000000000000800f <_ZN2ML14checkConvLayerERKNS_4PathEiRKNS_11LayerParamsES5_S5_S5_RKNSt7__cxx1112basic_stringIcSt11char_traitsIcESaIcEEE.cold>:
    800f:	e8 2c c3 ff ff       	call   4340 <__cxa_throw_bad_array_new_length@plt>
