
build/ml:     file format elf64-x86-64


Disassembly of section .init:

0000000000004000 <_init>:
    4000:	48 83 ec 08          	sub    $0x8,%rsp
    4004:	48 8b 05 bd 0f 03 00 	mov    0x30fbd(%rip),%rax        # 34fc8 <__gmon_start__@Base>
    400b:	48 85 c0             	test   %rax,%rax
    400e:	74 02                	je     4012 <_init+0x12>
    4010:	ff d0                	call   *%rax
    4012:	48 83 c4 08          	add    $0x8,%rsp
    4016:	c3                   	ret

Disassembly of section .plt:

0000000000004020 <_Znam@plt-0x10>:
    4020:	ff 35 ca 0f 03 00    	push   0x30fca(%rip)        # 34ff0 <_GLOBAL_OFFSET_TABLE_+0x8>
    4026:	ff 25 cc 0f 03 00    	jmp    *0x30fcc(%rip)        # 34ff8 <_GLOBAL_OFFSET_TABLE_+0x10>
    402c:	0f 1f 40 00          	nopl   0x0(%rax)

0000000000004030 <_Znam@plt>:
    4030:	ff 25 ca 0f 03 00    	jmp    *0x30fca(%rip)        # 35000 <_Znam@GLIBCXX_3.4>
    4036:	68 00 00 00 00       	push   $0x0
    403b:	e9 e0 ff ff ff       	jmp    4020 <_init+0x20>

0000000000004040 <_ZNSo3putEc@plt>:
    4040:	ff 25 c2 0f 03 00    	jmp    *0x30fc2(%rip)        # 35008 <_ZNSo3putEc@GLIBCXX_3.4>
    4046:	68 01 00 00 00       	push   $0x1
    404b:	e9 d0 ff ff ff       	jmp    4020 <_init+0x20>

0000000000004050 <printf@plt>:
    4050:	ff 25 ba 0f 03 00    	jmp    *0x30fba(%rip)        # 35010 <printf@GLIBC_2.2.5>
    4056:	68 02 00 00 00       	push   $0x2
    405b:	e9 c0 ff ff ff       	jmp    4020 <_init+0x20>

0000000000004060 <_ZNSt13basic_filebufIcSt11char_traitsIcEE5closeEv@plt>:
    4060:	ff 25 b2 0f 03 00    	jmp    *0x30fb2(%rip)        # 35018 <_ZNSt13basic_filebufIcSt11char_traitsIcEE5closeEv@GLIBCXX_3.4>
    4066:	68 03 00 00 00       	push   $0x3
    406b:	e9 b0 ff ff ff       	jmp    4020 <_init+0x20>

0000000000004070 <_ZNKSt12__basic_fileIcE7is_openEv@plt>:
    4070:	ff 25 aa 0f 03 00    	jmp    *0x30faa(%rip)        # 35020 <_ZNKSt12__basic_fileIcE7is_openEv@GLIBCXX_3.4>
    4076:	68 04 00 00 00       	push   $0x4
    407b:	e9 a0 ff ff ff       	jmp    4020 <_init+0x20>

0000000000004080 <_ZNSt7__cxx1112basic_stringIcSt11char_traitsIcESaIcEE6insertEmPKc@plt>:
    4080:	ff 25 a2 0f 03 00    	jmp    *0x30fa2(%rip)        # 35028 <_ZNSt7__cxx1112basic_stringIcSt11char_traitsIcESaIcEE6insertEmPKc@GLIBCXX_3.4.21>
    4086:	68 05 00 00 00       	push   $0x5
    408b:	e9 90 ff ff ff       	jmp    4020 <_init+0x20>

0000000000004090 <_ZNSt14basic_ifstreamIcSt11char_traitsIcEED1Ev@plt>:
    4090:	ff 25 9a 0f 03 00    	jmp    *0x30f9a(%rip)        # 35030 <_ZNSt14basic_ifstreamIcSt11char_traitsIcEED1Ev@GLIBCXX_3.4>
    4096:	68 06 00 00 00       	push   $0x6
    409b:	e9 80 ff ff ff       	jmp    4020 <_init+0x20>

00000000000040a0 <_ZSt9terminatev@plt>:
    40a0:	ff 25 92 0f 03 00    	jmp    *0x30f92(%rip)        # 35038 <_ZSt9terminatev@GLIBCXX_3.4>
    40a6:	68 07 00 00 00       	push   $0x7
    40ab:	e9 70 ff ff ff       	jmp    4020 <_init+0x20>

00000000000040b0 <_ZNKSt7__cxx1112basic_stringIcSt11char_traitsIcESaIcEE7compareEPKc@plt>:
    40b0:	ff 25 8a 0f 03 00    	jmp    *0x30f8a(%rip)        # 35040 <_ZNKSt7__cxx1112basic_stringIcSt11char_traitsIcESaIcEE7compareEPKc@GLIBCXX_3.4.21>
    40b6:	68 08 00 00 00       	push   $0x8
    40bb:	e9 60 ff ff ff       	jmp    4020 <_init+0x20>

00000000000040c0 <_ZNSt8ios_baseC2Ev@plt>:
    40c0:	ff 25 82 0f 03 00    	jmp    *0x30f82(%rip)        # 35048 <_ZNSt8ios_baseC2Ev@GLIBCXX_3.4>
    40c6:	68 09 00 00 00       	push   $0x9
    40cb:	e9 50 ff ff ff       	jmp    4020 <_init+0x20>

00000000000040d0 <_ZNSt7__cxx1112basic_stringIcSt11char_traitsIcESaIcEE9_M_appendEPKcm@plt>:
    40d0:	ff 25 7a 0f 03 00    	jmp    *0x30f7a(%rip)        # 35050 <_ZNSt7__cxx1112basic_stringIcSt11char_traitsIcESaIcEE9_M_appendEPKcm@GLIBCXX_3.4.21>
    40d6:	68 0a 00 00 00       	push   $0xa
    40db:	e9 40 ff ff ff       	jmp    4020 <_init+0x20>

00000000000040e0 <_ZNSt8ios_baseD2Ev@plt>:
    40e0:	ff 25 72 0f 03 00    	jmp    *0x30f72(%rip)        # 35058 <_ZNSt8ios_baseD2Ev@GLIBCXX_3.4>
    40e6:	68 0b 00 00 00       	push   $0xb
    40eb:	e9 30 ff ff ff       	jmp    4020 <_init+0x20>

00000000000040f0 <_ZSt17__throw_bad_allocv@plt>:
    40f0:	ff 25 6a 0f 03 00    	jmp    *0x30f6a(%rip)        # 35060 <_ZSt17__throw_bad_allocv@GLIBCXX_3.4>
    40f6:	68 0c 00 00 00       	push   $0xc
    40fb:	e9 20 ff ff ff       	jmp    4020 <_init+0x20>

0000000000004100 <_ZNSt13runtime_errorC1EPKc@plt>:
    4100:	ff 25 62 0f 03 00    	jmp    *0x30f62(%rip)        # 35068 <_ZNSt13runtime_errorC1EPKc@GLIBCXX_3.4.21>
    4106:	68 0d 00 00 00       	push   $0xd
    410b:	e9 10 ff ff ff       	jmp    4020 <_init+0x20>

0000000000004110 <__cxa_begin_catch@plt>:
    4110:	ff 25 5a 0f 03 00    	jmp    *0x30f5a(%rip)        # 35070 <__cxa_begin_catch@CXXABI_1.3>
    4116:	68 0e 00 00 00       	push   $0xe
    411b:	e9 00 ff ff ff       	jmp    4020 <_init+0x20>

0000000000004120 <strlen@plt>:
    4120:	ff 25 52 0f 03 00    	jmp    *0x30f52(%rip)        # 35078 <strlen@GLIBC_2.2.5>
    4126:	68 0f 00 00 00       	push   $0xf
    412b:	e9 f0 fe ff ff       	jmp    4020 <_init+0x20>

0000000000004130 <_ZNSt6thread6_StateD2Ev@plt>:
    4130:	ff 25 4a 0f 03 00    	jmp    *0x30f4a(%rip)        # 35080 <_ZNSt6thread6_StateD2Ev@GLIBCXX_3.4.22>
    4136:	68 10 00 00 00       	push   $0x10
    413b:	e9 e0 fe ff ff       	jmp    4020 <_init+0x20>

0000000000004140 <_ZSt4endlIcSt11char_traitsIcEERSt13basic_ostreamIT_T0_ES6_@plt>:
    4140:	ff 25 42 0f 03 00    	jmp    *0x30f42(%rip)        # 35088 <_ZSt4endlIcSt11char_traitsIcEERSt13basic_ostreamIT_T0_ES6_@GLIBCXX_3.4>
    4146:	68 11 00 00 00       	push   $0x11
    414b:	e9 d0 fe ff ff       	jmp    4020 <_init+0x20>

0000000000004150 <__cxa_allocate_exception@plt>:
    4150:	ff 25 3a 0f 03 00    	jmp    *0x30f3a(%rip)        # 35090 <__cxa_allocate_exception@CXXABI_1.3>
    4156:	68 12 00 00 00       	push   $0x12
    415b:	e9 c0 fe ff ff       	jmp    4020 <_init+0x20>

0000000000004160 <_ZSt20__throw_length_errorPKc@plt>:
    4160:	ff 25 32 0f 03 00    	jmp    *0x30f32(%rip)        # 35098 <_ZSt20__throw_length_errorPKc@GLIBCXX_3.4>
    4166:	68 13 00 00 00       	push   $0x13
    416b:	e9 b0 fe ff ff       	jmp    4020 <_init+0x20>

0000000000004170 <_ZNSt7__cxx1112basic_stringIcSt11char_traitsIcESaIcEE9_M_assignERKS4_@plt>:
    4170:	ff 25 2a 0f 03 00    	jmp    *0x30f2a(%rip)        # 350a0 <_ZNSt7__cxx1112basic_stringIcSt11char_traitsIcESaIcEE9_M_assignERKS4_@GLIBCXX_3.4.21>
    4176:	68 14 00 00 00       	push   $0x14
    417b:	e9 a0 fe ff ff       	jmp    4020 <_init+0x20>

0000000000004180 <memset@plt>:
    4180:	ff 25 22 0f 03 00    	jmp    *0x30f22(%rip)        # 350a8 <memset@GLIBC_2.2.5>
    4186:	68 15 00 00 00       	push   $0x15
    418b:	e9 90 fe ff ff       	jmp    4020 <_init+0x20>

0000000000004190 <_ZNSt7__cxx1112basic_stringIcSt11char_traitsIcESaIcEEC1EOS4_@plt>:
    4190:	ff 25 1a 0f 03 00    	jmp    *0x30f1a(%rip)        # 350b0 <_ZNSt7__cxx1112basic_stringIcSt11char_traitsIcESaIcEEC1EOS4_@GLIBCXX_3.4.21>
    4196:	68 16 00 00 00       	push   $0x16
    419b:	e9 80 fe ff ff       	jmp    4020 <_init+0x20>

00000000000041a0 <__assert_fail@plt>:
    41a0:	ff 25 12 0f 03 00    	jmp    *0x30f12(%rip)        # 350b8 <__assert_fail@GLIBC_2.2.5>
    41a6:	68 17 00 00 00       	push   $0x17
    41ab:	e9 70 fe ff ff       	jmp    4020 <_init+0x20>

00000000000041b0 <_ZNSo9_M_insertImEERSoT_@plt>:
    41b0:	ff 25 0a 0f 03 00    	jmp    *0x30f0a(%rip)        # 350c0 <_ZNSo9_M_insertImEERSoT_@GLIBCXX_3.4.9>
    41b6:	68 18 00 00 00       	push   $0x18
    41bb:	e9 60 fe ff ff       	jmp    4020 <_init+0x20>

00000000000041c0 <_ZNSo5flushEv@plt>:
    41c0:	ff 25 02 0f 03 00    	jmp    *0x30f02(%rip)        # 350c8 <_ZNSo5flushEv@GLIBCXX_3.4>
    41c6:	68 19 00 00 00       	push   $0x19
    41cb:	e9 50 fe ff ff       	jmp    4020 <_init+0x20>

00000000000041d0 <_ZSt19__throw_logic_errorPKc@plt>:
    41d0:	ff 25 fa 0e 03 00    	jmp    *0x30efa(%rip)        # 350d0 <_ZSt19__throw_logic_errorPKc@GLIBCXX_3.4>
    41d6:	68 1a 00 00 00       	push   $0x1a
    41db:	e9 40 fe ff ff       	jmp    4020 <_init+0x20>

00000000000041e0 <__cxa_free_exception@plt>:
    41e0:	ff 25 f2 0e 03 00    	jmp    *0x30ef2(%rip)        # 350d8 <__cxa_free_exception@CXXABI_1.3>
    41e6:	68 1b 00 00 00       	push   $0x1b
    41eb:	e9 30 fe ff ff       	jmp    4020 <_init+0x20>

00000000000041f0 <_ZNSt7__cxx1118basic_stringstreamIcSt11char_traitsIcESaIcEED1Ev@plt>:
    41f0:	ff 25 ea 0e 03 00    	jmp    *0x30eea(%rip)        # 350e0 <_ZNSt7__cxx1118basic_stringstreamIcSt11char_traitsIcESaIcEED1Ev@GLIBCXX_3.4.21>
    41f6:	68 1c 00 00 00       	push   $0x1c
    41fb:	e9 20 fe ff ff       	jmp    4020 <_init+0x20>

0000000000004200 <_ZSt28__throw_bad_array_new_lengthv@plt>:
    4200:	ff 25 e2 0e 03 00    	jmp    *0x30ee2(%rip)        # 350e8 <_ZSt28__throw_bad_array_new_lengthv@GLIBCXX_3.4.29>
    4206:	68 1d 00 00 00       	push   $0x1d
    420b:	e9 10 fe ff ff       	jmp    4020 <_init+0x20>

0000000000004210 <memcpy@plt>:
    4210:	ff 25 da 0e 03 00    	jmp    *0x30eda(%rip)        # 350f0 <memcpy@GLIBC_2.14>
    4216:	68 1e 00 00 00       	push   $0x1e
    421b:	e9 00 fe ff ff       	jmp    4020 <_init+0x20>

0000000000004220 <__cxa_atexit@plt>:
    4220:	ff 25 d2 0e 03 00    	jmp    *0x30ed2(%rip)        # 350f8 <__cxa_atexit@GLIBC_2.2.5>
    4226:	68 1f 00 00 00       	push   $0x1f
    422b:	e9 f0 fd ff ff       	jmp    4020 <_init+0x20>

0000000000004230 <_ZNSt13basic_filebufIcSt11char_traitsIcEE4openEPKcSt13_Ios_Openmode@plt>:
    4230:	ff 25 ca 0e 03 00    	jmp    *0x30eca(%rip)        # 35100 <_ZNSt13basic_filebufIcSt11char_traitsIcEE4openEPKcSt13_Ios_Openmode@GLIBCXX_3.4>
    4236:	68 20 00 00 00       	push   $0x20
    423b:	e9 e0 fd ff ff       	jmp    4020 <_init+0x20>

0000000000004240 <_ZNSt6thread15_M_start_threadESt10unique_ptrINS_6_StateESt14default_deleteIS1_EEPFvvE@plt>:
    4240:	ff 25 c2 0e 03 00    	jmp    *0x30ec2(%rip)        # 35108 <_ZNSt6thread15_M_start_threadESt10unique_ptrINS_6_StateESt14default_deleteIS1_EEPFvvE@GLIBCXX_3.4.22>
    4246:	68 21 00 00 00       	push   $0x21
    424b:	e9 d0 fd ff ff       	jmp    4020 <_init+0x20>

0000000000004250 <_ZdlPv@plt>:
    4250:	ff 25 ba 0e 03 00    	jmp    *0x30eba(%rip)        # 35110 <_ZdlPv@GLIBCXX_3.4>
    4256:	68 22 00 00 00       	push   $0x22
    425b:	e9 c0 fd ff ff       	jmp    4020 <_init+0x20>

0000000000004260 <_ZStlsISt11char_traitsIcEERSt13basic_ostreamIcT_ES5_PKc@plt>:
    4260:	ff 25 b2 0e 03 00    	jmp    *0x30eb2(%rip)        # 35118 <_ZStlsISt11char_traitsIcEERSt13basic_ostreamIcT_ES5_PKc@GLIBCXX_3.4>
    4266:	68 23 00 00 00       	push   $0x23
    426b:	e9 b0 fd ff ff       	jmp    4020 <_init+0x20>

0000000000004270 <_Znwm@plt>:
    4270:	ff 25 aa 0e 03 00    	jmp    *0x30eaa(%rip)        # 35120 <_Znwm@GLIBCXX_3.4>
    4276:	68 24 00 00 00       	push   $0x24
    427b:	e9 a0 fd ff ff       	jmp    4020 <_init+0x20>

0000000000004280 <_ZNSt13basic_filebufIcSt11char_traitsIcEEC1Ev@plt>:
    4280:	ff 25 a2 0e 03 00    	jmp    *0x30ea2(%rip)        # 35128 <_ZNSt13basic_filebufIcSt11char_traitsIcEEC1Ev@GLIBCXX_3.4>
    4286:	68 25 00 00 00       	push   $0x25
    428b:	e9 90 fd ff ff       	jmp    4020 <_init+0x20>

0000000000004290 <__dynamic_cast@plt>:
    4290:	ff 25 9a 0e 03 00    	jmp    *0x30e9a(%rip)        # 35130 <__dynamic_cast@CXXABI_1.3>
    4296:	68 26 00 00 00       	push   $0x26
    429b:	e9 80 fd ff ff       	jmp    4020 <_init+0x20>

00000000000042a0 <_ZSt16__ostream_insertIcSt11char_traitsIcEERSt13basic_ostreamIT_T0_ES6_PKS3_l@plt>:
    42a0:	ff 25 92 0e 03 00    	jmp    *0x30e92(%rip)        # 35138 <_ZSt16__ostream_insertIcSt11char_traitsIcEERSt13basic_ostreamIT_T0_ES6_PKS3_l@GLIBCXX_3.4.9>
    42a6:	68 27 00 00 00       	push   $0x27
    42ab:	e9 70 fd ff ff       	jmp    4020 <_init+0x20>

00000000000042b0 <_ZNKSt5ctypeIcE13_M_widen_initEv@plt>:
    42b0:	ff 25 8a 0e 03 00    	jmp    *0x30e8a(%rip)        # 35140 <_ZNKSt5ctypeIcE13_M_widen_initEv@GLIBCXX_3.4.11>
    42b6:	68 28 00 00 00       	push   $0x28
    42bb:	e9 60 fd ff ff       	jmp    4020 <_init+0x20>

00000000000042c0 <_ZNSt7__cxx1112basic_stringIcSt11char_traitsIcESaIcEE12_M_constructEmc@plt>:
    42c0:	ff 25 82 0e 03 00    	jmp    *0x30e82(%rip)        # 35148 <_ZNSt7__cxx1112basic_stringIcSt11char_traitsIcESaIcEE12_M_constructEmc@GLIBCXX_3.4.21>
    42c6:	68 29 00 00 00       	push   $0x29
    42cb:	e9 50 fd ff ff       	jmp    4020 <_init+0x20>

00000000000042d0 <_ZNSi4readEPcl@plt>:
    42d0:	ff 25 7a 0e 03 00    	jmp    *0x30e7a(%rip)        # 35150 <_ZNSi4readEPcl@GLIBCXX_3.4>
    42d6:	68 2a 00 00 00       	push   $0x2a
    42db:	e9 40 fd ff ff       	jmp    4020 <_init+0x20>

00000000000042e0 <_ZSt16__throw_bad_castv@plt>:
    42e0:	ff 25 72 0e 03 00    	jmp    *0x30e72(%rip)        # 35158 <_ZSt16__throw_bad_castv@GLIBCXX_3.4>
    42e6:	68 2b 00 00 00       	push   $0x2b
    42eb:	e9 30 fd ff ff       	jmp    4020 <_init+0x20>

00000000000042f0 <_ZdaPv@plt>:
    42f0:	ff 25 6a 0e 03 00    	jmp    *0x30e6a(%rip)        # 35160 <_ZdaPv@GLIBCXX_3.4>
    42f6:	68 2c 00 00 00       	push   $0x2c
    42fb:	e9 20 fd ff ff       	jmp    4020 <_init+0x20>

0000000000004300 <_ZNSt6chrono3_V212steady_clock3nowEv@plt>:
    4300:	ff 25 62 0e 03 00    	jmp    *0x30e62(%rip)        # 35168 <_ZNSt6chrono3_V212steady_clock3nowEv@GLIBCXX_3.4.19>
    4306:	68 2d 00 00 00       	push   $0x2d
    430b:	e9 10 fd ff ff       	jmp    4020 <_init+0x20>

0000000000004310 <_ZNSt9basic_iosIcSt11char_traitsIcEE4initEPSt15basic_streambufIcS1_E@plt>:
    4310:	ff 25 5a 0e 03 00    	jmp    *0x30e5a(%rip)        # 35170 <_ZNSt9basic_iosIcSt11char_traitsIcEE4initEPSt15basic_streambufIcS1_E@GLIBCXX_3.4>
    4316:	68 2e 00 00 00       	push   $0x2e
    431b:	e9 00 fd ff ff       	jmp    4020 <_init+0x20>

0000000000004320 <putchar@plt>:
    4320:	ff 25 52 0e 03 00    	jmp    *0x30e52(%rip)        # 35178 <putchar@GLIBC_2.2.5>
    4326:	68 2f 00 00 00       	push   $0x2f
    432b:	e9 f0 fc ff ff       	jmp    4020 <_init+0x20>

0000000000004330 <_ZNSt6localeD1Ev@plt>:
    4330:	ff 25 4a 0e 03 00    	jmp    *0x30e4a(%rip)        # 35180 <_ZNSt6localeD1Ev@GLIBCXX_3.4>
    4336:	68 30 00 00 00       	push   $0x30
    433b:	e9 e0 fc ff ff       	jmp    4020 <_init+0x20>

0000000000004340 <__cxa_throw_bad_array_new_length@plt>:
    4340:	ff 25 42 0e 03 00    	jmp    *0x30e42(%rip)        # 35188 <__cxa_throw_bad_array_new_length@CXXABI_1.3.8>
    4346:	68 31 00 00 00       	push   $0x31
    434b:	e9 d0 fc ff ff       	jmp    4020 <_init+0x20>

0000000000004350 <__cxa_rethrow@plt>:
    4350:	ff 25 3a 0e 03 00    	jmp    *0x30e3a(%rip)        # 35190 <__cxa_rethrow@CXXABI_1.3>
    4356:	68 32 00 00 00       	push   $0x32
    435b:	e9 c0 fc ff ff       	jmp    4020 <_init+0x20>

0000000000004360 <_ZNSt8ios_base4InitC1Ev@plt>:
    4360:	ff 25 32 0e 03 00    	jmp    *0x30e32(%rip)        # 35198 <_ZNSt8ios_base4InitC1Ev@GLIBCXX_3.4>
    4366:	68 33 00 00 00       	push   $0x33
    436b:	e9 b0 fc ff ff       	jmp    4020 <_init+0x20>

0000000000004370 <puts@plt>:
    4370:	ff 25 2a 0e 03 00    	jmp    *0x30e2a(%rip)        # 351a0 <puts@GLIBC_2.2.5>
    4376:	68 34 00 00 00       	push   $0x34
    437b:	e9 a0 fc ff ff       	jmp    4020 <_init+0x20>

0000000000004380 <_ZNSt7__cxx1112basic_stringIcSt11char_traitsIcESaIcEE10_M_replaceEmmPKcm@plt>:
    4380:	ff 25 22 0e 03 00    	jmp    *0x30e22(%rip)        # 351a8 <_ZNSt7__cxx1112basic_stringIcSt11char_traitsIcESaIcEE10_M_replaceEmmPKcm@GLIBCXX_3.4.21>
    4386:	68 35 00 00 00       	push   $0x35
    438b:	e9 90 fc ff ff       	jmp    4020 <_init+0x20>

0000000000004390 <_ZNSt13basic_filebufIcSt11char_traitsIcEED1Ev@plt>:
    4390:	ff 25 1a 0e 03 00    	jmp    *0x30e1a(%rip)        # 351b0 <_ZNSt13basic_filebufIcSt11char_traitsIcEED1Ev@GLIBCXX_3.4>
    4396:	68 36 00 00 00       	push   $0x36
    439b:	e9 80 fc ff ff       	jmp    4020 <_init+0x20>

00000000000043a0 <_ZNSt7__cxx1112basic_stringIcSt11char_traitsIcESaIcEE7reserveEm@plt>:
    43a0:	ff 25 12 0e 03 00    	jmp    *0x30e12(%rip)        # 351b8 <_ZNSt7__cxx1112basic_stringIcSt11char_traitsIcESaIcEE7reserveEm@GLIBCXX_3.4.21>
    43a6:	68 37 00 00 00       	push   $0x37
    43ab:	e9 70 fc ff ff       	jmp    4020 <_init+0x20>

00000000000043b0 <_ZNSo9_M_insertIdEERSoT_@plt>:
    43b0:	ff 25 0a 0e 03 00    	jmp    *0x30e0a(%rip)        # 351c0 <_ZNSo9_M_insertIdEERSoT_@GLIBCXX_3.4.9>
    43b6:	68 38 00 00 00       	push   $0x38
    43bb:	e9 60 fc ff ff       	jmp    4020 <_init+0x20>

00000000000043c0 <_ZNSt13runtime_errorC1ERKNSt7__cxx1112basic_stringIcSt11char_traitsIcESaIcEEE@plt>:
    43c0:	ff 25 02 0e 03 00    	jmp    *0x30e02(%rip)        # 351c8 <_ZNSt13runtime_errorC1ERKNSt7__cxx1112basic_stringIcSt11char_traitsIcESaIcEEE@GLIBCXX_3.4.21>
    43c6:	68 39 00 00 00       	push   $0x39
    43cb:	e9 50 fc ff ff       	jmp    4020 <_init+0x20>

00000000000043d0 <memmove@plt>:
    43d0:	ff 25 fa 0d 03 00    	jmp    *0x30dfa(%rip)        # 351d0 <memmove@GLIBC_2.2.5>
    43d6:	68 3a 00 00 00       	push   $0x3a
    43db:	e9 40 fc ff ff       	jmp    4020 <_init+0x20>

00000000000043e0 <__cxa_end_catch@plt>:
    43e0:	ff 25 f2 0d 03 00    	jmp    *0x30df2(%rip)        # 351d8 <__cxa_end_catch@CXXABI_1.3>
    43e6:	68 3b 00 00 00       	push   $0x3b
    43eb:	e9 30 fc ff ff       	jmp    4020 <_init+0x20>

00000000000043f0 <_ZNSo9_M_insertIbEERSoT_@plt>:
    43f0:	ff 25 ea 0d 03 00    	jmp    *0x30dea(%rip)        # 351e0 <_ZNSo9_M_insertIbEERSoT_@GLIBCXX_3.4.9>
    43f6:	68 3c 00 00 00       	push   $0x3c
    43fb:	e9 20 fc ff ff       	jmp    4020 <_init+0x20>

0000000000004400 <expf@plt>:
    4400:	ff 25 e2 0d 03 00    	jmp    *0x30de2(%rip)        # 351e8 <expf@GLIBC_2.27>
    4406:	68 3d 00 00 00       	push   $0x3d
    440b:	e9 10 fc ff ff       	jmp    4020 <_init+0x20>

0000000000004410 <_ZNSt9basic_iosIcSt11char_traitsIcEE5clearESt12_Ios_Iostate@plt>:
    4410:	ff 25 da 0d 03 00    	jmp    *0x30dda(%rip)        # 351f0 <_ZNSt9basic_iosIcSt11char_traitsIcEE5clearESt12_Ios_Iostate@GLIBCXX_3.4>
    4416:	68 3e 00 00 00       	push   $0x3e
    441b:	e9 00 fc ff ff       	jmp    4020 <_init+0x20>

0000000000004420 <_ZNSt6thread4joinEv@plt>:
    4420:	ff 25 d2 0d 03 00    	jmp    *0x30dd2(%rip)        # 351f8 <_ZNSt6thread4joinEv@GLIBCXX_3.4.11>
    4426:	68 3f 00 00 00       	push   $0x3f
    442b:	e9 f0 fb ff ff       	jmp    4020 <_init+0x20>

0000000000004430 <__cxa_throw@plt>:
    4430:	ff 25 ca 0d 03 00    	jmp    *0x30dca(%rip)        # 35200 <__cxa_throw@CXXABI_1.3>
    4436:	68 40 00 00 00       	push   $0x40
    443b:	e9 e0 fb ff ff       	jmp    4020 <_init+0x20>

0000000000004440 <_ZNSolsEi@plt>:
    4440:	ff 25 c2 0d 03 00    	jmp    *0x30dc2(%rip)        # 35208 <_ZNSolsEi@GLIBCXX_3.4>
    4446:	68 41 00 00 00       	push   $0x41
    444b:	e9 d0 fb ff ff       	jmp    4020 <_init+0x20>

0000000000004450 <_Unwind_Resume@plt>:
    4450:	ff 25 ba 0d 03 00    	jmp    *0x30dba(%rip)        # 35210 <_Unwind_Resume@GCC_3.0>
    4456:	68 42 00 00 00       	push   $0x42
    445b:	e9 c0 fb ff ff       	jmp    4020 <_init+0x20>

0000000000004460 <_ZNSt7__cxx1112basic_stringIcSt11char_traitsIcESaIcEE9_M_createERmm@plt>:
    4460:	ff 25 b2 0d 03 00    	jmp    *0x30db2(%rip)        # 35218 <_ZNSt7__cxx1112basic_stringIcSt11char_traitsIcESaIcEE9_M_createERmm@GLIBCXX_3.4.21>
    4466:	68 43 00 00 00       	push   $0x43
    446b:	e9 b0 fb ff ff       	jmp    4020 <_init+0x20>

0000000000004470 <_ZNSt12__basic_fileIcED1Ev@plt>:
    4470:	ff 25 aa 0d 03 00    	jmp    *0x30daa(%rip)        # 35220 <_ZNSt12__basic_fileIcED1Ev@GLIBCXX_3.4>
    4476:	68 44 00 00 00       	push   $0x44
    447b:	e9 a0 fb ff ff       	jmp    4020 <_init+0x20>

0000000000004480 <_ZNSt7__cxx1112basic_stringIcSt11char_traitsIcESaIcEE6appendEPKc@plt>:
    4480:	ff 25 a2 0d 03 00    	jmp    *0x30da2(%rip)        # 35228 <_ZNSt7__cxx1112basic_stringIcSt11char_traitsIcESaIcEE6appendEPKc@GLIBCXX_3.4.21>
    4486:	68 45 00 00 00       	push   $0x45
    448b:	e9 90 fb ff ff       	jmp    4020 <_init+0x20>

0000000000004490 <_ZNSt6localeC1Ev@plt>:
    4490:	ff 25 9a 0d 03 00    	jmp    *0x30d9a(%rip)        # 35230 <_ZNSt6localeC1Ev@GLIBCXX_3.4>
    4496:	68 46 00 00 00       	push   $0x46
    449b:	e9 80 fb ff ff       	jmp    4020 <_init+0x20>

Disassembly of section .plt.got:

00000000000044a0 <__cxa_finalize@plt>:
    44a0:	ff 25 02 0b 03 00    	jmp    *0x30b02(%rip)        # 34fa8 <__cxa_finalize@GLIBC_2.2.5>
    44a6:	66 90                	xchg   %ax,%ax

Disassembly of section .text:

00000000000044b0 <_ZNK2ML18ConvolutionalLayer15computeThreadedERKNS_9LayerDataEm.cold>:
    44b0:	48 8b bc 24 98 00 00 	mov    0x98(%rsp),%rdi
    44b7:	00 
    44b8:	48 85 ff             	test   %rdi,%rdi
    44bb:	74 23                	je     44e0 <_ZNK2ML18ConvolutionalLayer15computeThreadedERKNS_9LayerDataEm.cold+0x30>
    44bd:	48 8b 07             	mov    (%rdi),%rax
    44c0:	c5 f8 77             	vzeroupper
    44c3:	ff 50 08             	call   *0x8(%rax)
    44c6:	48 8b 44 24 28       	mov    0x28(%rsp),%rax
    44cb:	48 39 c3             	cmp    %rax,%rbx
    44ce:	74 6b                	je     453b <_ZNK2ML18ConvolutionalLayer15computeThreadedERKNS_9LayerDataEm.cold+0x8b>
    44d0:	48 83 38 00          	cmpq   $0x0,(%rax)
    44d4:	0f 85 27 78 00 00    	jne    bd01 <_ZNK2ML18ConvolutionalLayer15computeThreadedERKNS_9LayerDataEm+0x471>
    44da:	48 83 c0 08          	add    $0x8,%rax
    44de:	eb eb                	jmp    44cb <_ZNK2ML18ConvolutionalLayer15computeThreadedERKNS_9LayerDataEm.cold+0x1b>
    44e0:	c5 f8 77             	vzeroupper
    44e3:	eb e1                	jmp    44c6 <_ZNK2ML18ConvolutionalLayer15computeThreadedERKNS_9LayerDataEm.cold+0x16>
    44e5:	48 8b bc 24 98 00 00 	mov    0x98(%rsp),%rdi
    44ec:	00 
    44ed:	48 85 ff             	test   %rdi,%rdi
    44f0:	75 3e                	jne    4530 <_ZNK2ML18ConvolutionalLayer15computeThreadedERKNS_9LayerDataEm.cold+0x80>
    44f2:	c5 f8 77             	vzeroupper
    44f5:	4c 89 e7             	mov    %r12,%rdi
    44f8:	e8 13 fc ff ff       	call   4110 <__cxa_begin_catch@plt>
    44fd:	48 83 7c 24 20 00    	cmpq   $0x0,0x20(%rsp)
    4503:	74 0f                	je     4514 <_ZNK2ML18ConvolutionalLayer15computeThreadedERKNS_9LayerDataEm.cold+0x64>
    4505:	48 8b 7c 24 20       	mov    0x20(%rsp),%rdi
    450a:	e8 41 fd ff ff       	call   4250 <_ZdlPv@plt>
    450f:	e8 3c fe ff ff       	call   4350 <__cxa_rethrow@plt>
    4514:	48 8b 04 24          	mov    (%rsp),%rax
    4518:	48 83 38 00          	cmpq   $0x0,(%rax)
    451c:	74 f1                	je     450f <_ZNK2ML18ConvolutionalLayer15computeThreadedERKNS_9LayerDataEm.cold+0x5f>
    451e:	e9 de 77 00 00       	jmp    bd01 <_ZNK2ML18ConvolutionalLayer15computeThreadedERKNS_9LayerDataEm+0x471>
    4523:	49 89 c4             	mov    %rax,%r12
    4526:	c5 f8 77             	vzeroupper
    4529:	e8 b2 fe ff ff       	call   43e0 <__cxa_end_catch@plt>
    452e:	eb 96                	jmp    44c6 <_ZNK2ML18ConvolutionalLayer15computeThreadedERKNS_9LayerDataEm.cold+0x16>
    4530:	48 8b 07             	mov    (%rdi),%rax
    4533:	c5 f8 77             	vzeroupper
    4536:	ff 50 08             	call   *0x8(%rax)
    4539:	eb ba                	jmp    44f5 <_ZNK2ML18ConvolutionalLayer15computeThreadedERKNS_9LayerDataEm.cold+0x45>
    453b:	48 83 7c 24 28 00    	cmpq   $0x0,0x28(%rsp)
    4541:	74 0a                	je     454d <_ZNK2ML18ConvolutionalLayer15computeThreadedERKNS_9LayerDataEm.cold+0x9d>
    4543:	48 8b 7c 24 28       	mov    0x28(%rsp),%rdi
    4548:	e8 03 fd ff ff       	call   4250 <_ZdlPv@plt>
    454d:	4c 89 e7             	mov    %r12,%rdi
    4550:	e8 fb fe ff ff       	call   4450 <_Unwind_Resume@plt>
    4555:	90                   	nop

0000000000004556 <_ZN2ML12FlattenLayerC2ERKNS_11LayerParamsES3_.cold>:
    4556:	48 8b 7c 24 58       	mov    0x58(%rsp),%rdi
    455b:	48 85 ff             	test   %rdi,%rdi
    455e:	0f 84 a0 00 00 00    	je     4604 <_ZN2ML12FlattenLayerC2ERKNS_11LayerParamsES3_.cold+0xae>
    4564:	c5 f8 77             	vzeroupper
    4567:	e8 e4 fc ff ff       	call   4250 <_ZdlPv@plt>
    456c:	eb 17                	jmp    4585 <_ZN2ML12FlattenLayerC2ERKNS_11LayerParamsES3_.cold+0x2f>
    456e:	48 8b 7c 24 18       	mov    0x18(%rsp),%rdi
    4573:	48 85 ff             	test   %rdi,%rdi
    4576:	75 3a                	jne    45b2 <_ZN2ML12FlattenLayerC2ERKNS_11LayerParamsES3_.cold+0x5c>
    4578:	c5 f8 77             	vzeroupper
    457b:	48 8d 7c 24 50       	lea    0x50(%rsp),%rdi
    4580:	e8 6b 94 00 00       	call   d9f0 <_ZN2ML11LayerParamsD1Ev>
    4585:	48 89 df             	mov    %rbx,%rdi
    4588:	e8 c3 fe ff ff       	call   4450 <_Unwind_Resume@plt>
    458d:	48 8b 7b 10          	mov    0x10(%rbx),%rdi
    4591:	48 85 ff             	test   %rdi,%rdi
    4594:	75 12                	jne    45a8 <_ZN2ML12FlattenLayerC2ERKNS_11LayerParamsES3_.cold+0x52>
    4596:	c5 f8 77             	vzeroupper
    4599:	48 89 eb             	mov    %rbp,%rbx
    459c:	48 8d 7c 24 10       	lea    0x10(%rsp),%rdi
    45a1:	e8 4a 94 00 00       	call   d9f0 <_ZN2ML11LayerParamsD1Ev>
    45a6:	eb d3                	jmp    457b <_ZN2ML12FlattenLayerC2ERKNS_11LayerParamsES3_.cold+0x25>
    45a8:	c5 f8 77             	vzeroupper
    45ab:	e8 a0 fc ff ff       	call   4250 <_ZdlPv@plt>
    45b0:	eb e7                	jmp    4599 <_ZN2ML12FlattenLayerC2ERKNS_11LayerParamsES3_.cold+0x43>
    45b2:	c5 f8 77             	vzeroupper
    45b5:	e8 96 fc ff ff       	call   4250 <_ZdlPv@plt>
    45ba:	eb bf                	jmp    457b <_ZN2ML12FlattenLayerC2ERKNS_11LayerParamsES3_.cold+0x25>
    45bc:	48 8b bb 90 00 00 00 	mov    0x90(%rbx),%rdi
    45c3:	48 85 ff             	test   %rdi,%rdi
    45c6:	74 1f                	je     45e7 <_ZN2ML12FlattenLayerC2ERKNS_11LayerParamsES3_.cold+0x91>
    45c8:	c5 f8 77             	vzeroupper
    45cb:	e8 80 fc ff ff       	call   4250 <_ZdlPv@plt>
    45d0:	48 8d 7b 48          	lea    0x48(%rbx),%rdi
    45d4:	e8 17 94 00 00       	call   d9f0 <_ZN2ML11LayerParamsD1Ev>
    45d9:	48 8d 7b 08          	lea    0x8(%rbx),%rdi
    45dd:	48 89 eb             	mov    %rbp,%rbx
    45e0:	e8 0b 94 00 00       	call   d9f0 <_ZN2ML11LayerParamsD1Ev>
    45e5:	eb b5                	jmp    459c <_ZN2ML12FlattenLayerC2ERKNS_11LayerParamsES3_.cold+0x46>
    45e7:	c5 f8 77             	vzeroupper
    45ea:	eb e4                	jmp    45d0 <_ZN2ML12FlattenLayerC2ERKNS_11LayerParamsES3_.cold+0x7a>
    45ec:	48 8b 7b 50          	mov    0x50(%rbx),%rdi
    45f0:	48 85 ff             	test   %rdi,%rdi
    45f3:	74 0a                	je     45ff <_ZN2ML12FlattenLayerC2ERKNS_11LayerParamsES3_.cold+0xa9>
    45f5:	c5 f8 77             	vzeroupper
    45f8:	e8 53 fc ff ff       	call   4250 <_ZdlPv@plt>
    45fd:	eb da                	jmp    45d9 <_ZN2ML12FlattenLayerC2ERKNS_11LayerParamsES3_.cold+0x83>
    45ff:	c5 f8 77             	vzeroupper
    4602:	eb d5                	jmp    45d9 <_ZN2ML12FlattenLayerC2ERKNS_11LayerParamsES3_.cold+0x83>
    4604:	c5 f8 77             	vzeroupper
    4607:	e9 79 ff ff ff       	jmp    4585 <_ZN2ML12FlattenLayerC2ERKNS_11LayerParamsES3_.cold+0x2f>

000000000000460c <_ZNK2ML11LayerParams12isCompatibleERKS0_.cold>:
    460c:	bf 10 00 00 00       	mov    $0x10,%edi
    4611:	e8 3a fb ff ff       	call   4150 <__cxa_allocate_exception@plt>
    4616:	48 8d 35 8b 6b 02 00 	lea    0x26b8b(%rip),%rsi        # 2b1a8 <_ZTSN2ML12FlattenLayerE+0x18>
    461d:	48 89 c7             	mov    %rax,%rdi
    4620:	48 89 c3             	mov    %rax,%rbx
    4623:	e8 d8 fa ff ff       	call   4100 <_ZNSt13runtime_errorC1EPKc@plt>
    4628:	48 8b 15 89 09 03 00 	mov    0x30989(%rip),%rdx        # 34fb8 <_ZNSt13runtime_errorD1Ev@GLIBCXX_3.4>
    462f:	48 8d 35 ca 05 03 00 	lea    0x305ca(%rip),%rsi        # 34c00 <_ZTISt13runtime_error@GLIBCXX_3.4>
    4636:	48 89 df             	mov    %rbx,%rdi
    4639:	e8 f2 fd ff ff       	call   4430 <__cxa_throw@plt>
    463e:	bf 10 00 00 00       	mov    $0x10,%edi
    4643:	e8 08 fb ff ff       	call   4150 <__cxa_allocate_exception@plt>
    4648:	48 8d 35 a9 6b 02 00 	lea    0x26ba9(%rip),%rsi        # 2b1f8 <_ZTSN2ML12FlattenLayerE+0x68>
    464f:	48 89 c7             	mov    %rax,%rdi
    4652:	48 89 c3             	mov    %rax,%rbx
    4655:	e8 a6 fa ff ff       	call   4100 <_ZNSt13runtime_errorC1EPKc@plt>
    465a:	48 8b 15 57 09 03 00 	mov    0x30957(%rip),%rdx        # 34fb8 <_ZNSt13runtime_errorD1Ev@GLIBCXX_3.4>
    4661:	48 8d 35 98 05 03 00 	lea    0x30598(%rip),%rsi        # 34c00 <_ZTISt13runtime_error@GLIBCXX_3.4>
    4668:	48 89 df             	mov    %rbx,%rdi
    466b:	e8 c0 fd ff ff       	call   4430 <__cxa_throw@plt>
    4670:	bf 10 00 00 00       	mov    $0x10,%edi
    4675:	e8 d6 fa ff ff       	call   4150 <__cxa_allocate_exception@plt>
    467a:	48 8d 35 4f 6b 02 00 	lea    0x26b4f(%rip),%rsi        # 2b1d0 <_ZTSN2ML12FlattenLayerE+0x40>
    4681:	48 89 c7             	mov    %rax,%rdi
    4684:	48 89 c3             	mov    %rax,%rbx
    4687:	e8 74 fa ff ff       	call   4100 <_ZNSt13runtime_errorC1EPKc@plt>
    468c:	48 8b 15 25 09 03 00 	mov    0x30925(%rip),%rdx        # 34fb8 <_ZNSt13runtime_errorD1Ev@GLIBCXX_3.4>
    4693:	48 8d 35 66 05 03 00 	lea    0x30566(%rip),%rsi        # 34c00 <_ZTISt13runtime_error@GLIBCXX_3.4>
    469a:	48 89 df             	mov    %rbx,%rdi
    469d:	e8 8e fd ff ff       	call   4430 <__cxa_throw@plt>
    46a2:	48 89 c5             	mov    %rax,%rbp
    46a5:	48 89 df             	mov    %rbx,%rdi
    46a8:	c5 f8 77             	vzeroupper
    46ab:	e8 30 fb ff ff       	call   41e0 <__cxa_free_exception@plt>
    46b0:	48 89 ef             	mov    %rbp,%rdi
    46b3:	e8 98 fd ff ff       	call   4450 <_Unwind_Resume@plt>
    46b8:	48 89 c5             	mov    %rax,%rbp
    46bb:	48 89 df             	mov    %rbx,%rdi
    46be:	c5 f8 77             	vzeroupper
    46c1:	e8 1a fb ff ff       	call   41e0 <__cxa_free_exception@plt>
    46c6:	48 89 ef             	mov    %rbp,%rdi
    46c9:	e8 82 fd ff ff       	call   4450 <_Unwind_Resume@plt>
    46ce:	48 89 c5             	mov    %rax,%rbp
    46d1:	48 89 df             	mov    %rbx,%rdi
    46d4:	c5 f8 77             	vzeroupper
    46d7:	e8 04 fb ff ff       	call   41e0 <__cxa_free_exception@plt>
    46dc:	48 89 ef             	mov    %rbp,%rdi
    46df:	e8 6c fd ff ff       	call   4450 <_Unwind_Resume@plt>

00000000000046e4 <_ZNK2ML5Layer27checkDataInputCompatibilityERKNS_9LayerDataE.cold>:
    46e4:	bf 10 00 00 00       	mov    $0x10,%edi
    46e9:	e8 62 fa ff ff       	call   4150 <__cxa_allocate_exception@plt>
    46ee:	48 8d 35 b3 6a 02 00 	lea    0x26ab3(%rip),%rsi        # 2b1a8 <_ZTSN2ML12FlattenLayerE+0x18>
    46f5:	48 89 c7             	mov    %rax,%rdi
    46f8:	48 89 c3             	mov    %rax,%rbx
    46fb:	e8 00 fa ff ff       	call   4100 <_ZNSt13runtime_errorC1EPKc@plt>
    4700:	48 8b 15 b1 08 03 00 	mov    0x308b1(%rip),%rdx        # 34fb8 <_ZNSt13runtime_errorD1Ev@GLIBCXX_3.4>
    4707:	48 8d 35 f2 04 03 00 	lea    0x304f2(%rip),%rsi        # 34c00 <_ZTISt13runtime_error@GLIBCXX_3.4>
    470e:	48 89 df             	mov    %rbx,%rdi
    4711:	e8 1a fd ff ff       	call   4430 <__cxa_throw@plt>
    4716:	bf 10 00 00 00       	mov    $0x10,%edi
    471b:	e8 30 fa ff ff       	call   4150 <__cxa_allocate_exception@plt>
    4720:	48 8d 35 d1 6a 02 00 	lea    0x26ad1(%rip),%rsi        # 2b1f8 <_ZTSN2ML12FlattenLayerE+0x68>
    4727:	48 89 c7             	mov    %rax,%rdi
    472a:	48 89 c3             	mov    %rax,%rbx
    472d:	e8 ce f9 ff ff       	call   4100 <_ZNSt13runtime_errorC1EPKc@plt>
    4732:	48 8b 15 7f 08 03 00 	mov    0x3087f(%rip),%rdx        # 34fb8 <_ZNSt13runtime_errorD1Ev@GLIBCXX_3.4>
    4739:	48 8d 35 c0 04 03 00 	lea    0x304c0(%rip),%rsi        # 34c00 <_ZTISt13runtime_error@GLIBCXX_3.4>
    4740:	48 89 df             	mov    %rbx,%rdi
    4743:	e8 e8 fc ff ff       	call   4430 <__cxa_throw@plt>
    4748:	bf 10 00 00 00       	mov    $0x10,%edi
    474d:	e8 fe f9 ff ff       	call   4150 <__cxa_allocate_exception@plt>
    4752:	48 8d 35 77 6a 02 00 	lea    0x26a77(%rip),%rsi        # 2b1d0 <_ZTSN2ML12FlattenLayerE+0x40>
    4759:	48 89 c7             	mov    %rax,%rdi
    475c:	48 89 c3             	mov    %rax,%rbx
    475f:	e8 9c f9 ff ff       	call   4100 <_ZNSt13runtime_errorC1EPKc@plt>
    4764:	48 8b 15 4d 08 03 00 	mov    0x3084d(%rip),%rdx        # 34fb8 <_ZNSt13runtime_errorD1Ev@GLIBCXX_3.4>
    476b:	48 8d 35 8e 04 03 00 	lea    0x3048e(%rip),%rsi        # 34c00 <_ZTISt13runtime_error@GLIBCXX_3.4>
    4772:	48 89 df             	mov    %rbx,%rdi
    4775:	e8 b6 fc ff ff       	call   4430 <__cxa_throw@plt>
    477a:	48 89 c5             	mov    %rax,%rbp
    477d:	48 89 df             	mov    %rbx,%rdi
    4780:	c5 f8 77             	vzeroupper
    4783:	e8 58 fa ff ff       	call   41e0 <__cxa_free_exception@plt>
    4788:	48 89 ef             	mov    %rbp,%rdi
    478b:	e8 c0 fc ff ff       	call   4450 <_Unwind_Resume@plt>
    4790:	48 89 c5             	mov    %rax,%rbp
    4793:	48 89 df             	mov    %rbx,%rdi
    4796:	c5 f8 77             	vzeroupper
    4799:	e8 42 fa ff ff       	call   41e0 <__cxa_free_exception@plt>
    479e:	48 89 ef             	mov    %rbp,%rdi
    47a1:	e8 aa fc ff ff       	call   4450 <_Unwind_Resume@plt>
    47a6:	48 89 c5             	mov    %rax,%rbp
    47a9:	48 89 df             	mov    %rbx,%rdi
    47ac:	c5 f8 77             	vzeroupper
    47af:	e8 2c fa ff ff       	call   41e0 <__cxa_free_exception@plt>
    47b4:	48 89 ef             	mov    %rbp,%rdi
    47b7:	e8 94 fc ff ff       	call   4450 <_Unwind_Resume@plt>

00000000000047bc <_ZN2ML15MaxPoolingLayerC2ERKNS_11LayerParamsES3_.cold>:
    47bc:	48 8b 7c 24 58       	mov    0x58(%rsp),%rdi
    47c1:	48 85 ff             	test   %rdi,%rdi
    47c4:	0f 84 a0 00 00 00    	je     486a <_ZN2ML15MaxPoolingLayerC2ERKNS_11LayerParamsES3_.cold+0xae>
    47ca:	c5 f8 77             	vzeroupper
    47cd:	e8 7e fa ff ff       	call   4250 <_ZdlPv@plt>
    47d2:	eb 17                	jmp    47eb <_ZN2ML15MaxPoolingLayerC2ERKNS_11LayerParamsES3_.cold+0x2f>
    47d4:	48 8b 7c 24 18       	mov    0x18(%rsp),%rdi
    47d9:	48 85 ff             	test   %rdi,%rdi
    47dc:	75 3a                	jne    4818 <_ZN2ML15MaxPoolingLayerC2ERKNS_11LayerParamsES3_.cold+0x5c>
    47de:	c5 f8 77             	vzeroupper
    47e1:	48 8d 7c 24 50       	lea    0x50(%rsp),%rdi
    47e6:	e8 05 92 00 00       	call   d9f0 <_ZN2ML11LayerParamsD1Ev>
    47eb:	48 89 df             	mov    %rbx,%rdi
    47ee:	e8 5d fc ff ff       	call   4450 <_Unwind_Resume@plt>
    47f3:	48 8b 7b 10          	mov    0x10(%rbx),%rdi
    47f7:	48 85 ff             	test   %rdi,%rdi
    47fa:	75 12                	jne    480e <_ZN2ML15MaxPoolingLayerC2ERKNS_11LayerParamsES3_.cold+0x52>
    47fc:	c5 f8 77             	vzeroupper
    47ff:	48 89 eb             	mov    %rbp,%rbx
    4802:	48 8d 7c 24 10       	lea    0x10(%rsp),%rdi
    4807:	e8 e4 91 00 00       	call   d9f0 <_ZN2ML11LayerParamsD1Ev>
    480c:	eb d3                	jmp    47e1 <_ZN2ML15MaxPoolingLayerC2ERKNS_11LayerParamsES3_.cold+0x25>
    480e:	c5 f8 77             	vzeroupper
    4811:	e8 3a fa ff ff       	call   4250 <_ZdlPv@plt>
    4816:	eb e7                	jmp    47ff <_ZN2ML15MaxPoolingLayerC2ERKNS_11LayerParamsES3_.cold+0x43>
    4818:	c5 f8 77             	vzeroupper
    481b:	e8 30 fa ff ff       	call   4250 <_ZdlPv@plt>
    4820:	eb bf                	jmp    47e1 <_ZN2ML15MaxPoolingLayerC2ERKNS_11LayerParamsES3_.cold+0x25>
    4822:	48 8b bb 90 00 00 00 	mov    0x90(%rbx),%rdi
    4829:	48 85 ff             	test   %rdi,%rdi
    482c:	74 1f                	je     484d <_ZN2ML15MaxPoolingLayerC2ERKNS_11LayerParamsES3_.cold+0x91>
    482e:	c5 f8 77             	vzeroupper
    4831:	e8 1a fa ff ff       	call   4250 <_ZdlPv@plt>
    4836:	48 8d 7b 48          	lea    0x48(%rbx),%rdi
    483a:	e8 b1 91 00 00       	call   d9f0 <_ZN2ML11LayerParamsD1Ev>
    483f:	48 8d 7b 08          	lea    0x8(%rbx),%rdi
    4843:	48 89 eb             	mov    %rbp,%rbx
    4846:	e8 a5 91 00 00       	call   d9f0 <_ZN2ML11LayerParamsD1Ev>
    484b:	eb b5                	jmp    4802 <_ZN2ML15MaxPoolingLayerC2ERKNS_11LayerParamsES3_.cold+0x46>
    484d:	c5 f8 77             	vzeroupper
    4850:	eb e4                	jmp    4836 <_ZN2ML15MaxPoolingLayerC2ERKNS_11LayerParamsES3_.cold+0x7a>
    4852:	48 8b 7b 50          	mov    0x50(%rbx),%rdi
    4856:	48 85 ff             	test   %rdi,%rdi
    4859:	74 0a                	je     4865 <_ZN2ML15MaxPoolingLayerC2ERKNS_11LayerParamsES3_.cold+0xa9>
    485b:	c5 f8 77             	vzeroupper
    485e:	e8 ed f9 ff ff       	call   4250 <_ZdlPv@plt>
    4863:	eb da                	jmp    483f <_ZN2ML15MaxPoolingLayerC2ERKNS_11LayerParamsES3_.cold+0x83>
    4865:	c5 f8 77             	vzeroupper
    4868:	eb d5                	jmp    483f <_ZN2ML15MaxPoolingLayerC2ERKNS_11LayerParamsES3_.cold+0x83>
    486a:	c5 f8 77             	vzeroupper
    486d:	e9 79 ff ff ff       	jmp    47eb <_ZN2ML15MaxPoolingLayerC2ERKNS_11LayerParamsES3_.cold+0x2f>

0000000000004872 <_ZN2ML12SoftmaxLayerC2ERKNS_11LayerParamsES3_.cold>:
    4872:	48 8b 7c 24 58       	mov    0x58(%rsp),%rdi
    4877:	48 85 ff             	test   %rdi,%rdi
    487a:	0f 84 a0 00 00 00    	je     4920 <_ZN2ML12SoftmaxLayerC2ERKNS_11LayerParamsES3_.cold+0xae>
    4880:	c5 f8 77             	vzeroupper
    4883:	e8 c8 f9 ff ff       	call   4250 <_ZdlPv@plt>
    4888:	eb 17                	jmp    48a1 <_ZN2ML12SoftmaxLayerC2ERKNS_11LayerParamsES3_.cold+0x2f>
    488a:	48 8b 7c 24 18       	mov    0x18(%rsp),%rdi
    488f:	48 85 ff             	test   %rdi,%rdi
    4892:	75 3a                	jne    48ce <_ZN2ML12SoftmaxLayerC2ERKNS_11LayerParamsES3_.cold+0x5c>
    4894:	c5 f8 77             	vzeroupper
    4897:	48 8d 7c 24 50       	lea    0x50(%rsp),%rdi
    489c:	e8 4f 91 00 00       	call   d9f0 <_ZN2ML11LayerParamsD1Ev>
    48a1:	48 89 df             	mov    %rbx,%rdi
    48a4:	e8 a7 fb ff ff       	call   4450 <_Unwind_Resume@plt>
    48a9:	48 8b 7b 10          	mov    0x10(%rbx),%rdi
    48ad:	48 85 ff             	test   %rdi,%rdi
    48b0:	75 12                	jne    48c4 <_ZN2ML12SoftmaxLayerC2ERKNS_11LayerParamsES3_.cold+0x52>
    48b2:	c5 f8 77             	vzeroupper
    48b5:	48 89 eb             	mov    %rbp,%rbx
    48b8:	48 8d 7c 24 10       	lea    0x10(%rsp),%rdi
    48bd:	e8 2e 91 00 00       	call   d9f0 <_ZN2ML11LayerParamsD1Ev>
    48c2:	eb d3                	jmp    4897 <_ZN2ML12SoftmaxLayerC2ERKNS_11LayerParamsES3_.cold+0x25>
    48c4:	c5 f8 77             	vzeroupper
    48c7:	e8 84 f9 ff ff       	call   4250 <_ZdlPv@plt>
    48cc:	eb e7                	jmp    48b5 <_ZN2ML12SoftmaxLayerC2ERKNS_11LayerParamsES3_.cold+0x43>
    48ce:	c5 f8 77             	vzeroupper
    48d1:	e8 7a f9 ff ff       	call   4250 <_ZdlPv@plt>
    48d6:	eb bf                	jmp    4897 <_ZN2ML12SoftmaxLayerC2ERKNS_11LayerParamsES3_.cold+0x25>
    48d8:	48 8b bb 90 00 00 00 	mov    0x90(%rbx),%rdi
    48df:	48 85 ff             	test   %rdi,%rdi
    48e2:	74 1f                	je     4903 <_ZN2ML12SoftmaxLayerC2ERKNS_11LayerParamsES3_.cold+0x91>
    48e4:	c5 f8 77             	vzeroupper
    48e7:	e8 64 f9 ff ff       	call   4250 <_ZdlPv@plt>
    48ec:	48 8d 7b 48          	lea    0x48(%rbx),%rdi
    48f0:	e8 fb 90 00 00       	call   d9f0 <_ZN2ML11LayerParamsD1Ev>
    48f5:	48 8d 7b 08          	lea    0x8(%rbx),%rdi
    48f9:	48 89 eb             	mov    %rbp,%rbx
    48fc:	e8 ef 90 00 00       	call   d9f0 <_ZN2ML11LayerParamsD1Ev>
    4901:	eb b5                	jmp    48b8 <_ZN2ML12SoftmaxLayerC2ERKNS_11LayerParamsES3_.cold+0x46>
    4903:	c5 f8 77             	vzeroupper
    4906:	eb e4                	jmp    48ec <_ZN2ML12SoftmaxLayerC2ERKNS_11LayerParamsES3_.cold+0x7a>
    4908:	48 8b 7b 50          	mov    0x50(%rbx),%rdi
    490c:	48 85 ff             	test   %rdi,%rdi
    490f:	74 0a                	je     491b <_ZN2ML12SoftmaxLayerC2ERKNS_11LayerParamsES3_.cold+0xa9>
    4911:	c5 f8 77             	vzeroupper
    4914:	e8 37 f9 ff ff       	call   4250 <_ZdlPv@plt>
    4919:	eb da                	jmp    48f5 <_ZN2ML12SoftmaxLayerC2ERKNS_11LayerParamsES3_.cold+0x83>
    491b:	c5 f8 77             	vzeroupper
    491e:	eb d5                	jmp    48f5 <_ZN2ML12SoftmaxLayerC2ERKNS_11LayerParamsES3_.cold+0x83>
    4920:	c5 f8 77             	vzeroupper
    4923:	e9 79 ff ff ff       	jmp    48a1 <_ZN2ML12SoftmaxLayerC2ERKNS_11LayerParamsES3_.cold+0x2f>

0000000000004928 <_ZN2ML9LayerData9allocDataEv.part.0.cold>:
    4928:	e8 13 fa ff ff       	call   4340 <__cxa_throw_bad_array_new_length@plt>
    492d:	90                   	nop

000000000000492e <_ZNSt6vectorImSaImEEC2ESt16initializer_listImERKS0_.constprop.3.cold>:
    492e:	48 8b 3b             	mov    (%rbx),%rdi
    4931:	48 85 ff             	test   %rdi,%rdi
    4934:	74 10                	je     4946 <_ZNSt6vectorImSaImEEC2ESt16initializer_listImERKS0_.constprop.3.cold+0x18>
    4936:	c5 f8 77             	vzeroupper
    4939:	e8 12 f9 ff ff       	call   4250 <_ZdlPv@plt>
    493e:	48 89 ef             	mov    %rbp,%rdi
    4941:	e8 0a fb ff ff       	call   4450 <_Unwind_Resume@plt>
    4946:	c5 f8 77             	vzeroupper
    4949:	eb f3                	jmp    493e <_ZNSt6vectorImSaImEEC2ESt16initializer_listImERKS0_.constprop.3.cold+0x10>
    494b:	90                   	nop

000000000000494c <_ZNSt6vectorImSaImEEC2ESt16initializer_listImERKS0_.constprop.2.cold>:
    494c:	48 8b 3b             	mov    (%rbx),%rdi
    494f:	48 85 ff             	test   %rdi,%rdi
    4952:	74 10                	je     4964 <_ZNSt6vectorImSaImEEC2ESt16initializer_listImERKS0_.constprop.2.cold+0x18>
    4954:	c5 f8 77             	vzeroupper
    4957:	e8 f4 f8 ff ff       	call   4250 <_ZdlPv@plt>
    495c:	48 89 ef             	mov    %rbp,%rdi
    495f:	e8 ec fa ff ff       	call   4450 <_Unwind_Resume@plt>
    4964:	c5 f8 77             	vzeroupper
    4967:	eb f3                	jmp    495c <_ZNSt6vectorImSaImEEC2ESt16initializer_listImERKS0_.constprop.2.cold+0x10>
    4969:	90                   	nop

000000000000496a <_ZNSt6vectorImSaImEEC2ESt16initializer_listImERKS0_.constprop.1.cold>:
    496a:	48 8b 3b             	mov    (%rbx),%rdi
    496d:	48 85 ff             	test   %rdi,%rdi
    4970:	74 10                	je     4982 <_ZNSt6vectorImSaImEEC2ESt16initializer_listImERKS0_.constprop.1.cold+0x18>
    4972:	c5 f8 77             	vzeroupper
    4975:	e8 d6 f8 ff ff       	call   4250 <_ZdlPv@plt>
    497a:	48 89 ef             	mov    %rbp,%rdi
    497d:	e8 ce fa ff ff       	call   4450 <_Unwind_Resume@plt>
    4982:	c5 f8 77             	vzeroupper
    4985:	eb f3                	jmp    497a <_ZNSt6vectorImSaImEEC2ESt16initializer_listImERKS0_.constprop.1.cold+0x10>
    4987:	90                   	nop

0000000000004988 <_ZNSt6vectorImSaImEEC2ESt16initializer_listImERKS0_.constprop.0.cold>:
    4988:	48 8b 3b             	mov    (%rbx),%rdi
    498b:	48 85 ff             	test   %rdi,%rdi
    498e:	74 10                	je     49a0 <_ZNSt6vectorImSaImEEC2ESt16initializer_listImERKS0_.constprop.0.cold+0x18>
    4990:	c5 f8 77             	vzeroupper
    4993:	e8 b8 f8 ff ff       	call   4250 <_ZdlPv@plt>
    4998:	48 89 ef             	mov    %rbp,%rdi
    499b:	e8 b0 fa ff ff       	call   4450 <_Unwind_Resume@plt>
    49a0:	c5 f8 77             	vzeroupper
    49a3:	eb f3                	jmp    4998 <_ZNSt6vectorImSaImEEC2ESt16initializer_listImERKS0_.constprop.0.cold+0x10>
    49a5:	90                   	nop

00000000000049a6 <_ZN2ML11LayerParamsC2EmSt6vectorImSaImEENS_4PathE.constprop.2.cold>:
    49a6:	48 8b 7b 08          	mov    0x8(%rbx),%rdi
    49aa:	48 85 ff             	test   %rdi,%rdi
    49ad:	74 10                	je     49bf <_ZN2ML11LayerParamsC2EmSt6vectorImSaImEENS_4PathE.constprop.2.cold+0x19>
    49af:	c5 f8 77             	vzeroupper
    49b2:	e8 99 f8 ff ff       	call   4250 <_ZdlPv@plt>
    49b7:	48 89 ef             	mov    %rbp,%rdi
    49ba:	e8 91 fa ff ff       	call   4450 <_Unwind_Resume@plt>
    49bf:	c5 f8 77             	vzeroupper
    49c2:	eb f3                	jmp    49b7 <_ZN2ML11LayerParamsC2EmSt6vectorImSaImEENS_4PathE.constprop.2.cold+0x11>

00000000000049c4 <_ZN2ML11LayerParamsC2EmSt6vectorImSaImEENS_4PathE.constprop.0.cold>:
    49c4:	48 8b 7b 08          	mov    0x8(%rbx),%rdi
    49c8:	48 85 ff             	test   %rdi,%rdi
    49cb:	74 10                	je     49dd <_ZN2ML11LayerParamsC2EmSt6vectorImSaImEENS_4PathE.constprop.0.cold+0x19>
    49cd:	c5 f8 77             	vzeroupper
    49d0:	e8 7b f8 ff ff       	call   4250 <_ZdlPv@plt>
    49d5:	48 89 ef             	mov    %rbp,%rdi
    49d8:	e8 73 fa ff ff       	call   4450 <_Unwind_Resume@plt>
    49dd:	c5 f8 77             	vzeroupper
    49e0:	eb f3                	jmp    49d5 <_ZN2ML11LayerParamsC2EmSt6vectorImSaImEENS_4PathE.constprop.0.cold+0x11>

00000000000049e2 <_ZN2ML11LayerParamsC2EmSt6vectorImSaImEENS_4PathE.constprop.1.cold>:
    49e2:	48 8b 7b 08          	mov    0x8(%rbx),%rdi
    49e6:	48 85 ff             	test   %rdi,%rdi
    49e9:	74 10                	je     49fb <_ZN2ML11LayerParamsC2EmSt6vectorImSaImEENS_4PathE.constprop.1.cold+0x19>
    49eb:	c5 f8 77             	vzeroupper
    49ee:	e8 5d f8 ff ff       	call   4250 <_ZdlPv@plt>
    49f3:	48 89 ef             	mov    %rbp,%rdi
    49f6:	e8 55 fa ff ff       	call   4450 <_Unwind_Resume@plt>
    49fb:	c5 f8 77             	vzeroupper
    49fe:	eb f3                	jmp    49f3 <_ZN2ML11LayerParamsC2EmSt6vectorImSaImEENS_4PathE.constprop.1.cold+0x11>

0000000000004a00 <_ZN2ML11LayerParamsC2EmSt6vectorImSaImEE.constprop.0.cold>:
    4a00:	4d 85 ed             	test   %r13,%r13
    4a03:	74 22                	je     4a27 <_ZN2ML11LayerParamsC2EmSt6vectorImSaImEE.constprop.0.cold+0x27>
    4a05:	4c 89 ef             	mov    %r13,%rdi
    4a08:	c5 f8 77             	vzeroupper
    4a0b:	e8 40 f8 ff ff       	call   4250 <_ZdlPv@plt>
    4a10:	48 8b 7c 24 20       	mov    0x20(%rsp),%rdi
    4a15:	4c 39 e7             	cmp    %r12,%rdi
    4a18:	74 05                	je     4a1f <_ZN2ML11LayerParamsC2EmSt6vectorImSaImEE.constprop.0.cold+0x1f>
    4a1a:	e8 31 f8 ff ff       	call   4250 <_ZdlPv@plt>
    4a1f:	48 89 df             	mov    %rbx,%rdi
    4a22:	e8 29 fa ff ff       	call   4450 <_Unwind_Resume@plt>
    4a27:	c5 f8 77             	vzeroupper
    4a2a:	eb e4                	jmp    4a10 <_ZN2ML11LayerParamsC2EmSt6vectorImSaImEE.constprop.0.cold+0x10>

0000000000004a2c <_ZN2ML11LayerParamsC2EmSt6vectorImSaImEE.constprop.1.cold>:
    4a2c:	4d 85 ed             	test   %r13,%r13
    4a2f:	74 22                	je     4a53 <_ZN2ML11LayerParamsC2EmSt6vectorImSaImEE.constprop.1.cold+0x27>
    4a31:	4c 89 ef             	mov    %r13,%rdi
    4a34:	c5 f8 77             	vzeroupper
    4a37:	e8 14 f8 ff ff       	call   4250 <_ZdlPv@plt>
    4a3c:	48 8b 7c 24 20       	mov    0x20(%rsp),%rdi
    4a41:	4c 39 e7             	cmp    %r12,%rdi
    4a44:	74 05                	je     4a4b <_ZN2ML11LayerParamsC2EmSt6vectorImSaImEE.constprop.1.cold+0x1f>
    4a46:	e8 05 f8 ff ff       	call   4250 <_ZdlPv@plt>
    4a4b:	48 89 df             	mov    %rbx,%rdi
    4a4e:	e8 fd f9 ff ff       	call   4450 <_Unwind_Resume@plt>
    4a53:	c5 f8 77             	vzeroupper
    4a56:	eb e4                	jmp    4a3c <_ZN2ML11LayerParamsC2EmSt6vectorImSaImEE.constprop.1.cold+0x10>

0000000000004a58 <_ZN2ML17getLayerInputPathERKNS_4PathEi.cold>:
    4a58:	48 8b 7c 24 40       	mov    0x40(%rsp),%rdi
    4a5d:	4c 39 ef             	cmp    %r13,%rdi
    4a60:	75 4c                	jne    4aae <_ZN2ML17getLayerInputPathERKNS_4PathEi.cold+0x56>
    4a62:	c5 f8 77             	vzeroupper
    4a65:	48 8b 7c 24 20       	mov    0x20(%rsp),%rdi
    4a6a:	48 8d 44 24 30       	lea    0x30(%rsp),%rax
    4a6f:	48 39 c7             	cmp    %rax,%rdi
    4a72:	74 05                	je     4a79 <_ZN2ML17getLayerInputPathERKNS_4PathEi.cold+0x21>
    4a74:	e8 d7 f7 ff ff       	call   4250 <_ZdlPv@plt>
    4a79:	48 89 df             	mov    %rbx,%rdi
    4a7c:	e8 cf f9 ff ff       	call   4450 <_Unwind_Resume@plt>
    4a81:	48 8b 7c 24 40       	mov    0x40(%rsp),%rdi
    4a86:	4c 39 ef             	cmp    %r13,%rdi
    4a89:	74 2d                	je     4ab8 <_ZN2ML17getLayerInputPathERKNS_4PathEi.cold+0x60>
    4a8b:	c5 f8 77             	vzeroupper
    4a8e:	e8 bd f7 ff ff       	call   4250 <_ZdlPv@plt>
    4a93:	48 8b 3c 24          	mov    (%rsp),%rdi
    4a97:	48 8d 44 24 10       	lea    0x10(%rsp),%rax
    4a9c:	48 39 c7             	cmp    %rax,%rdi
    4a9f:	74 05                	je     4aa6 <_ZN2ML17getLayerInputPathERKNS_4PathEi.cold+0x4e>
    4aa1:	e8 aa f7 ff ff       	call   4250 <_ZdlPv@plt>
    4aa6:	48 89 df             	mov    %rbx,%rdi
    4aa9:	e8 a2 f9 ff ff       	call   4450 <_Unwind_Resume@plt>
    4aae:	c5 f8 77             	vzeroupper
    4ab1:	e8 9a f7 ff ff       	call   4250 <_ZdlPv@plt>
    4ab6:	eb ad                	jmp    4a65 <_ZN2ML17getLayerInputPathERKNS_4PathEi.cold+0xd>
    4ab8:	c5 f8 77             	vzeroupper
    4abb:	eb d6                	jmp    4a93 <_ZN2ML17getLayerInputPathERKNS_4PathEi.cold+0x3b>

0000000000004abd <_ZN2ML15buildMixedModelEv.cold>:
    4abd:	4c 89 f7             	mov    %r14,%rdi
    4ac0:	c5 f8 77             	vzeroupper
    4ac3:	4d 89 fe             	mov    %r15,%r14
    4ac6:	e8 25 8f 00 00       	call   d9f0 <_ZN2ML11LayerParamsD1Ev>
    4acb:	48 8b bc 24 c0 00 00 	mov    0xc0(%rsp),%rdi
    4ad2:	00 
    4ad3:	48 85 ff             	test   %rdi,%rdi
    4ad6:	74 05                	je     4add <_ZN2ML15buildMixedModelEv.cold+0x20>
    4ad8:	e8 73 f7 ff ff       	call   4250 <_ZdlPv@plt>
    4add:	48 89 df             	mov    %rbx,%rdi
    4ae0:	4c 89 f3             	mov    %r14,%rbx
    4ae3:	e8 08 8f 00 00       	call   d9f0 <_ZN2ML11LayerParamsD1Ev>
    4ae8:	48 8b bc 24 00 01 00 	mov    0x100(%rsp),%rdi
    4aef:	00 
    4af0:	48 85 ff             	test   %rdi,%rdi
    4af3:	75 6f                	jne    4b64 <_ZN2ML15buildMixedModelEv.cold+0xa7>
    4af5:	4c 89 e7             	mov    %r12,%rdi
    4af8:	e8 f3 8e 00 00       	call   d9f0 <_ZN2ML11LayerParamsD1Ev>
    4afd:	48 8b bc 24 80 01 00 	mov    0x180(%rsp),%rdi
    4b04:	00 
    4b05:	48 8b 44 24 48       	mov    0x48(%rsp),%rax
    4b0a:	48 39 c7             	cmp    %rax,%rdi
    4b0d:	74 05                	je     4b14 <_ZN2ML15buildMixedModelEv.cold+0x57>
    4b0f:	e8 3c f7 ff ff       	call   4250 <_ZdlPv@plt>
    4b14:	48 8b bc 24 20 01 00 	mov    0x120(%rsp),%rdi
    4b1b:	00 
    4b1c:	48 85 ff             	test   %rdi,%rdi
    4b1f:	75 4a                	jne    4b6b <_ZN2ML15buildMixedModelEv.cold+0xae>
    4b21:	4c 89 ef             	mov    %r13,%rdi
    4b24:	e8 c7 8e 00 00       	call   d9f0 <_ZN2ML11LayerParamsD1Ev>
    4b29:	48 8b bc 24 a0 01 00 	mov    0x1a0(%rsp),%rdi
    4b30:	00 
    4b31:	48 8b 44 24 40       	mov    0x40(%rsp),%rax
    4b36:	48 39 c7             	cmp    %rax,%rdi
    4b39:	74 05                	je     4b40 <_ZN2ML15buildMixedModelEv.cold+0x83>
    4b3b:	e8 10 f7 ff ff       	call   4250 <_ZdlPv@plt>
    4b40:	48 8b bc 24 40 01 00 	mov    0x140(%rsp),%rdi
    4b47:	00 
    4b48:	48 85 ff             	test   %rdi,%rdi
    4b4b:	74 05                	je     4b52 <_ZN2ML15buildMixedModelEv.cold+0x95>
    4b4d:	e8 fe f6 ff ff       	call   4250 <_ZdlPv@plt>
    4b52:	48 8b 7c 24 78       	mov    0x78(%rsp),%rdi
    4b57:	e8 44 41 02 00       	call   28ca0 <_ZNSt6vectorISt10unique_ptrIN2ML5LayerESt14default_deleteIS2_EESaIS5_EED1Ev>
    4b5c:	48 89 df             	mov    %rbx,%rdi
    4b5f:	e8 ec f8 ff ff       	call   4450 <_Unwind_Resume@plt>
    4b64:	e8 e7 f6 ff ff       	call   4250 <_ZdlPv@plt>
    4b69:	eb 8a                	jmp    4af5 <_ZN2ML15buildMixedModelEv.cold+0x38>
    4b6b:	e8 e0 f6 ff ff       	call   4250 <_ZdlPv@plt>
    4b70:	eb af                	jmp    4b21 <_ZN2ML15buildMixedModelEv.cold+0x64>
    4b72:	48 8b 7c 24 20       	mov    0x20(%rsp),%rdi
    4b77:	c5 f8 77             	vzeroupper
    4b7a:	e8 d1 f6 ff ff       	call   4250 <_ZdlPv@plt>
    4b7f:	4c 89 e7             	mov    %r12,%rdi
    4b82:	e8 69 8e 00 00       	call   d9f0 <_ZN2ML11LayerParamsD1Ev>
    4b87:	48 8b bc 24 c0 01 00 	mov    0x1c0(%rsp),%rdi
    4b8e:	00 
    4b8f:	48 85 ff             	test   %rdi,%rdi
    4b92:	75 5f                	jne    4bf3 <_ZN2ML15buildMixedModelEv.cold+0x136>
    4b94:	4c 89 ef             	mov    %r13,%rdi
    4b97:	e8 54 8e 00 00       	call   d9f0 <_ZN2ML11LayerParamsD1Ev>
    4b9c:	48 8b bc 24 00 02 00 	mov    0x200(%rsp),%rdi
    4ba3:	00 
    4ba4:	48 85 ff             	test   %rdi,%rdi
    4ba7:	74 a9                	je     4b52 <_ZN2ML15buildMixedModelEv.cold+0x95>
    4ba9:	e8 a2 f6 ff ff       	call   4250 <_ZdlPv@plt>
    4bae:	eb a2                	jmp    4b52 <_ZN2ML15buildMixedModelEv.cold+0x95>
    4bb0:	4c 89 f7             	mov    %r14,%rdi
    4bb3:	c5 f8 77             	vzeroupper
    4bb6:	e8 95 f6 ff ff       	call   4250 <_ZdlPv@plt>
    4bbb:	4c 89 e7             	mov    %r12,%rdi
    4bbe:	e8 2d 8e 00 00       	call   d9f0 <_ZN2ML11LayerParamsD1Ev>
    4bc3:	48 8b bc 24 c0 01 00 	mov    0x1c0(%rsp),%rdi
    4bca:	00 
    4bcb:	48 85 ff             	test   %rdi,%rdi
    4bce:	75 2a                	jne    4bfa <_ZN2ML15buildMixedModelEv.cold+0x13d>
    4bd0:	4c 89 ef             	mov    %r13,%rdi
    4bd3:	e8 18 8e 00 00       	call   d9f0 <_ZN2ML11LayerParamsD1Ev>
    4bd8:	48 8b bc 24 00 02 00 	mov    0x200(%rsp),%rdi
    4bdf:	00 
    4be0:	48 85 ff             	test   %rdi,%rdi
    4be3:	0f 84 69 ff ff ff    	je     4b52 <_ZN2ML15buildMixedModelEv.cold+0x95>
    4be9:	e8 62 f6 ff ff       	call   4250 <_ZdlPv@plt>
    4bee:	e9 5f ff ff ff       	jmp    4b52 <_ZN2ML15buildMixedModelEv.cold+0x95>
    4bf3:	e8 58 f6 ff ff       	call   4250 <_ZdlPv@plt>
    4bf8:	eb 9a                	jmp    4b94 <_ZN2ML15buildMixedModelEv.cold+0xd7>
    4bfa:	e8 51 f6 ff ff       	call   4250 <_ZdlPv@plt>
    4bff:	eb cf                	jmp    4bd0 <_ZN2ML15buildMixedModelEv.cold+0x113>
    4c01:	48 8b bc 24 80 02 00 	mov    0x280(%rsp),%rdi
    4c08:	00 
    4c09:	48 8d 84 24 90 02 00 	lea    0x290(%rsp),%rax
    4c10:	00 
    4c11:	48 39 c7             	cmp    %rax,%rdi
    4c14:	0f 84 bd 00 00 00    	je     4cd7 <_ZN2ML15buildMixedModelEv.cold+0x21a>
    4c1a:	c5 f8 77             	vzeroupper
    4c1d:	e8 2e f6 ff ff       	call   4250 <_ZdlPv@plt>
    4c22:	e9 2b ff ff ff       	jmp    4b52 <_ZN2ML15buildMixedModelEv.cold+0x95>
    4c27:	4c 89 f7             	mov    %r14,%rdi
    4c2a:	c5 f8 77             	vzeroupper
    4c2d:	4d 89 fe             	mov    %r15,%r14
    4c30:	e8 bb 8d 00 00       	call   d9f0 <_ZN2ML11LayerParamsD1Ev>
    4c35:	48 8b bc 24 c0 00 00 	mov    0xc0(%rsp),%rdi
    4c3c:	00 
    4c3d:	48 85 ff             	test   %rdi,%rdi
    4c40:	74 05                	je     4c47 <_ZN2ML15buildMixedModelEv.cold+0x18a>
    4c42:	e8 09 f6 ff ff       	call   4250 <_ZdlPv@plt>
    4c47:	48 89 df             	mov    %rbx,%rdi
    4c4a:	4c 89 f3             	mov    %r14,%rbx
    4c4d:	e8 9e 8d 00 00       	call   d9f0 <_ZN2ML11LayerParamsD1Ev>
    4c52:	48 8b bc 24 00 01 00 	mov    0x100(%rsp),%rdi
    4c59:	00 
    4c5a:	48 85 ff             	test   %rdi,%rdi
    4c5d:	74 05                	je     4c64 <_ZN2ML15buildMixedModelEv.cold+0x1a7>
    4c5f:	e8 ec f5 ff ff       	call   4250 <_ZdlPv@plt>
    4c64:	4c 89 e7             	mov    %r12,%rdi
    4c67:	e8 84 8d 00 00       	call   d9f0 <_ZN2ML11LayerParamsD1Ev>
    4c6c:	48 8b bc 24 80 01 00 	mov    0x180(%rsp),%rdi
    4c73:	00 
    4c74:	48 8d 84 24 90 01 00 	lea    0x190(%rsp),%rax
    4c7b:	00 
    4c7c:	48 39 c7             	cmp    %rax,%rdi
    4c7f:	74 05                	je     4c86 <_ZN2ML15buildMixedModelEv.cold+0x1c9>
    4c81:	e8 ca f5 ff ff       	call   4250 <_ZdlPv@plt>
    4c86:	48 8b bc 24 20 01 00 	mov    0x120(%rsp),%rdi
    4c8d:	00 
    4c8e:	48 85 ff             	test   %rdi,%rdi
    4c91:	75 3d                	jne    4cd0 <_ZN2ML15buildMixedModelEv.cold+0x213>
    4c93:	4c 89 ef             	mov    %r13,%rdi
    4c96:	e8 55 8d 00 00       	call   d9f0 <_ZN2ML11LayerParamsD1Ev>
    4c9b:	48 8b bc 24 a0 01 00 	mov    0x1a0(%rsp),%rdi
    4ca2:	00 
    4ca3:	48 8d 84 24 b0 01 00 	lea    0x1b0(%rsp),%rax
    4caa:	00 
    4cab:	48 39 c7             	cmp    %rax,%rdi
    4cae:	74 05                	je     4cb5 <_ZN2ML15buildMixedModelEv.cold+0x1f8>
    4cb0:	e8 9b f5 ff ff       	call   4250 <_ZdlPv@plt>
    4cb5:	48 8b bc 24 40 01 00 	mov    0x140(%rsp),%rdi
    4cbc:	00 
    4cbd:	48 85 ff             	test   %rdi,%rdi
    4cc0:	0f 84 8c fe ff ff    	je     4b52 <_ZN2ML15buildMixedModelEv.cold+0x95>
    4cc6:	e8 85 f5 ff ff       	call   4250 <_ZdlPv@plt>
    4ccb:	e9 82 fe ff ff       	jmp    4b52 <_ZN2ML15buildMixedModelEv.cold+0x95>
    4cd0:	e8 7b f5 ff ff       	call   4250 <_ZdlPv@plt>
    4cd5:	eb bc                	jmp    4c93 <_ZN2ML15buildMixedModelEv.cold+0x1d6>
    4cd7:	c5 f8 77             	vzeroupper
    4cda:	e9 73 fe ff ff       	jmp    4b52 <_ZN2ML15buildMixedModelEv.cold+0x95>
    4cdf:	4c 89 f7             	mov    %r14,%rdi
    4ce2:	c5 f8 77             	vzeroupper
    4ce5:	4d 89 fe             	mov    %r15,%r14
    4ce8:	e8 03 8d 00 00       	call   d9f0 <_ZN2ML11LayerParamsD1Ev>
    4ced:	48 8b bc 24 00 01 00 	mov    0x100(%rsp),%rdi
    4cf4:	00 
    4cf5:	48 85 ff             	test   %rdi,%rdi
    4cf8:	74 05                	je     4cff <_ZN2ML15buildMixedModelEv.cold+0x242>
    4cfa:	e8 51 f5 ff ff       	call   4250 <_ZdlPv@plt>
    4cff:	48 89 df             	mov    %rbx,%rdi
    4d02:	4c 89 f3             	mov    %r14,%rbx
    4d05:	e8 e6 8c 00 00       	call   d9f0 <_ZN2ML11LayerParamsD1Ev>
    4d0a:	48 8b bc 24 20 01 00 	mov    0x120(%rsp),%rdi
    4d11:	00 
    4d12:	48 85 ff             	test   %rdi,%rdi
    4d15:	74 05                	je     4d1c <_ZN2ML15buildMixedModelEv.cold+0x25f>
    4d17:	e8 34 f5 ff ff       	call   4250 <_ZdlPv@plt>
    4d1c:	4c 89 e7             	mov    %r12,%rdi
    4d1f:	e8 cc 8c 00 00       	call   d9f0 <_ZN2ML11LayerParamsD1Ev>
    4d24:	48 8b bc 24 80 01 00 	mov    0x180(%rsp),%rdi
    4d2b:	00 
    4d2c:	48 8b 44 24 48       	mov    0x48(%rsp),%rax
    4d31:	48 39 c7             	cmp    %rax,%rdi
    4d34:	74 05                	je     4d3b <_ZN2ML15buildMixedModelEv.cold+0x27e>
    4d36:	e8 15 f5 ff ff       	call   4250 <_ZdlPv@plt>
    4d3b:	48 8b bc 24 40 01 00 	mov    0x140(%rsp),%rdi
    4d42:	00 
    4d43:	48 85 ff             	test   %rdi,%rdi
    4d46:	75 3a                	jne    4d82 <_ZN2ML15buildMixedModelEv.cold+0x2c5>
    4d48:	4c 89 ef             	mov    %r13,%rdi
    4d4b:	e8 a0 8c 00 00       	call   d9f0 <_ZN2ML11LayerParamsD1Ev>
    4d50:	48 8b bc 24 a0 01 00 	mov    0x1a0(%rsp),%rdi
    4d57:	00 
    4d58:	48 8b 44 24 40       	mov    0x40(%rsp),%rax
    4d5d:	48 39 c7             	cmp    %rax,%rdi
    4d60:	74 05                	je     4d67 <_ZN2ML15buildMixedModelEv.cold+0x2aa>
    4d62:	e8 e9 f4 ff ff       	call   4250 <_ZdlPv@plt>
    4d67:	48 8b bc 24 60 01 00 	mov    0x160(%rsp),%rdi
    4d6e:	00 
    4d6f:	48 85 ff             	test   %rdi,%rdi
    4d72:	0f 84 da fd ff ff    	je     4b52 <_ZN2ML15buildMixedModelEv.cold+0x95>
    4d78:	e8 d3 f4 ff ff       	call   4250 <_ZdlPv@plt>
    4d7d:	e9 d0 fd ff ff       	jmp    4b52 <_ZN2ML15buildMixedModelEv.cold+0x95>
    4d82:	e8 c9 f4 ff ff       	call   4250 <_ZdlPv@plt>
    4d87:	eb bf                	jmp    4d48 <_ZN2ML15buildMixedModelEv.cold+0x28b>
    4d89:	4c 89 f7             	mov    %r14,%rdi
    4d8c:	c5 f8 77             	vzeroupper
    4d8f:	4d 89 fe             	mov    %r15,%r14
    4d92:	e8 59 8c 00 00       	call   d9f0 <_ZN2ML11LayerParamsD1Ev>
    4d97:	48 8b bc 24 00 01 00 	mov    0x100(%rsp),%rdi
    4d9e:	00 
    4d9f:	48 85 ff             	test   %rdi,%rdi
    4da2:	74 05                	je     4da9 <_ZN2ML15buildMixedModelEv.cold+0x2ec>
    4da4:	e8 a7 f4 ff ff       	call   4250 <_ZdlPv@plt>
    4da9:	48 89 df             	mov    %rbx,%rdi
    4dac:	4c 89 f3             	mov    %r14,%rbx
    4daf:	e8 3c 8c 00 00       	call   d9f0 <_ZN2ML11LayerParamsD1Ev>
    4db4:	48 8b bc 24 20 01 00 	mov    0x120(%rsp),%rdi
    4dbb:	00 
    4dbc:	48 85 ff             	test   %rdi,%rdi
    4dbf:	0f 85 b4 01 00 00    	jne    4f79 <_ZN2ML15buildMixedModelEv.cold+0x4bc>
    4dc5:	4c 89 e7             	mov    %r12,%rdi
    4dc8:	e8 23 8c 00 00       	call   d9f0 <_ZN2ML11LayerParamsD1Ev>
    4dcd:	48 8b bc 24 80 01 00 	mov    0x180(%rsp),%rdi
    4dd4:	00 
    4dd5:	48 8b 44 24 48       	mov    0x48(%rsp),%rax
    4dda:	48 39 c7             	cmp    %rax,%rdi
    4ddd:	74 05                	je     4de4 <_ZN2ML15buildMixedModelEv.cold+0x327>
    4ddf:	e8 6c f4 ff ff       	call   4250 <_ZdlPv@plt>
    4de4:	48 8b bc 24 40 01 00 	mov    0x140(%rsp),%rdi
    4deb:	00 
    4dec:	48 85 ff             	test   %rdi,%rdi
    4def:	0f 85 8e 01 00 00    	jne    4f83 <_ZN2ML15buildMixedModelEv.cold+0x4c6>
    4df5:	4c 89 ef             	mov    %r13,%rdi
    4df8:	e8 f3 8b 00 00       	call   d9f0 <_ZN2ML11LayerParamsD1Ev>
    4dfd:	48 8b bc 24 a0 01 00 	mov    0x1a0(%rsp),%rdi
    4e04:	00 
    4e05:	48 8b 44 24 40       	mov    0x40(%rsp),%rax
    4e0a:	48 39 c7             	cmp    %rax,%rdi
    4e0d:	74 05                	je     4e14 <_ZN2ML15buildMixedModelEv.cold+0x357>
    4e0f:	e8 3c f4 ff ff       	call   4250 <_ZdlPv@plt>
    4e14:	48 8b bc 24 60 01 00 	mov    0x160(%rsp),%rdi
    4e1b:	00 
    4e1c:	48 85 ff             	test   %rdi,%rdi
    4e1f:	0f 84 2d fd ff ff    	je     4b52 <_ZN2ML15buildMixedModelEv.cold+0x95>
    4e25:	e8 26 f4 ff ff       	call   4250 <_ZdlPv@plt>
    4e2a:	e9 23 fd ff ff       	jmp    4b52 <_ZN2ML15buildMixedModelEv.cold+0x95>
    4e2f:	4c 89 f7             	mov    %r14,%rdi
    4e32:	c5 f8 77             	vzeroupper
    4e35:	4d 89 fe             	mov    %r15,%r14
    4e38:	e8 b3 8b 00 00       	call   d9f0 <_ZN2ML11LayerParamsD1Ev>
    4e3d:	48 8b bc 24 c0 00 00 	mov    0xc0(%rsp),%rdi
    4e44:	00 
    4e45:	48 85 ff             	test   %rdi,%rdi
    4e48:	74 05                	je     4e4f <_ZN2ML15buildMixedModelEv.cold+0x392>
    4e4a:	e8 01 f4 ff ff       	call   4250 <_ZdlPv@plt>
    4e4f:	48 89 df             	mov    %rbx,%rdi
    4e52:	4c 89 f3             	mov    %r14,%rbx
    4e55:	e8 96 8b 00 00       	call   d9f0 <_ZN2ML11LayerParamsD1Ev>
    4e5a:	48 8b bc 24 00 01 00 	mov    0x100(%rsp),%rdi
    4e61:	00 
    4e62:	48 85 ff             	test   %rdi,%rdi
    4e65:	74 05                	je     4e6c <_ZN2ML15buildMixedModelEv.cold+0x3af>
    4e67:	e8 e4 f3 ff ff       	call   4250 <_ZdlPv@plt>
    4e6c:	4c 89 e7             	mov    %r12,%rdi
    4e6f:	e8 7c 8b 00 00       	call   d9f0 <_ZN2ML11LayerParamsD1Ev>
    4e74:	48 8b bc 24 80 01 00 	mov    0x180(%rsp),%rdi
    4e7b:	00 
    4e7c:	48 8b 44 24 48       	mov    0x48(%rsp),%rax
    4e81:	48 39 c7             	cmp    %rax,%rdi
    4e84:	74 05                	je     4e8b <_ZN2ML15buildMixedModelEv.cold+0x3ce>
    4e86:	e8 c5 f3 ff ff       	call   4250 <_ZdlPv@plt>
    4e8b:	48 8b bc 24 20 01 00 	mov    0x120(%rsp),%rdi
    4e92:	00 
    4e93:	48 85 ff             	test   %rdi,%rdi
    4e96:	74 05                	je     4e9d <_ZN2ML15buildMixedModelEv.cold+0x3e0>
    4e98:	e8 b3 f3 ff ff       	call   4250 <_ZdlPv@plt>
    4e9d:	4c 89 ef             	mov    %r13,%rdi
    4ea0:	e8 4b 8b 00 00       	call   d9f0 <_ZN2ML11LayerParamsD1Ev>
    4ea5:	48 8b bc 24 a0 01 00 	mov    0x1a0(%rsp),%rdi
    4eac:	00 
    4ead:	48 8b 44 24 40       	mov    0x40(%rsp),%rax
    4eb2:	48 39 c7             	cmp    %rax,%rdi
    4eb5:	74 05                	je     4ebc <_ZN2ML15buildMixedModelEv.cold+0x3ff>
    4eb7:	e8 94 f3 ff ff       	call   4250 <_ZdlPv@plt>
    4ebc:	48 8b bc 24 40 01 00 	mov    0x140(%rsp),%rdi
    4ec3:	00 
    4ec4:	48 85 ff             	test   %rdi,%rdi
    4ec7:	0f 84 85 fc ff ff    	je     4b52 <_ZN2ML15buildMixedModelEv.cold+0x95>
    4ecd:	e8 7e f3 ff ff       	call   4250 <_ZdlPv@plt>
    4ed2:	e9 7b fc ff ff       	jmp    4b52 <_ZN2ML15buildMixedModelEv.cold+0x95>
    4ed7:	4c 89 f7             	mov    %r14,%rdi
    4eda:	c5 f8 77             	vzeroupper
    4edd:	4d 89 fe             	mov    %r15,%r14
    4ee0:	e8 0b 8b 00 00       	call   d9f0 <_ZN2ML11LayerParamsD1Ev>
    4ee5:	48 8b bc 24 c0 00 00 	mov    0xc0(%rsp),%rdi
    4eec:	00 
    4eed:	48 85 ff             	test   %rdi,%rdi
    4ef0:	74 05                	je     4ef7 <_ZN2ML15buildMixedModelEv.cold+0x43a>
    4ef2:	e8 59 f3 ff ff       	call   4250 <_ZdlPv@plt>
    4ef7:	48 89 df             	mov    %rbx,%rdi
    4efa:	4c 89 f3             	mov    %r14,%rbx
    4efd:	e8 ee 8a 00 00       	call   d9f0 <_ZN2ML11LayerParamsD1Ev>
    4f02:	48 8b bc 24 00 01 00 	mov    0x100(%rsp),%rdi
    4f09:	00 
    4f0a:	48 85 ff             	test   %rdi,%rdi
    4f0d:	0f 85 1d 02 00 00    	jne    5130 <_ZN2ML15buildMixedModelEv.cold+0x673>
    4f13:	4c 89 e7             	mov    %r12,%rdi
    4f16:	e8 d5 8a 00 00       	call   d9f0 <_ZN2ML11LayerParamsD1Ev>
    4f1b:	48 8b bc 24 80 01 00 	mov    0x180(%rsp),%rdi
    4f22:	00 
    4f23:	48 8b 44 24 48       	mov    0x48(%rsp),%rax
    4f28:	48 39 c7             	cmp    %rax,%rdi
    4f2b:	74 05                	je     4f32 <_ZN2ML15buildMixedModelEv.cold+0x475>
    4f2d:	e8 1e f3 ff ff       	call   4250 <_ZdlPv@plt>
    4f32:	48 8b bc 24 20 01 00 	mov    0x120(%rsp),%rdi
    4f39:	00 
    4f3a:	48 85 ff             	test   %rdi,%rdi
    4f3d:	75 4e                	jne    4f8d <_ZN2ML15buildMixedModelEv.cold+0x4d0>
    4f3f:	4c 89 ef             	mov    %r13,%rdi
    4f42:	e8 a9 8a 00 00       	call   d9f0 <_ZN2ML11LayerParamsD1Ev>
    4f47:	48 8b bc 24 a0 01 00 	mov    0x1a0(%rsp),%rdi
    4f4e:	00 
    4f4f:	48 8b 44 24 40       	mov    0x40(%rsp),%rax
    4f54:	48 39 c7             	cmp    %rax,%rdi
    4f57:	74 05                	je     4f5e <_ZN2ML15buildMixedModelEv.cold+0x4a1>
    4f59:	e8 f2 f2 ff ff       	call   4250 <_ZdlPv@plt>
    4f5e:	48 8b bc 24 40 01 00 	mov    0x140(%rsp),%rdi
    4f65:	00 
    4f66:	48 85 ff             	test   %rdi,%rdi
    4f69:	0f 84 e3 fb ff ff    	je     4b52 <_ZN2ML15buildMixedModelEv.cold+0x95>
    4f6f:	e8 dc f2 ff ff       	call   4250 <_ZdlPv@plt>
    4f74:	e9 d9 fb ff ff       	jmp    4b52 <_ZN2ML15buildMixedModelEv.cold+0x95>
    4f79:	e8 d2 f2 ff ff       	call   4250 <_ZdlPv@plt>
    4f7e:	e9 42 fe ff ff       	jmp    4dc5 <_ZN2ML15buildMixedModelEv.cold+0x308>
    4f83:	e8 c8 f2 ff ff       	call   4250 <_ZdlPv@plt>
    4f88:	e9 68 fe ff ff       	jmp    4df5 <_ZN2ML15buildMixedModelEv.cold+0x338>
    4f8d:	e8 be f2 ff ff       	call   4250 <_ZdlPv@plt>
    4f92:	eb ab                	jmp    4f3f <_ZN2ML15buildMixedModelEv.cold+0x482>
    4f94:	4c 89 f7             	mov    %r14,%rdi
    4f97:	c5 f8 77             	vzeroupper
    4f9a:	4d 89 fe             	mov    %r15,%r14
    4f9d:	e8 4e 8a 00 00       	call   d9f0 <_ZN2ML11LayerParamsD1Ev>
    4fa2:	48 8b bc 24 c0 00 00 	mov    0xc0(%rsp),%rdi
    4fa9:	00 
    4faa:	48 85 ff             	test   %rdi,%rdi
    4fad:	74 05                	je     4fb4 <_ZN2ML15buildMixedModelEv.cold+0x4f7>
    4faf:	e8 9c f2 ff ff       	call   4250 <_ZdlPv@plt>
    4fb4:	48 89 df             	mov    %rbx,%rdi
    4fb7:	4c 89 f3             	mov    %r14,%rbx
    4fba:	e8 31 8a 00 00       	call   d9f0 <_ZN2ML11LayerParamsD1Ev>
    4fbf:	48 8b bc 24 00 01 00 	mov    0x100(%rsp),%rdi
    4fc6:	00 
    4fc7:	48 85 ff             	test   %rdi,%rdi
    4fca:	75 66                	jne    5032 <_ZN2ML15buildMixedModelEv.cold+0x575>
    4fcc:	4c 89 e7             	mov    %r12,%rdi
    4fcf:	e8 1c 8a 00 00       	call   d9f0 <_ZN2ML11LayerParamsD1Ev>
    4fd4:	48 8b bc 24 80 01 00 	mov    0x180(%rsp),%rdi
    4fdb:	00 
    4fdc:	48 8b 44 24 48       	mov    0x48(%rsp),%rax
    4fe1:	48 39 c7             	cmp    %rax,%rdi
    4fe4:	74 05                	je     4feb <_ZN2ML15buildMixedModelEv.cold+0x52e>
    4fe6:	e8 65 f2 ff ff       	call   4250 <_ZdlPv@plt>
    4feb:	48 8b bc 24 20 01 00 	mov    0x120(%rsp),%rdi
    4ff2:	00 
    4ff3:	48 85 ff             	test   %rdi,%rdi
    4ff6:	75 41                	jne    5039 <_ZN2ML15buildMixedModelEv.cold+0x57c>
    4ff8:	4c 89 ef             	mov    %r13,%rdi
    4ffb:	e8 f0 89 00 00       	call   d9f0 <_ZN2ML11LayerParamsD1Ev>
    5000:	48 8b bc 24 a0 01 00 	mov    0x1a0(%rsp),%rdi
    5007:	00 
    5008:	48 8b 44 24 40       	mov    0x40(%rsp),%rax
    500d:	48 39 c7             	cmp    %rax,%rdi
    5010:	74 05                	je     5017 <_ZN2ML15buildMixedModelEv.cold+0x55a>
    5012:	e8 39 f2 ff ff       	call   4250 <_ZdlPv@plt>
    5017:	48 8b bc 24 40 01 00 	mov    0x140(%rsp),%rdi
    501e:	00 
    501f:	48 85 ff             	test   %rdi,%rdi
    5022:	0f 84 2a fb ff ff    	je     4b52 <_ZN2ML15buildMixedModelEv.cold+0x95>
    5028:	e8 23 f2 ff ff       	call   4250 <_ZdlPv@plt>
    502d:	e9 20 fb ff ff       	jmp    4b52 <_ZN2ML15buildMixedModelEv.cold+0x95>
    5032:	e8 19 f2 ff ff       	call   4250 <_ZdlPv@plt>
    5037:	eb 93                	jmp    4fcc <_ZN2ML15buildMixedModelEv.cold+0x50f>
    5039:	e8 12 f2 ff ff       	call   4250 <_ZdlPv@plt>
    503e:	eb b8                	jmp    4ff8 <_ZN2ML15buildMixedModelEv.cold+0x53b>
    5040:	4c 89 e7             	mov    %r12,%rdi
    5043:	c5 f8 77             	vzeroupper
    5046:	e8 a5 89 00 00       	call   d9f0 <_ZN2ML11LayerParamsD1Ev>
    504b:	48 8b bc 24 a0 01 00 	mov    0x1a0(%rsp),%rdi
    5052:	00 
    5053:	48 85 ff             	test   %rdi,%rdi
    5056:	0f 85 ca 00 00 00    	jne    5126 <_ZN2ML15buildMixedModelEv.cold+0x669>
    505c:	4c 89 ef             	mov    %r13,%rdi
    505f:	e8 8c 89 00 00       	call   d9f0 <_ZN2ML11LayerParamsD1Ev>
    5064:	48 8b bc 24 00 02 00 	mov    0x200(%rsp),%rdi
    506b:	00 
    506c:	48 85 ff             	test   %rdi,%rdi
    506f:	0f 84 dd fa ff ff    	je     4b52 <_ZN2ML15buildMixedModelEv.cold+0x95>
    5075:	e8 d6 f1 ff ff       	call   4250 <_ZdlPv@plt>
    507a:	e9 d3 fa ff ff       	jmp    4b52 <_ZN2ML15buildMixedModelEv.cold+0x95>
    507f:	4c 89 f7             	mov    %r14,%rdi
    5082:	c5 f8 77             	vzeroupper
    5085:	4d 89 fe             	mov    %r15,%r14
    5088:	e8 63 89 00 00       	call   d9f0 <_ZN2ML11LayerParamsD1Ev>
    508d:	48 8b bc 24 c0 00 00 	mov    0xc0(%rsp),%rdi
    5094:	00 
    5095:	48 85 ff             	test   %rdi,%rdi
    5098:	74 05                	je     509f <_ZN2ML15buildMixedModelEv.cold+0x5e2>
    509a:	e8 b1 f1 ff ff       	call   4250 <_ZdlPv@plt>
    509f:	48 89 df             	mov    %rbx,%rdi
    50a2:	4c 89 f3             	mov    %r14,%rbx
    50a5:	e8 46 89 00 00       	call   d9f0 <_ZN2ML11LayerParamsD1Ev>
    50aa:	48 8b bc 24 00 01 00 	mov    0x100(%rsp),%rdi
    50b1:	00 
    50b2:	48 85 ff             	test   %rdi,%rdi
    50b5:	0f 85 bf 00 00 00    	jne    517a <_ZN2ML15buildMixedModelEv.cold+0x6bd>
    50bb:	4c 89 e7             	mov    %r12,%rdi
    50be:	e8 2d 89 00 00       	call   d9f0 <_ZN2ML11LayerParamsD1Ev>
    50c3:	48 8b bc 24 80 01 00 	mov    0x180(%rsp),%rdi
    50ca:	00 
    50cb:	48 8b 44 24 48       	mov    0x48(%rsp),%rax
    50d0:	48 39 c7             	cmp    %rax,%rdi
    50d3:	74 05                	je     50da <_ZN2ML15buildMixedModelEv.cold+0x61d>
    50d5:	e8 76 f1 ff ff       	call   4250 <_ZdlPv@plt>
    50da:	48 8b bc 24 20 01 00 	mov    0x120(%rsp),%rdi
    50e1:	00 
    50e2:	48 85 ff             	test   %rdi,%rdi
    50e5:	74 05                	je     50ec <_ZN2ML15buildMixedModelEv.cold+0x62f>
    50e7:	e8 64 f1 ff ff       	call   4250 <_ZdlPv@plt>
    50ec:	4c 89 ef             	mov    %r13,%rdi
    50ef:	e8 fc 88 00 00       	call   d9f0 <_ZN2ML11LayerParamsD1Ev>
    50f4:	48 8b bc 24 a0 01 00 	mov    0x1a0(%rsp),%rdi
    50fb:	00 
    50fc:	48 8b 44 24 40       	mov    0x40(%rsp),%rax
    5101:	48 39 c7             	cmp    %rax,%rdi
    5104:	74 05                	je     510b <_ZN2ML15buildMixedModelEv.cold+0x64e>
    5106:	e8 45 f1 ff ff       	call   4250 <_ZdlPv@plt>
    510b:	48 8b bc 24 40 01 00 	mov    0x140(%rsp),%rdi
    5112:	00 
    5113:	48 85 ff             	test   %rdi,%rdi
    5116:	0f 84 36 fa ff ff    	je     4b52 <_ZN2ML15buildMixedModelEv.cold+0x95>
    511c:	e8 2f f1 ff ff       	call   4250 <_ZdlPv@plt>
    5121:	e9 2c fa ff ff       	jmp    4b52 <_ZN2ML15buildMixedModelEv.cold+0x95>
    5126:	e8 25 f1 ff ff       	call   4250 <_ZdlPv@plt>
    512b:	e9 2c ff ff ff       	jmp    505c <_ZN2ML15buildMixedModelEv.cold+0x59f>
    5130:	e8 1b f1 ff ff       	call   4250 <_ZdlPv@plt>
    5135:	e9 d9 fd ff ff       	jmp    4f13 <_ZN2ML15buildMixedModelEv.cold+0x456>
    513a:	4c 89 e7             	mov    %r12,%rdi
    513d:	c5 f8 77             	vzeroupper
    5140:	e8 ab 88 00 00       	call   d9f0 <_ZN2ML11LayerParamsD1Ev>
    5145:	48 8b bc 24 a0 01 00 	mov    0x1a0(%rsp),%rdi
    514c:	00 
    514d:	48 85 ff             	test   %rdi,%rdi
    5150:	74 05                	je     5157 <_ZN2ML15buildMixedModelEv.cold+0x69a>
    5152:	e8 f9 f0 ff ff       	call   4250 <_ZdlPv@plt>
    5157:	4c 89 ef             	mov    %r13,%rdi
    515a:	e8 91 88 00 00       	call   d9f0 <_ZN2ML11LayerParamsD1Ev>
    515f:	48 8b bc 24 00 02 00 	mov    0x200(%rsp),%rdi
    5166:	00 
    5167:	48 85 ff             	test   %rdi,%rdi
    516a:	0f 84 e2 f9 ff ff    	je     4b52 <_ZN2ML15buildMixedModelEv.cold+0x95>
    5170:	e8 db f0 ff ff       	call   4250 <_ZdlPv@plt>
    5175:	e9 d8 f9 ff ff       	jmp    4b52 <_ZN2ML15buildMixedModelEv.cold+0x95>
    517a:	e8 d1 f0 ff ff       	call   4250 <_ZdlPv@plt>
    517f:	e9 37 ff ff ff       	jmp    50bb <_ZN2ML15buildMixedModelEv.cold+0x5fe>
    5184:	4c 89 e7             	mov    %r12,%rdi
    5187:	c5 f8 77             	vzeroupper
    518a:	e8 61 88 00 00       	call   d9f0 <_ZN2ML11LayerParamsD1Ev>
    518f:	48 8b bc 24 a0 01 00 	mov    0x1a0(%rsp),%rdi
    5196:	00 
    5197:	48 85 ff             	test   %rdi,%rdi
    519a:	74 05                	je     51a1 <_ZN2ML15buildMixedModelEv.cold+0x6e4>
    519c:	e8 af f0 ff ff       	call   4250 <_ZdlPv@plt>
    51a1:	4c 89 ef             	mov    %r13,%rdi
    51a4:	e8 47 88 00 00       	call   d9f0 <_ZN2ML11LayerParamsD1Ev>
    51a9:	48 8b bc 24 00 02 00 	mov    0x200(%rsp),%rdi
    51b0:	00 
    51b1:	48 85 ff             	test   %rdi,%rdi
    51b4:	0f 84 98 f9 ff ff    	je     4b52 <_ZN2ML15buildMixedModelEv.cold+0x95>
    51ba:	e8 91 f0 ff ff       	call   4250 <_ZdlPv@plt>
    51bf:	e9 8e f9 ff ff       	jmp    4b52 <_ZN2ML15buildMixedModelEv.cold+0x95>

00000000000051c4 <_ZN2ML12build4QModelEv.cold>:
    51c4:	4c 89 f7             	mov    %r14,%rdi
    51c7:	c5 f8 77             	vzeroupper
    51ca:	e8 81 f0 ff ff       	call   4250 <_ZdlPv@plt>
    51cf:	4c 89 e7             	mov    %r12,%rdi
    51d2:	e8 19 88 00 00       	call   d9f0 <_ZN2ML11LayerParamsD1Ev>
    51d7:	48 8b bc 24 c0 01 00 	mov    0x1c0(%rsp),%rdi
    51de:	00 
    51df:	48 85 ff             	test   %rdi,%rdi
    51e2:	74 05                	je     51e9 <_ZN2ML12build4QModelEv.cold+0x25>
    51e4:	e8 67 f0 ff ff       	call   4250 <_ZdlPv@plt>
    51e9:	4c 89 ef             	mov    %r13,%rdi
    51ec:	e8 ff 87 00 00       	call   d9f0 <_ZN2ML11LayerParamsD1Ev>
    51f1:	48 8b bc 24 00 02 00 	mov    0x200(%rsp),%rdi
    51f8:	00 
    51f9:	48 85 ff             	test   %rdi,%rdi
    51fc:	74 05                	je     5203 <_ZN2ML12build4QModelEv.cold+0x3f>
    51fe:	e8 4d f0 ff ff       	call   4250 <_ZdlPv@plt>
    5203:	48 8b 7c 24 78       	mov    0x78(%rsp),%rdi
    5208:	e8 93 3a 02 00       	call   28ca0 <_ZNSt6vectorISt10unique_ptrIN2ML5LayerESt14default_deleteIS2_EESaIS5_EED1Ev>
    520d:	48 89 df             	mov    %rbx,%rdi
    5210:	e8 3b f2 ff ff       	call   4450 <_Unwind_Resume@plt>
    5215:	4c 89 f7             	mov    %r14,%rdi
    5218:	c5 f8 77             	vzeroupper
    521b:	4d 89 fe             	mov    %r15,%r14
    521e:	e8 cd 87 00 00       	call   d9f0 <_ZN2ML11LayerParamsD1Ev>
    5223:	48 8b bc 24 c0 00 00 	mov    0xc0(%rsp),%rdi
    522a:	00 
    522b:	48 85 ff             	test   %rdi,%rdi
    522e:	74 05                	je     5235 <_ZN2ML12build4QModelEv.cold+0x71>
    5230:	e8 1b f0 ff ff       	call   4250 <_ZdlPv@plt>
    5235:	48 89 df             	mov    %rbx,%rdi
    5238:	4c 89 f3             	mov    %r14,%rbx
    523b:	e8 b0 87 00 00       	call   d9f0 <_ZN2ML11LayerParamsD1Ev>
    5240:	48 8b bc 24 00 01 00 	mov    0x100(%rsp),%rdi
    5247:	00 
    5248:	48 85 ff             	test   %rdi,%rdi
    524b:	74 05                	je     5252 <_ZN2ML12build4QModelEv.cold+0x8e>
    524d:	e8 fe ef ff ff       	call   4250 <_ZdlPv@plt>
    5252:	4c 89 e7             	mov    %r12,%rdi
    5255:	e8 96 87 00 00       	call   d9f0 <_ZN2ML11LayerParamsD1Ev>
    525a:	48 8b bc 24 80 01 00 	mov    0x180(%rsp),%rdi
    5261:	00 
    5262:	48 8b 44 24 48       	mov    0x48(%rsp),%rax
    5267:	48 39 c7             	cmp    %rax,%rdi
    526a:	74 05                	je     5271 <_ZN2ML12build4QModelEv.cold+0xad>
    526c:	e8 df ef ff ff       	call   4250 <_ZdlPv@plt>
    5271:	48 8b bc 24 20 01 00 	mov    0x120(%rsp),%rdi
    5278:	00 
    5279:	48 85 ff             	test   %rdi,%rdi
    527c:	0f 85 6c 04 00 00    	jne    56ee <_ZN2ML12build4QModelEv.cold+0x52a>
    5282:	4c 89 ef             	mov    %r13,%rdi
    5285:	e8 66 87 00 00       	call   d9f0 <_ZN2ML11LayerParamsD1Ev>
    528a:	48 8b bc 24 a0 01 00 	mov    0x1a0(%rsp),%rdi
    5291:	00 
    5292:	48 8b 44 24 40       	mov    0x40(%rsp),%rax
    5297:	48 39 c7             	cmp    %rax,%rdi
    529a:	74 05                	je     52a1 <_ZN2ML12build4QModelEv.cold+0xdd>
    529c:	e8 af ef ff ff       	call   4250 <_ZdlPv@plt>
    52a1:	48 8b bc 24 40 01 00 	mov    0x140(%rsp),%rdi
    52a8:	00 
    52a9:	48 85 ff             	test   %rdi,%rdi
    52ac:	0f 85 4c ff ff ff    	jne    51fe <_ZN2ML12build4QModelEv.cold+0x3a>
    52b2:	e9 4c ff ff ff       	jmp    5203 <_ZN2ML12build4QModelEv.cold+0x3f>
    52b7:	4c 89 f7             	mov    %r14,%rdi
    52ba:	c5 f8 77             	vzeroupper
    52bd:	4d 89 fe             	mov    %r15,%r14
    52c0:	e8 2b 87 00 00       	call   d9f0 <_ZN2ML11LayerParamsD1Ev>
    52c5:	48 8b bc 24 c0 00 00 	mov    0xc0(%rsp),%rdi
    52cc:	00 
    52cd:	48 85 ff             	test   %rdi,%rdi
    52d0:	74 05                	je     52d7 <_ZN2ML12build4QModelEv.cold+0x113>
    52d2:	e8 79 ef ff ff       	call   4250 <_ZdlPv@plt>
    52d7:	48 89 df             	mov    %rbx,%rdi
    52da:	4c 89 f3             	mov    %r14,%rbx
    52dd:	e8 0e 87 00 00       	call   d9f0 <_ZN2ML11LayerParamsD1Ev>
    52e2:	48 8b bc 24 00 01 00 	mov    0x100(%rsp),%rdi
    52e9:	00 
    52ea:	48 85 ff             	test   %rdi,%rdi
    52ed:	74 05                	je     52f4 <_ZN2ML12build4QModelEv.cold+0x130>
    52ef:	e8 5c ef ff ff       	call   4250 <_ZdlPv@plt>
    52f4:	4c 89 e7             	mov    %r12,%rdi
    52f7:	e8 f4 86 00 00       	call   d9f0 <_ZN2ML11LayerParamsD1Ev>
    52fc:	48 8b bc 24 80 01 00 	mov    0x180(%rsp),%rdi
    5303:	00 
    5304:	48 8d 84 24 90 01 00 	lea    0x190(%rsp),%rax
    530b:	00 
    530c:	48 39 c7             	cmp    %rax,%rdi
    530f:	74 05                	je     5316 <_ZN2ML12build4QModelEv.cold+0x152>
    5311:	e8 3a ef ff ff       	call   4250 <_ZdlPv@plt>
    5316:	48 8b bc 24 20 01 00 	mov    0x120(%rsp),%rdi
    531d:	00 
    531e:	48 85 ff             	test   %rdi,%rdi
    5321:	74 05                	je     5328 <_ZN2ML12build4QModelEv.cold+0x164>
    5323:	e8 28 ef ff ff       	call   4250 <_ZdlPv@plt>
    5328:	4c 89 ef             	mov    %r13,%rdi
    532b:	e8 c0 86 00 00       	call   d9f0 <_ZN2ML11LayerParamsD1Ev>
    5330:	48 8b bc 24 a0 01 00 	mov    0x1a0(%rsp),%rdi
    5337:	00 
    5338:	48 8d 84 24 b0 01 00 	lea    0x1b0(%rsp),%rax
    533f:	00 
    5340:	48 39 c7             	cmp    %rax,%rdi
    5343:	0f 84 58 ff ff ff    	je     52a1 <_ZN2ML12build4QModelEv.cold+0xdd>
    5349:	e8 02 ef ff ff       	call   4250 <_ZdlPv@plt>
    534e:	e9 4e ff ff ff       	jmp    52a1 <_ZN2ML12build4QModelEv.cold+0xdd>
    5353:	48 8b 7c 24 20       	mov    0x20(%rsp),%rdi
    5358:	c5 f8 77             	vzeroupper
    535b:	e8 f0 ee ff ff       	call   4250 <_ZdlPv@plt>
    5360:	4c 89 e7             	mov    %r12,%rdi
    5363:	e8 88 86 00 00       	call   d9f0 <_ZN2ML11LayerParamsD1Ev>
    5368:	48 8b bc 24 c0 01 00 	mov    0x1c0(%rsp),%rdi
    536f:	00 
    5370:	48 85 ff             	test   %rdi,%rdi
    5373:	74 05                	je     537a <_ZN2ML12build4QModelEv.cold+0x1b6>
    5375:	e8 d6 ee ff ff       	call   4250 <_ZdlPv@plt>
    537a:	4c 89 ef             	mov    %r13,%rdi
    537d:	e8 6e 86 00 00       	call   d9f0 <_ZN2ML11LayerParamsD1Ev>
    5382:	e9 6a fe ff ff       	jmp    51f1 <_ZN2ML12build4QModelEv.cold+0x2d>
    5387:	4c 89 f7             	mov    %r14,%rdi
    538a:	c5 f8 77             	vzeroupper
    538d:	4d 89 fe             	mov    %r15,%r14
    5390:	e8 5b 86 00 00       	call   d9f0 <_ZN2ML11LayerParamsD1Ev>
    5395:	48 8b bc 24 00 01 00 	mov    0x100(%rsp),%rdi
    539c:	00 
    539d:	48 85 ff             	test   %rdi,%rdi
    53a0:	74 05                	je     53a7 <_ZN2ML12build4QModelEv.cold+0x1e3>
    53a2:	e8 a9 ee ff ff       	call   4250 <_ZdlPv@plt>
    53a7:	48 89 df             	mov    %rbx,%rdi
    53aa:	4c 89 f3             	mov    %r14,%rbx
    53ad:	e8 3e 86 00 00       	call   d9f0 <_ZN2ML11LayerParamsD1Ev>
    53b2:	48 8b bc 24 20 01 00 	mov    0x120(%rsp),%rdi
    53b9:	00 
    53ba:	48 85 ff             	test   %rdi,%rdi
    53bd:	74 05                	je     53c4 <_ZN2ML12build4QModelEv.cold+0x200>
    53bf:	e8 8c ee ff ff       	call   4250 <_ZdlPv@plt>
    53c4:	4c 89 e7             	mov    %r12,%rdi
    53c7:	e8 24 86 00 00       	call   d9f0 <_ZN2ML11LayerParamsD1Ev>
    53cc:	48 8b bc 24 80 01 00 	mov    0x180(%rsp),%rdi
    53d3:	00 
    53d4:	48 8b 44 24 48       	mov    0x48(%rsp),%rax
    53d9:	48 39 c7             	cmp    %rax,%rdi
    53dc:	74 05                	je     53e3 <_ZN2ML12build4QModelEv.cold+0x21f>
    53de:	e8 6d ee ff ff       	call   4250 <_ZdlPv@plt>
    53e3:	48 8b bc 24 40 01 00 	mov    0x140(%rsp),%rdi
    53ea:	00 
    53eb:	48 85 ff             	test   %rdi,%rdi
    53ee:	75 35                	jne    5425 <_ZN2ML12build4QModelEv.cold+0x261>
    53f0:	4c 89 ef             	mov    %r13,%rdi
    53f3:	e8 f8 85 00 00       	call   d9f0 <_ZN2ML11LayerParamsD1Ev>
    53f8:	48 8b bc 24 a0 01 00 	mov    0x1a0(%rsp),%rdi
    53ff:	00 
    5400:	48 8b 44 24 40       	mov    0x40(%rsp),%rax
    5405:	48 39 c7             	cmp    %rax,%rdi
    5408:	74 05                	je     540f <_ZN2ML12build4QModelEv.cold+0x24b>
    540a:	e8 41 ee ff ff       	call   4250 <_ZdlPv@plt>
    540f:	48 8b bc 24 60 01 00 	mov    0x160(%rsp),%rdi
    5416:	00 
    5417:	48 85 ff             	test   %rdi,%rdi
    541a:	0f 85 de fd ff ff    	jne    51fe <_ZN2ML12build4QModelEv.cold+0x3a>
    5420:	e9 de fd ff ff       	jmp    5203 <_ZN2ML12build4QModelEv.cold+0x3f>
    5425:	e8 26 ee ff ff       	call   4250 <_ZdlPv@plt>
    542a:	eb c4                	jmp    53f0 <_ZN2ML12build4QModelEv.cold+0x22c>
    542c:	4c 89 f7             	mov    %r14,%rdi
    542f:	c5 f8 77             	vzeroupper
    5432:	4d 89 fe             	mov    %r15,%r14
    5435:	e8 b6 85 00 00       	call   d9f0 <_ZN2ML11LayerParamsD1Ev>
    543a:	48 8b bc 24 00 01 00 	mov    0x100(%rsp),%rdi
    5441:	00 
    5442:	48 85 ff             	test   %rdi,%rdi
    5445:	74 05                	je     544c <_ZN2ML12build4QModelEv.cold+0x288>
    5447:	e8 04 ee ff ff       	call   4250 <_ZdlPv@plt>
    544c:	48 89 df             	mov    %rbx,%rdi
    544f:	4c 89 f3             	mov    %r14,%rbx
    5452:	e8 99 85 00 00       	call   d9f0 <_ZN2ML11LayerParamsD1Ev>
    5457:	48 8b bc 24 20 01 00 	mov    0x120(%rsp),%rdi
    545e:	00 
    545f:	48 85 ff             	test   %rdi,%rdi
    5462:	0f 85 7a 01 00 00    	jne    55e2 <_ZN2ML12build4QModelEv.cold+0x41e>
    5468:	4c 89 e7             	mov    %r12,%rdi
    546b:	e8 80 85 00 00       	call   d9f0 <_ZN2ML11LayerParamsD1Ev>
    5470:	48 8b bc 24 80 01 00 	mov    0x180(%rsp),%rdi
    5477:	00 
    5478:	48 8b 44 24 48       	mov    0x48(%rsp),%rax
    547d:	48 39 c7             	cmp    %rax,%rdi
    5480:	74 05                	je     5487 <_ZN2ML12build4QModelEv.cold+0x2c3>
    5482:	e8 c9 ed ff ff       	call   4250 <_ZdlPv@plt>
    5487:	48 8b bc 24 40 01 00 	mov    0x140(%rsp),%rdi
    548e:	00 
    548f:	48 85 ff             	test   %rdi,%rdi
    5492:	0f 85 62 01 00 00    	jne    55fa <_ZN2ML12build4QModelEv.cold+0x436>
    5498:	4c 89 ef             	mov    %r13,%rdi
    549b:	e8 50 85 00 00       	call   d9f0 <_ZN2ML11LayerParamsD1Ev>
    54a0:	48 8b bc 24 a0 01 00 	mov    0x1a0(%rsp),%rdi
    54a7:	00 
    54a8:	48 8b 44 24 40       	mov    0x40(%rsp),%rax
    54ad:	48 39 c7             	cmp    %rax,%rdi
    54b0:	0f 84 59 ff ff ff    	je     540f <_ZN2ML12build4QModelEv.cold+0x24b>
    54b6:	e8 95 ed ff ff       	call   4250 <_ZdlPv@plt>
    54bb:	e9 4f ff ff ff       	jmp    540f <_ZN2ML12build4QModelEv.cold+0x24b>
    54c0:	4c 89 f7             	mov    %r14,%rdi
    54c3:	c5 f8 77             	vzeroupper
    54c6:	4d 89 fe             	mov    %r15,%r14
    54c9:	e8 22 85 00 00       	call   d9f0 <_ZN2ML11LayerParamsD1Ev>
    54ce:	48 8b bc 24 c0 00 00 	mov    0xc0(%rsp),%rdi
    54d5:	00 
    54d6:	48 85 ff             	test   %rdi,%rdi
    54d9:	74 05                	je     54e0 <_ZN2ML12build4QModelEv.cold+0x31c>
    54db:	e8 70 ed ff ff       	call   4250 <_ZdlPv@plt>
    54e0:	48 89 df             	mov    %rbx,%rdi
    54e3:	4c 89 f3             	mov    %r14,%rbx
    54e6:	e8 05 85 00 00       	call   d9f0 <_ZN2ML11LayerParamsD1Ev>
    54eb:	48 8b bc 24 00 01 00 	mov    0x100(%rsp),%rdi
    54f2:	00 
    54f3:	48 85 ff             	test   %rdi,%rdi
    54f6:	74 05                	je     54fd <_ZN2ML12build4QModelEv.cold+0x339>
    54f8:	e8 53 ed ff ff       	call   4250 <_ZdlPv@plt>
    54fd:	4c 89 e7             	mov    %r12,%rdi
    5500:	e8 eb 84 00 00       	call   d9f0 <_ZN2ML11LayerParamsD1Ev>
    5505:	48 8b bc 24 80 01 00 	mov    0x180(%rsp),%rdi
    550c:	00 
    550d:	48 8b 44 24 48       	mov    0x48(%rsp),%rax
    5512:	48 39 c7             	cmp    %rax,%rdi
    5515:	74 05                	je     551c <_ZN2ML12build4QModelEv.cold+0x358>
    5517:	e8 34 ed ff ff       	call   4250 <_ZdlPv@plt>
    551c:	48 8b bc 24 20 01 00 	mov    0x120(%rsp),%rdi
    5523:	00 
    5524:	48 85 ff             	test   %rdi,%rdi
    5527:	74 05                	je     552e <_ZN2ML12build4QModelEv.cold+0x36a>
    5529:	e8 22 ed ff ff       	call   4250 <_ZdlPv@plt>
    552e:	4c 89 ef             	mov    %r13,%rdi
    5531:	e8 ba 84 00 00       	call   d9f0 <_ZN2ML11LayerParamsD1Ev>
    5536:	48 8b bc 24 a0 01 00 	mov    0x1a0(%rsp),%rdi
    553d:	00 
    553e:	48 8b 44 24 40       	mov    0x40(%rsp),%rax
    5543:	48 39 c7             	cmp    %rax,%rdi
    5546:	0f 84 55 fd ff ff    	je     52a1 <_ZN2ML12build4QModelEv.cold+0xdd>
    554c:	e8 ff ec ff ff       	call   4250 <_ZdlPv@plt>
    5551:	e9 4b fd ff ff       	jmp    52a1 <_ZN2ML12build4QModelEv.cold+0xdd>
    5556:	4c 89 f7             	mov    %r14,%rdi
    5559:	c5 f8 77             	vzeroupper
    555c:	4d 89 fe             	mov    %r15,%r14
    555f:	e8 8c 84 00 00       	call   d9f0 <_ZN2ML11LayerParamsD1Ev>
    5564:	48 8b bc 24 c0 00 00 	mov    0xc0(%rsp),%rdi
    556b:	00 
    556c:	48 85 ff             	test   %rdi,%rdi
    556f:	74 05                	je     5576 <_ZN2ML12build4QModelEv.cold+0x3b2>
    5571:	e8 da ec ff ff       	call   4250 <_ZdlPv@plt>
    5576:	48 89 df             	mov    %rbx,%rdi
    5579:	4c 89 f3             	mov    %r14,%rbx
    557c:	e8 6f 84 00 00       	call   d9f0 <_ZN2ML11LayerParamsD1Ev>
    5581:	48 8b bc 24 00 01 00 	mov    0x100(%rsp),%rdi
    5588:	00 
    5589:	48 85 ff             	test   %rdi,%rdi
    558c:	75 5e                	jne    55ec <_ZN2ML12build4QModelEv.cold+0x428>
    558e:	4c 89 e7             	mov    %r12,%rdi
    5591:	e8 5a 84 00 00       	call   d9f0 <_ZN2ML11LayerParamsD1Ev>
    5596:	48 8b bc 24 80 01 00 	mov    0x180(%rsp),%rdi
    559d:	00 
    559e:	48 8b 44 24 48       	mov    0x48(%rsp),%rax
    55a3:	48 39 c7             	cmp    %rax,%rdi
    55a6:	74 05                	je     55ad <_ZN2ML12build4QModelEv.cold+0x3e9>
    55a8:	e8 a3 ec ff ff       	call   4250 <_ZdlPv@plt>
    55ad:	48 8b bc 24 20 01 00 	mov    0x120(%rsp),%rdi
    55b4:	00 
    55b5:	48 85 ff             	test   %rdi,%rdi
    55b8:	75 39                	jne    55f3 <_ZN2ML12build4QModelEv.cold+0x42f>
    55ba:	4c 89 ef             	mov    %r13,%rdi
    55bd:	e8 2e 84 00 00       	call   d9f0 <_ZN2ML11LayerParamsD1Ev>
    55c2:	48 8b bc 24 a0 01 00 	mov    0x1a0(%rsp),%rdi
    55c9:	00 
    55ca:	48 8b 44 24 40       	mov    0x40(%rsp),%rax
    55cf:	48 39 c7             	cmp    %rax,%rdi
    55d2:	0f 84 c9 fc ff ff    	je     52a1 <_ZN2ML12build4QModelEv.cold+0xdd>
    55d8:	e8 73 ec ff ff       	call   4250 <_ZdlPv@plt>
    55dd:	e9 bf fc ff ff       	jmp    52a1 <_ZN2ML12build4QModelEv.cold+0xdd>
    55e2:	e8 69 ec ff ff       	call   4250 <_ZdlPv@plt>
    55e7:	e9 7c fe ff ff       	jmp    5468 <_ZN2ML12build4QModelEv.cold+0x2a4>
    55ec:	e8 5f ec ff ff       	call   4250 <_ZdlPv@plt>
    55f1:	eb 9b                	jmp    558e <_ZN2ML12build4QModelEv.cold+0x3ca>
    55f3:	e8 58 ec ff ff       	call   4250 <_ZdlPv@plt>
    55f8:	eb c0                	jmp    55ba <_ZN2ML12build4QModelEv.cold+0x3f6>
    55fa:	e8 51 ec ff ff       	call   4250 <_ZdlPv@plt>
    55ff:	e9 94 fe ff ff       	jmp    5498 <_ZN2ML12build4QModelEv.cold+0x2d4>
    5604:	4c 89 e7             	mov    %r12,%rdi
    5607:	c5 f8 77             	vzeroupper
    560a:	e8 e1 83 00 00       	call   d9f0 <_ZN2ML11LayerParamsD1Ev>
    560f:	48 8b bc 24 a0 01 00 	mov    0x1a0(%rsp),%rdi
    5616:	00 
    5617:	48 85 ff             	test   %rdi,%rdi
    561a:	74 05                	je     5621 <_ZN2ML12build4QModelEv.cold+0x45d>
    561c:	e8 2f ec ff ff       	call   4250 <_ZdlPv@plt>
    5621:	4c 89 ef             	mov    %r13,%rdi
    5624:	e8 c7 83 00 00       	call   d9f0 <_ZN2ML11LayerParamsD1Ev>
    5629:	e9 c3 fb ff ff       	jmp    51f1 <_ZN2ML12build4QModelEv.cold+0x2d>
    562e:	4c 89 e7             	mov    %r12,%rdi
    5631:	c5 f8 77             	vzeroupper
    5634:	e8 b7 83 00 00       	call   d9f0 <_ZN2ML11LayerParamsD1Ev>
    5639:	48 8b bc 24 a0 01 00 	mov    0x1a0(%rsp),%rdi
    5640:	00 
    5641:	48 85 ff             	test   %rdi,%rdi
    5644:	74 05                	je     564b <_ZN2ML12build4QModelEv.cold+0x487>
    5646:	e8 05 ec ff ff       	call   4250 <_ZdlPv@plt>
    564b:	4c 89 ef             	mov    %r13,%rdi
    564e:	e8 9d 83 00 00       	call   d9f0 <_ZN2ML11LayerParamsD1Ev>
    5653:	e9 99 fb ff ff       	jmp    51f1 <_ZN2ML12build4QModelEv.cold+0x2d>
    5658:	4c 89 f7             	mov    %r14,%rdi
    565b:	c5 f8 77             	vzeroupper
    565e:	4d 89 fe             	mov    %r15,%r14
    5661:	e8 8a 83 00 00       	call   d9f0 <_ZN2ML11LayerParamsD1Ev>
    5666:	48 8b bc 24 c0 00 00 	mov    0xc0(%rsp),%rdi
    566d:	00 
    566e:	48 85 ff             	test   %rdi,%rdi
    5671:	74 05                	je     5678 <_ZN2ML12build4QModelEv.cold+0x4b4>
    5673:	e8 d8 eb ff ff       	call   4250 <_ZdlPv@plt>
    5678:	48 89 df             	mov    %rbx,%rdi
    567b:	4c 89 f3             	mov    %r14,%rbx
    567e:	e8 6d 83 00 00       	call   d9f0 <_ZN2ML11LayerParamsD1Ev>
    5683:	48 8b bc 24 00 01 00 	mov    0x100(%rsp),%rdi
    568a:	00 
    568b:	48 85 ff             	test   %rdi,%rdi
    568e:	74 05                	je     5695 <_ZN2ML12build4QModelEv.cold+0x4d1>
    5690:	e8 bb eb ff ff       	call   4250 <_ZdlPv@plt>
    5695:	4c 89 e7             	mov    %r12,%rdi
    5698:	e8 53 83 00 00       	call   d9f0 <_ZN2ML11LayerParamsD1Ev>
    569d:	48 8b bc 24 80 01 00 	mov    0x180(%rsp),%rdi
    56a4:	00 
    56a5:	48 8b 44 24 48       	mov    0x48(%rsp),%rax
    56aa:	48 39 c7             	cmp    %rax,%rdi
    56ad:	74 05                	je     56b4 <_ZN2ML12build4QModelEv.cold+0x4f0>
    56af:	e8 9c eb ff ff       	call   4250 <_ZdlPv@plt>
    56b4:	48 8b bc 24 20 01 00 	mov    0x120(%rsp),%rdi
    56bb:	00 
    56bc:	48 85 ff             	test   %rdi,%rdi
    56bf:	74 05                	je     56c6 <_ZN2ML12build4QModelEv.cold+0x502>
    56c1:	e8 8a eb ff ff       	call   4250 <_ZdlPv@plt>
    56c6:	4c 89 ef             	mov    %r13,%rdi
    56c9:	e8 22 83 00 00       	call   d9f0 <_ZN2ML11LayerParamsD1Ev>
    56ce:	48 8b bc 24 a0 01 00 	mov    0x1a0(%rsp),%rdi
    56d5:	00 
    56d6:	48 8b 44 24 40       	mov    0x40(%rsp),%rax
    56db:	48 39 c7             	cmp    %rax,%rdi
    56de:	0f 84 bd fb ff ff    	je     52a1 <_ZN2ML12build4QModelEv.cold+0xdd>
    56e4:	e8 67 eb ff ff       	call   4250 <_ZdlPv@plt>
    56e9:	e9 b3 fb ff ff       	jmp    52a1 <_ZN2ML12build4QModelEv.cold+0xdd>
    56ee:	e8 5d eb ff ff       	call   4250 <_ZdlPv@plt>
    56f3:	e9 8a fb ff ff       	jmp    5282 <_ZN2ML12build4QModelEv.cold+0xbe>
    56f8:	4c 89 f7             	mov    %r14,%rdi
    56fb:	c5 f8 77             	vzeroupper
    56fe:	4d 89 fe             	mov    %r15,%r14
    5701:	e8 ea 82 00 00       	call   d9f0 <_ZN2ML11LayerParamsD1Ev>
    5706:	48 8b bc 24 c0 00 00 	mov    0xc0(%rsp),%rdi
    570d:	00 
    570e:	48 85 ff             	test   %rdi,%rdi
    5711:	74 05                	je     5718 <_ZN2ML12build4QModelEv.cold+0x554>
    5713:	e8 38 eb ff ff       	call   4250 <_ZdlPv@plt>
    5718:	48 89 df             	mov    %rbx,%rdi
    571b:	4c 89 f3             	mov    %r14,%rbx
    571e:	e8 cd 82 00 00       	call   d9f0 <_ZN2ML11LayerParamsD1Ev>
    5723:	48 8b bc 24 00 01 00 	mov    0x100(%rsp),%rdi
    572a:	00 
    572b:	48 85 ff             	test   %rdi,%rdi
    572e:	74 05                	je     5735 <_ZN2ML12build4QModelEv.cold+0x571>
    5730:	e8 1b eb ff ff       	call   4250 <_ZdlPv@plt>
    5735:	4c 89 e7             	mov    %r12,%rdi
    5738:	e8 b3 82 00 00       	call   d9f0 <_ZN2ML11LayerParamsD1Ev>
    573d:	48 8b bc 24 80 01 00 	mov    0x180(%rsp),%rdi
    5744:	00 
    5745:	48 8b 44 24 48       	mov    0x48(%rsp),%rax
    574a:	48 39 c7             	cmp    %rax,%rdi
    574d:	74 05                	je     5754 <_ZN2ML12build4QModelEv.cold+0x590>
    574f:	e8 fc ea ff ff       	call   4250 <_ZdlPv@plt>
    5754:	48 8b bc 24 20 01 00 	mov    0x120(%rsp),%rdi
    575b:	00 
    575c:	48 85 ff             	test   %rdi,%rdi
    575f:	74 05                	je     5766 <_ZN2ML12build4QModelEv.cold+0x5a2>
    5761:	e8 ea ea ff ff       	call   4250 <_ZdlPv@plt>
    5766:	4c 89 ef             	mov    %r13,%rdi
    5769:	e8 82 82 00 00       	call   d9f0 <_ZN2ML11LayerParamsD1Ev>
    576e:	48 8b bc 24 a0 01 00 	mov    0x1a0(%rsp),%rdi
    5775:	00 
    5776:	48 8b 44 24 40       	mov    0x40(%rsp),%rax
    577b:	48 39 c7             	cmp    %rax,%rdi
    577e:	0f 84 1d fb ff ff    	je     52a1 <_ZN2ML12build4QModelEv.cold+0xdd>
    5784:	e8 c7 ea ff ff       	call   4250 <_ZdlPv@plt>
    5789:	e9 13 fb ff ff       	jmp    52a1 <_ZN2ML12build4QModelEv.cold+0xdd>
    578e:	4c 89 e7             	mov    %r12,%rdi
    5791:	c5 f8 77             	vzeroupper
    5794:	e8 57 82 00 00       	call   d9f0 <_ZN2ML11LayerParamsD1Ev>
    5799:	48 8b bc 24 a0 01 00 	mov    0x1a0(%rsp),%rdi
    57a0:	00 
    57a1:	48 85 ff             	test   %rdi,%rdi
    57a4:	74 05                	je     57ab <_ZN2ML12build4QModelEv.cold+0x5e7>
    57a6:	e8 a5 ea ff ff       	call   4250 <_ZdlPv@plt>
    57ab:	4c 89 ef             	mov    %r13,%rdi
    57ae:	e8 3d 82 00 00       	call   d9f0 <_ZN2ML11LayerParamsD1Ev>
    57b3:	e9 39 fa ff ff       	jmp    51f1 <_ZN2ML12build4QModelEv.cold+0x2d>

00000000000057b8 <_ZN2ML12build8QModelEv.cold>:
    57b8:	4c 89 f7             	mov    %r14,%rdi
    57bb:	c5 f8 77             	vzeroupper
    57be:	e8 8d ea ff ff       	call   4250 <_ZdlPv@plt>
    57c3:	4c 89 e7             	mov    %r12,%rdi
    57c6:	e8 25 82 00 00       	call   d9f0 <_ZN2ML11LayerParamsD1Ev>
    57cb:	48 8b bc 24 c0 01 00 	mov    0x1c0(%rsp),%rdi
    57d2:	00 
    57d3:	48 85 ff             	test   %rdi,%rdi
    57d6:	74 05                	je     57dd <_ZN2ML12build8QModelEv.cold+0x25>
    57d8:	e8 73 ea ff ff       	call   4250 <_ZdlPv@plt>
    57dd:	4c 89 ef             	mov    %r13,%rdi
    57e0:	e8 0b 82 00 00       	call   d9f0 <_ZN2ML11LayerParamsD1Ev>
    57e5:	48 8b bc 24 00 02 00 	mov    0x200(%rsp),%rdi
    57ec:	00 
    57ed:	48 85 ff             	test   %rdi,%rdi
    57f0:	74 05                	je     57f7 <_ZN2ML12build8QModelEv.cold+0x3f>
    57f2:	e8 59 ea ff ff       	call   4250 <_ZdlPv@plt>
    57f7:	48 8b 7c 24 78       	mov    0x78(%rsp),%rdi
    57fc:	e8 9f 34 02 00       	call   28ca0 <_ZNSt6vectorISt10unique_ptrIN2ML5LayerESt14default_deleteIS2_EESaIS5_EED1Ev>
    5801:	48 89 df             	mov    %rbx,%rdi
    5804:	e8 47 ec ff ff       	call   4450 <_Unwind_Resume@plt>
    5809:	4c 89 f7             	mov    %r14,%rdi
    580c:	c5 f8 77             	vzeroupper
    580f:	4d 89 fe             	mov    %r15,%r14
    5812:	e8 d9 81 00 00       	call   d9f0 <_ZN2ML11LayerParamsD1Ev>
    5817:	48 8b bc 24 c0 00 00 	mov    0xc0(%rsp),%rdi
    581e:	00 
    581f:	48 85 ff             	test   %rdi,%rdi
    5822:	74 05                	je     5829 <_ZN2ML12build8QModelEv.cold+0x71>
    5824:	e8 27 ea ff ff       	call   4250 <_ZdlPv@plt>
    5829:	48 89 df             	mov    %rbx,%rdi
    582c:	4c 89 f3             	mov    %r14,%rbx
    582f:	e8 bc 81 00 00       	call   d9f0 <_ZN2ML11LayerParamsD1Ev>
    5834:	48 8b bc 24 00 01 00 	mov    0x100(%rsp),%rdi
    583b:	00 
    583c:	48 85 ff             	test   %rdi,%rdi
    583f:	74 05                	je     5846 <_ZN2ML12build8QModelEv.cold+0x8e>
    5841:	e8 0a ea ff ff       	call   4250 <_ZdlPv@plt>
    5846:	4c 89 e7             	mov    %r12,%rdi
    5849:	e8 a2 81 00 00       	call   d9f0 <_ZN2ML11LayerParamsD1Ev>
    584e:	48 8b bc 24 80 01 00 	mov    0x180(%rsp),%rdi
    5855:	00 
    5856:	48 8b 44 24 48       	mov    0x48(%rsp),%rax
    585b:	48 39 c7             	cmp    %rax,%rdi
    585e:	74 05                	je     5865 <_ZN2ML12build8QModelEv.cold+0xad>
    5860:	e8 eb e9 ff ff       	call   4250 <_ZdlPv@plt>
    5865:	48 8b bc 24 20 01 00 	mov    0x120(%rsp),%rdi
    586c:	00 
    586d:	48 85 ff             	test   %rdi,%rdi
    5870:	0f 85 6c 04 00 00    	jne    5ce2 <_ZN2ML12build8QModelEv.cold+0x52a>
    5876:	4c 89 ef             	mov    %r13,%rdi
    5879:	e8 72 81 00 00       	call   d9f0 <_ZN2ML11LayerParamsD1Ev>
    587e:	48 8b bc 24 a0 01 00 	mov    0x1a0(%rsp),%rdi
    5885:	00 
    5886:	48 8b 44 24 40       	mov    0x40(%rsp),%rax
    588b:	48 39 c7             	cmp    %rax,%rdi
    588e:	74 05                	je     5895 <_ZN2ML12build8QModelEv.cold+0xdd>
    5890:	e8 bb e9 ff ff       	call   4250 <_ZdlPv@plt>
    5895:	48 8b bc 24 40 01 00 	mov    0x140(%rsp),%rdi
    589c:	00 
    589d:	48 85 ff             	test   %rdi,%rdi
    58a0:	0f 85 4c ff ff ff    	jne    57f2 <_ZN2ML12build8QModelEv.cold+0x3a>
    58a6:	e9 4c ff ff ff       	jmp    57f7 <_ZN2ML12build8QModelEv.cold+0x3f>
    58ab:	4c 89 f7             	mov    %r14,%rdi
    58ae:	c5 f8 77             	vzeroupper
    58b1:	4d 89 fe             	mov    %r15,%r14
    58b4:	e8 37 81 00 00       	call   d9f0 <_ZN2ML11LayerParamsD1Ev>
    58b9:	48 8b bc 24 c0 00 00 	mov    0xc0(%rsp),%rdi
    58c0:	00 
    58c1:	48 85 ff             	test   %rdi,%rdi
    58c4:	74 05                	je     58cb <_ZN2ML12build8QModelEv.cold+0x113>
    58c6:	e8 85 e9 ff ff       	call   4250 <_ZdlPv@plt>
    58cb:	48 89 df             	mov    %rbx,%rdi
    58ce:	4c 89 f3             	mov    %r14,%rbx
    58d1:	e8 1a 81 00 00       	call   d9f0 <_ZN2ML11LayerParamsD1Ev>
    58d6:	48 8b bc 24 00 01 00 	mov    0x100(%rsp),%rdi
    58dd:	00 
    58de:	48 85 ff             	test   %rdi,%rdi
    58e1:	74 05                	je     58e8 <_ZN2ML12build8QModelEv.cold+0x130>
    58e3:	e8 68 e9 ff ff       	call   4250 <_ZdlPv@plt>
    58e8:	4c 89 e7             	mov    %r12,%rdi
    58eb:	e8 00 81 00 00       	call   d9f0 <_ZN2ML11LayerParamsD1Ev>
    58f0:	48 8b bc 24 80 01 00 	mov    0x180(%rsp),%rdi
    58f7:	00 
    58f8:	48 8d 84 24 90 01 00 	lea    0x190(%rsp),%rax
    58ff:	00 
    5900:	48 39 c7             	cmp    %rax,%rdi
    5903:	74 05                	je     590a <_ZN2ML12build8QModelEv.cold+0x152>
    5905:	e8 46 e9 ff ff       	call   4250 <_ZdlPv@plt>
    590a:	48 8b bc 24 20 01 00 	mov    0x120(%rsp),%rdi
    5911:	00 
    5912:	48 85 ff             	test   %rdi,%rdi
    5915:	74 05                	je     591c <_ZN2ML12build8QModelEv.cold+0x164>
    5917:	e8 34 e9 ff ff       	call   4250 <_ZdlPv@plt>
    591c:	4c 89 ef             	mov    %r13,%rdi
    591f:	e8 cc 80 00 00       	call   d9f0 <_ZN2ML11LayerParamsD1Ev>
    5924:	48 8b bc 24 a0 01 00 	mov    0x1a0(%rsp),%rdi
    592b:	00 
    592c:	48 8d 84 24 b0 01 00 	lea    0x1b0(%rsp),%rax
    5933:	00 
    5934:	48 39 c7             	cmp    %rax,%rdi
    5937:	0f 84 58 ff ff ff    	je     5895 <_ZN2ML12build8QModelEv.cold+0xdd>
    593d:	e8 0e e9 ff ff       	call   4250 <_ZdlPv@plt>
    5942:	e9 4e ff ff ff       	jmp    5895 <_ZN2ML12build8QModelEv.cold+0xdd>
    5947:	48 8b 7c 24 20       	mov    0x20(%rsp),%rdi
    594c:	c5 f8 77             	vzeroupper
    594f:	e8 fc e8 ff ff       	call   4250 <_ZdlPv@plt>
    5954:	4c 89 e7             	mov    %r12,%rdi
    5957:	e8 94 80 00 00       	call   d9f0 <_ZN2ML11LayerParamsD1Ev>
    595c:	48 8b bc 24 c0 01 00 	mov    0x1c0(%rsp),%rdi
    5963:	00 
    5964:	48 85 ff             	test   %rdi,%rdi
    5967:	74 05                	je     596e <_ZN2ML12build8QModelEv.cold+0x1b6>
    5969:	e8 e2 e8 ff ff       	call   4250 <_ZdlPv@plt>
    596e:	4c 89 ef             	mov    %r13,%rdi
    5971:	e8 7a 80 00 00       	call   d9f0 <_ZN2ML11LayerParamsD1Ev>
    5976:	e9 6a fe ff ff       	jmp    57e5 <_ZN2ML12build8QModelEv.cold+0x2d>
    597b:	4c 89 f7             	mov    %r14,%rdi
    597e:	c5 f8 77             	vzeroupper
    5981:	4d 89 fe             	mov    %r15,%r14
    5984:	e8 67 80 00 00       	call   d9f0 <_ZN2ML11LayerParamsD1Ev>
    5989:	48 8b bc 24 00 01 00 	mov    0x100(%rsp),%rdi
    5990:	00 
    5991:	48 85 ff             	test   %rdi,%rdi
    5994:	74 05                	je     599b <_ZN2ML12build8QModelEv.cold+0x1e3>
    5996:	e8 b5 e8 ff ff       	call   4250 <_ZdlPv@plt>
    599b:	48 89 df             	mov    %rbx,%rdi
    599e:	4c 89 f3             	mov    %r14,%rbx
    59a1:	e8 4a 80 00 00       	call   d9f0 <_ZN2ML11LayerParamsD1Ev>
    59a6:	48 8b bc 24 20 01 00 	mov    0x120(%rsp),%rdi
    59ad:	00 
    59ae:	48 85 ff             	test   %rdi,%rdi
    59b1:	74 05                	je     59b8 <_ZN2ML12build8QModelEv.cold+0x200>
    59b3:	e8 98 e8 ff ff       	call   4250 <_ZdlPv@plt>
    59b8:	4c 89 e7             	mov    %r12,%rdi
    59bb:	e8 30 80 00 00       	call   d9f0 <_ZN2ML11LayerParamsD1Ev>
    59c0:	48 8b bc 24 80 01 00 	mov    0x180(%rsp),%rdi
    59c7:	00 
    59c8:	48 8b 44 24 48       	mov    0x48(%rsp),%rax
    59cd:	48 39 c7             	cmp    %rax,%rdi
    59d0:	74 05                	je     59d7 <_ZN2ML12build8QModelEv.cold+0x21f>
    59d2:	e8 79 e8 ff ff       	call   4250 <_ZdlPv@plt>
    59d7:	48 8b bc 24 40 01 00 	mov    0x140(%rsp),%rdi
    59de:	00 
    59df:	48 85 ff             	test   %rdi,%rdi
    59e2:	75 35                	jne    5a19 <_ZN2ML12build8QModelEv.cold+0x261>
    59e4:	4c 89 ef             	mov    %r13,%rdi
    59e7:	e8 04 80 00 00       	call   d9f0 <_ZN2ML11LayerParamsD1Ev>
    59ec:	48 8b bc 24 a0 01 00 	mov    0x1a0(%rsp),%rdi
    59f3:	00 
    59f4:	48 8b 44 24 40       	mov    0x40(%rsp),%rax
    59f9:	48 39 c7             	cmp    %rax,%rdi
    59fc:	74 05                	je     5a03 <_ZN2ML12build8QModelEv.cold+0x24b>
    59fe:	e8 4d e8 ff ff       	call   4250 <_ZdlPv@plt>
    5a03:	48 8b bc 24 60 01 00 	mov    0x160(%rsp),%rdi
    5a0a:	00 
    5a0b:	48 85 ff             	test   %rdi,%rdi
    5a0e:	0f 85 de fd ff ff    	jne    57f2 <_ZN2ML12build8QModelEv.cold+0x3a>
    5a14:	e9 de fd ff ff       	jmp    57f7 <_ZN2ML12build8QModelEv.cold+0x3f>
    5a19:	e8 32 e8 ff ff       	call   4250 <_ZdlPv@plt>
    5a1e:	eb c4                	jmp    59e4 <_ZN2ML12build8QModelEv.cold+0x22c>
    5a20:	4c 89 f7             	mov    %r14,%rdi
    5a23:	c5 f8 77             	vzeroupper
    5a26:	4d 89 fe             	mov    %r15,%r14
    5a29:	e8 c2 7f 00 00       	call   d9f0 <_ZN2ML11LayerParamsD1Ev>
    5a2e:	48 8b bc 24 00 01 00 	mov    0x100(%rsp),%rdi
    5a35:	00 
    5a36:	48 85 ff             	test   %rdi,%rdi
    5a39:	74 05                	je     5a40 <_ZN2ML12build8QModelEv.cold+0x288>
    5a3b:	e8 10 e8 ff ff       	call   4250 <_ZdlPv@plt>
    5a40:	48 89 df             	mov    %rbx,%rdi
    5a43:	4c 89 f3             	mov    %r14,%rbx
    5a46:	e8 a5 7f 00 00       	call   d9f0 <_ZN2ML11LayerParamsD1Ev>
    5a4b:	48 8b bc 24 20 01 00 	mov    0x120(%rsp),%rdi
    5a52:	00 
    5a53:	48 85 ff             	test   %rdi,%rdi
    5a56:	0f 85 7a 01 00 00    	jne    5bd6 <_ZN2ML12build8QModelEv.cold+0x41e>
    5a5c:	4c 89 e7             	mov    %r12,%rdi
    5a5f:	e8 8c 7f 00 00       	call   d9f0 <_ZN2ML11LayerParamsD1Ev>
    5a64:	48 8b bc 24 80 01 00 	mov    0x180(%rsp),%rdi
    5a6b:	00 
    5a6c:	48 8b 44 24 48       	mov    0x48(%rsp),%rax
    5a71:	48 39 c7             	cmp    %rax,%rdi
    5a74:	74 05                	je     5a7b <_ZN2ML12build8QModelEv.cold+0x2c3>
    5a76:	e8 d5 e7 ff ff       	call   4250 <_ZdlPv@plt>
    5a7b:	48 8b bc 24 40 01 00 	mov    0x140(%rsp),%rdi
    5a82:	00 
    5a83:	48 85 ff             	test   %rdi,%rdi
    5a86:	0f 85 62 01 00 00    	jne    5bee <_ZN2ML12build8QModelEv.cold+0x436>
    5a8c:	4c 89 ef             	mov    %r13,%rdi
    5a8f:	e8 5c 7f 00 00       	call   d9f0 <_ZN2ML11LayerParamsD1Ev>
    5a94:	48 8b bc 24 a0 01 00 	mov    0x1a0(%rsp),%rdi
    5a9b:	00 
    5a9c:	48 8b 44 24 40       	mov    0x40(%rsp),%rax
    5aa1:	48 39 c7             	cmp    %rax,%rdi
    5aa4:	0f 84 59 ff ff ff    	je     5a03 <_ZN2ML12build8QModelEv.cold+0x24b>
    5aaa:	e8 a1 e7 ff ff       	call   4250 <_ZdlPv@plt>
    5aaf:	e9 4f ff ff ff       	jmp    5a03 <_ZN2ML12build8QModelEv.cold+0x24b>
    5ab4:	4c 89 f7             	mov    %r14,%rdi
    5ab7:	c5 f8 77             	vzeroupper
    5aba:	4d 89 fe             	mov    %r15,%r14
    5abd:	e8 2e 7f 00 00       	call   d9f0 <_ZN2ML11LayerParamsD1Ev>
    5ac2:	48 8b bc 24 c0 00 00 	mov    0xc0(%rsp),%rdi
    5ac9:	00 
    5aca:	48 85 ff             	test   %rdi,%rdi
    5acd:	74 05                	je     5ad4 <_ZN2ML12build8QModelEv.cold+0x31c>
    5acf:	e8 7c e7 ff ff       	call   4250 <_ZdlPv@plt>
    5ad4:	48 89 df             	mov    %rbx,%rdi
    5ad7:	4c 89 f3             	mov    %r14,%rbx
    5ada:	e8 11 7f 00 00       	call   d9f0 <_ZN2ML11LayerParamsD1Ev>
    5adf:	48 8b bc 24 00 01 00 	mov    0x100(%rsp),%rdi
    5ae6:	00 
    5ae7:	48 85 ff             	test   %rdi,%rdi
    5aea:	74 05                	je     5af1 <_ZN2ML12build8QModelEv.cold+0x339>
    5aec:	e8 5f e7 ff ff       	call   4250 <_ZdlPv@plt>
    5af1:	4c 89 e7             	mov    %r12,%rdi
    5af4:	e8 f7 7e 00 00       	call   d9f0 <_ZN2ML11LayerParamsD1Ev>
    5af9:	48 8b bc 24 80 01 00 	mov    0x180(%rsp),%rdi
    5b00:	00 
    5b01:	48 8b 44 24 48       	mov    0x48(%rsp),%rax
    5b06:	48 39 c7             	cmp    %rax,%rdi
    5b09:	74 05                	je     5b10 <_ZN2ML12build8QModelEv.cold+0x358>
    5b0b:	e8 40 e7 ff ff       	call   4250 <_ZdlPv@plt>
    5b10:	48 8b bc 24 20 01 00 	mov    0x120(%rsp),%rdi
    5b17:	00 
    5b18:	48 85 ff             	test   %rdi,%rdi
    5b1b:	74 05                	je     5b22 <_ZN2ML12build8QModelEv.cold+0x36a>
    5b1d:	e8 2e e7 ff ff       	call   4250 <_ZdlPv@plt>
    5b22:	4c 89 ef             	mov    %r13,%rdi
    5b25:	e8 c6 7e 00 00       	call   d9f0 <_ZN2ML11LayerParamsD1Ev>
    5b2a:	48 8b bc 24 a0 01 00 	mov    0x1a0(%rsp),%rdi
    5b31:	00 
    5b32:	48 8b 44 24 40       	mov    0x40(%rsp),%rax
    5b37:	48 39 c7             	cmp    %rax,%rdi
    5b3a:	0f 84 55 fd ff ff    	je     5895 <_ZN2ML12build8QModelEv.cold+0xdd>
    5b40:	e8 0b e7 ff ff       	call   4250 <_ZdlPv@plt>
    5b45:	e9 4b fd ff ff       	jmp    5895 <_ZN2ML12build8QModelEv.cold+0xdd>
    5b4a:	4c 89 f7             	mov    %r14,%rdi
    5b4d:	c5 f8 77             	vzeroupper
    5b50:	4d 89 fe             	mov    %r15,%r14
    5b53:	e8 98 7e 00 00       	call   d9f0 <_ZN2ML11LayerParamsD1Ev>
    5b58:	48 8b bc 24 c0 00 00 	mov    0xc0(%rsp),%rdi
    5b5f:	00 
    5b60:	48 85 ff             	test   %rdi,%rdi
    5b63:	74 05                	je     5b6a <_ZN2ML12build8QModelEv.cold+0x3b2>
    5b65:	e8 e6 e6 ff ff       	call   4250 <_ZdlPv@plt>
    5b6a:	48 89 df             	mov    %rbx,%rdi
    5b6d:	4c 89 f3             	mov    %r14,%rbx
    5b70:	e8 7b 7e 00 00       	call   d9f0 <_ZN2ML11LayerParamsD1Ev>
    5b75:	48 8b bc 24 00 01 00 	mov    0x100(%rsp),%rdi
    5b7c:	00 
    5b7d:	48 85 ff             	test   %rdi,%rdi
    5b80:	75 5e                	jne    5be0 <_ZN2ML12build8QModelEv.cold+0x428>
    5b82:	4c 89 e7             	mov    %r12,%rdi
    5b85:	e8 66 7e 00 00       	call   d9f0 <_ZN2ML11LayerParamsD1Ev>
    5b8a:	48 8b bc 24 80 01 00 	mov    0x180(%rsp),%rdi
    5b91:	00 
    5b92:	48 8b 44 24 48       	mov    0x48(%rsp),%rax
    5b97:	48 39 c7             	cmp    %rax,%rdi
    5b9a:	74 05                	je     5ba1 <_ZN2ML12build8QModelEv.cold+0x3e9>
    5b9c:	e8 af e6 ff ff       	call   4250 <_ZdlPv@plt>
    5ba1:	48 8b bc 24 20 01 00 	mov    0x120(%rsp),%rdi
    5ba8:	00 
    5ba9:	48 85 ff             	test   %rdi,%rdi
    5bac:	75 39                	jne    5be7 <_ZN2ML12build8QModelEv.cold+0x42f>
    5bae:	4c 89 ef             	mov    %r13,%rdi
    5bb1:	e8 3a 7e 00 00       	call   d9f0 <_ZN2ML11LayerParamsD1Ev>
    5bb6:	48 8b bc 24 a0 01 00 	mov    0x1a0(%rsp),%rdi
    5bbd:	00 
    5bbe:	48 8b 44 24 40       	mov    0x40(%rsp),%rax
    5bc3:	48 39 c7             	cmp    %rax,%rdi
    5bc6:	0f 84 c9 fc ff ff    	je     5895 <_ZN2ML12build8QModelEv.cold+0xdd>
    5bcc:	e8 7f e6 ff ff       	call   4250 <_ZdlPv@plt>
    5bd1:	e9 bf fc ff ff       	jmp    5895 <_ZN2ML12build8QModelEv.cold+0xdd>
    5bd6:	e8 75 e6 ff ff       	call   4250 <_ZdlPv@plt>
    5bdb:	e9 7c fe ff ff       	jmp    5a5c <_ZN2ML12build8QModelEv.cold+0x2a4>
    5be0:	e8 6b e6 ff ff       	call   4250 <_ZdlPv@plt>
    5be5:	eb 9b                	jmp    5b82 <_ZN2ML12build8QModelEv.cold+0x3ca>
    5be7:	e8 64 e6 ff ff       	call   4250 <_ZdlPv@plt>
    5bec:	eb c0                	jmp    5bae <_ZN2ML12build8QModelEv.cold+0x3f6>
    5bee:	e8 5d e6 ff ff       	call   4250 <_ZdlPv@plt>
    5bf3:	e9 94 fe ff ff       	jmp    5a8c <_ZN2ML12build8QModelEv.cold+0x2d4>
    5bf8:	4c 89 e7             	mov    %r12,%rdi
    5bfb:	c5 f8 77             	vzeroupper
    5bfe:	e8 ed 7d 00 00       	call   d9f0 <_ZN2ML11LayerParamsD1Ev>
    5c03:	48 8b bc 24 a0 01 00 	mov    0x1a0(%rsp),%rdi
    5c0a:	00 
    5c0b:	48 85 ff             	test   %rdi,%rdi
    5c0e:	74 05                	je     5c15 <_ZN2ML12build8QModelEv.cold+0x45d>
    5c10:	e8 3b e6 ff ff       	call   4250 <_ZdlPv@plt>
    5c15:	4c 89 ef             	mov    %r13,%rdi
    5c18:	e8 d3 7d 00 00       	call   d9f0 <_ZN2ML11LayerParamsD1Ev>
    5c1d:	e9 c3 fb ff ff       	jmp    57e5 <_ZN2ML12build8QModelEv.cold+0x2d>
    5c22:	4c 89 e7             	mov    %r12,%rdi
    5c25:	c5 f8 77             	vzeroupper
    5c28:	e8 c3 7d 00 00       	call   d9f0 <_ZN2ML11LayerParamsD1Ev>
    5c2d:	48 8b bc 24 a0 01 00 	mov    0x1a0(%rsp),%rdi
    5c34:	00 
    5c35:	48 85 ff             	test   %rdi,%rdi
    5c38:	74 05                	je     5c3f <_ZN2ML12build8QModelEv.cold+0x487>
    5c3a:	e8 11 e6 ff ff       	call   4250 <_ZdlPv@plt>
    5c3f:	4c 89 ef             	mov    %r13,%rdi
    5c42:	e8 a9 7d 00 00       	call   d9f0 <_ZN2ML11LayerParamsD1Ev>
    5c47:	e9 99 fb ff ff       	jmp    57e5 <_ZN2ML12build8QModelEv.cold+0x2d>
    5c4c:	4c 89 f7             	mov    %r14,%rdi
    5c4f:	c5 f8 77             	vzeroupper
    5c52:	4d 89 fe             	mov    %r15,%r14
    5c55:	e8 96 7d 00 00       	call   d9f0 <_ZN2ML11LayerParamsD1Ev>
    5c5a:	48 8b bc 24 c0 00 00 	mov    0xc0(%rsp),%rdi
    5c61:	00 
    5c62:	48 85 ff             	test   %rdi,%rdi
    5c65:	74 05                	je     5c6c <_ZN2ML12build8QModelEv.cold+0x4b4>
    5c67:	e8 e4 e5 ff ff       	call   4250 <_ZdlPv@plt>
    5c6c:	48 89 df             	mov    %rbx,%rdi
    5c6f:	4c 89 f3             	mov    %r14,%rbx
    5c72:	e8 79 7d 00 00       	call   d9f0 <_ZN2ML11LayerParamsD1Ev>
    5c77:	48 8b bc 24 00 01 00 	mov    0x100(%rsp),%rdi
    5c7e:	00 
    5c7f:	48 85 ff             	test   %rdi,%rdi
    5c82:	74 05                	je     5c89 <_ZN2ML12build8QModelEv.cold+0x4d1>
    5c84:	e8 c7 e5 ff ff       	call   4250 <_ZdlPv@plt>
    5c89:	4c 89 e7             	mov    %r12,%rdi
    5c8c:	e8 5f 7d 00 00       	call   d9f0 <_ZN2ML11LayerParamsD1Ev>
    5c91:	48 8b bc 24 80 01 00 	mov    0x180(%rsp),%rdi
    5c98:	00 
    5c99:	48 8b 44 24 48       	mov    0x48(%rsp),%rax
    5c9e:	48 39 c7             	cmp    %rax,%rdi
    5ca1:	74 05                	je     5ca8 <_ZN2ML12build8QModelEv.cold+0x4f0>
    5ca3:	e8 a8 e5 ff ff       	call   4250 <_ZdlPv@plt>
    5ca8:	48 8b bc 24 20 01 00 	mov    0x120(%rsp),%rdi
    5caf:	00 
    5cb0:	48 85 ff             	test   %rdi,%rdi
    5cb3:	74 05                	je     5cba <_ZN2ML12build8QModelEv.cold+0x502>
    5cb5:	e8 96 e5 ff ff       	call   4250 <_ZdlPv@plt>
    5cba:	4c 89 ef             	mov    %r13,%rdi
    5cbd:	e8 2e 7d 00 00       	call   d9f0 <_ZN2ML11LayerParamsD1Ev>
    5cc2:	48 8b bc 24 a0 01 00 	mov    0x1a0(%rsp),%rdi
    5cc9:	00 
    5cca:	48 8b 44 24 40       	mov    0x40(%rsp),%rax
    5ccf:	48 39 c7             	cmp    %rax,%rdi
    5cd2:	0f 84 bd fb ff ff    	je     5895 <_ZN2ML12build8QModelEv.cold+0xdd>
    5cd8:	e8 73 e5 ff ff       	call   4250 <_ZdlPv@plt>
    5cdd:	e9 b3 fb ff ff       	jmp    5895 <_ZN2ML12build8QModelEv.cold+0xdd>
    5ce2:	e8 69 e5 ff ff       	call   4250 <_ZdlPv@plt>
    5ce7:	e9 8a fb ff ff       	jmp    5876 <_ZN2ML12build8QModelEv.cold+0xbe>
    5cec:	4c 89 f7             	mov    %r14,%rdi
    5cef:	c5 f8 77             	vzeroupper
    5cf2:	4d 89 fe             	mov    %r15,%r14
    5cf5:	e8 f6 7c 00 00       	call   d9f0 <_ZN2ML11LayerParamsD1Ev>
    5cfa:	48 8b bc 24 c0 00 00 	mov    0xc0(%rsp),%rdi
    5d01:	00 
    5d02:	48 85 ff             	test   %rdi,%rdi
    5d05:	74 05                	je     5d0c <_ZN2ML12build8QModelEv.cold+0x554>
    5d07:	e8 44 e5 ff ff       	call   4250 <_ZdlPv@plt>
    5d0c:	48 89 df             	mov    %rbx,%rdi
    5d0f:	4c 89 f3             	mov    %r14,%rbx
    5d12:	e8 d9 7c 00 00       	call   d9f0 <_ZN2ML11LayerParamsD1Ev>
    5d17:	48 8b bc 24 00 01 00 	mov    0x100(%rsp),%rdi
    5d1e:	00 
    5d1f:	48 85 ff             	test   %rdi,%rdi
    5d22:	74 05                	je     5d29 <_ZN2ML12build8QModelEv.cold+0x571>
    5d24:	e8 27 e5 ff ff       	call   4250 <_ZdlPv@plt>
    5d29:	4c 89 e7             	mov    %r12,%rdi
    5d2c:	e8 bf 7c 00 00       	call   d9f0 <_ZN2ML11LayerParamsD1Ev>
    5d31:	48 8b bc 24 80 01 00 	mov    0x180(%rsp),%rdi
    5d38:	00 
    5d39:	48 8b 44 24 48       	mov    0x48(%rsp),%rax
    5d3e:	48 39 c7             	cmp    %rax,%rdi
    5d41:	74 05                	je     5d48 <_ZN2ML12build8QModelEv.cold+0x590>
    5d43:	e8 08 e5 ff ff       	call   4250 <_ZdlPv@plt>
    5d48:	48 8b bc 24 20 01 00 	mov    0x120(%rsp),%rdi
    5d4f:	00 
    5d50:	48 85 ff             	test   %rdi,%rdi
    5d53:	74 05                	je     5d5a <_ZN2ML12build8QModelEv.cold+0x5a2>
    5d55:	e8 f6 e4 ff ff       	call   4250 <_ZdlPv@plt>
    5d5a:	4c 89 ef             	mov    %r13,%rdi
    5d5d:	e8 8e 7c 00 00       	call   d9f0 <_ZN2ML11LayerParamsD1Ev>
    5d62:	48 8b bc 24 a0 01 00 	mov    0x1a0(%rsp),%rdi
    5d69:	00 
    5d6a:	48 8b 44 24 40       	mov    0x40(%rsp),%rax
    5d6f:	48 39 c7             	cmp    %rax,%rdi
    5d72:	0f 84 1d fb ff ff    	je     5895 <_ZN2ML12build8QModelEv.cold+0xdd>
    5d78:	e8 d3 e4 ff ff       	call   4250 <_ZdlPv@plt>
    5d7d:	e9 13 fb ff ff       	jmp    5895 <_ZN2ML12build8QModelEv.cold+0xdd>
    5d82:	4c 89 e7             	mov    %r12,%rdi
    5d85:	c5 f8 77             	vzeroupper
    5d88:	e8 63 7c 00 00       	call   d9f0 <_ZN2ML11LayerParamsD1Ev>
    5d8d:	48 8b bc 24 a0 01 00 	mov    0x1a0(%rsp),%rdi
    5d94:	00 
    5d95:	48 85 ff             	test   %rdi,%rdi
    5d98:	74 05                	je     5d9f <_ZN2ML12build8QModelEv.cold+0x5e7>
    5d9a:	e8 b1 e4 ff ff       	call   4250 <_ZdlPv@plt>
    5d9f:	4c 89 ef             	mov    %r13,%rdi
    5da2:	e8 49 7c 00 00       	call   d9f0 <_ZN2ML11LayerParamsD1Ev>
    5da7:	e9 39 fa ff ff       	jmp    57e5 <_ZN2ML12build8QModelEv.cold+0x2d>

0000000000005dac <_ZN2ML13buildToyModelENS_4PathE.cold>:
    5dac:	4c 89 f7             	mov    %r14,%rdi
    5daf:	c5 f8 77             	vzeroupper
    5db2:	4d 89 fe             	mov    %r15,%r14
    5db5:	e8 36 7c 00 00       	call   d9f0 <_ZN2ML11LayerParamsD1Ev>
    5dba:	48 8b bc 24 e0 00 00 	mov    0xe0(%rsp),%rdi
    5dc1:	00 
    5dc2:	48 85 ff             	test   %rdi,%rdi
    5dc5:	74 05                	je     5dcc <_ZN2ML13buildToyModelENS_4PathE.cold+0x20>
    5dc7:	e8 84 e4 ff ff       	call   4250 <_ZdlPv@plt>
    5dcc:	48 89 df             	mov    %rbx,%rdi
    5dcf:	4c 89 f3             	mov    %r14,%rbx
    5dd2:	e8 19 7c 00 00       	call   d9f0 <_ZN2ML11LayerParamsD1Ev>
    5dd7:	48 8b bc 24 20 01 00 	mov    0x120(%rsp),%rdi
    5dde:	00 
    5ddf:	48 85 ff             	test   %rdi,%rdi
    5de2:	75 72                	jne    5e56 <_ZN2ML13buildToyModelENS_4PathE.cold+0xaa>
    5de4:	4c 89 e7             	mov    %r12,%rdi
    5de7:	e8 04 7c 00 00       	call   d9f0 <_ZN2ML11LayerParamsD1Ev>
    5dec:	48 8b bc 24 a0 01 00 	mov    0x1a0(%rsp),%rdi
    5df3:	00 
    5df4:	48 8b 44 24 60       	mov    0x60(%rsp),%rax
    5df9:	48 39 c7             	cmp    %rax,%rdi
    5dfc:	74 05                	je     5e03 <_ZN2ML13buildToyModelENS_4PathE.cold+0x57>
    5dfe:	e8 4d e4 ff ff       	call   4250 <_ZdlPv@plt>
    5e03:	48 8b bc 24 40 01 00 	mov    0x140(%rsp),%rdi
    5e0a:	00 
    5e0b:	48 85 ff             	test   %rdi,%rdi
    5e0e:	75 4d                	jne    5e5d <_ZN2ML13buildToyModelENS_4PathE.cold+0xb1>
    5e10:	4c 89 ef             	mov    %r13,%rdi
    5e13:	e8 d8 7b 00 00       	call   d9f0 <_ZN2ML11LayerParamsD1Ev>
    5e18:	48 8b bc 24 c0 01 00 	mov    0x1c0(%rsp),%rdi
    5e1f:	00 
    5e20:	48 8b 44 24 58       	mov    0x58(%rsp),%rax
    5e25:	48 39 c7             	cmp    %rax,%rdi
    5e28:	74 05                	je     5e2f <_ZN2ML13buildToyModelENS_4PathE.cold+0x83>
    5e2a:	e8 21 e4 ff ff       	call   4250 <_ZdlPv@plt>
    5e2f:	48 8b bc 24 60 01 00 	mov    0x160(%rsp),%rdi
    5e36:	00 
    5e37:	48 85 ff             	test   %rdi,%rdi
    5e3a:	74 05                	je     5e41 <_ZN2ML13buildToyModelENS_4PathE.cold+0x95>
    5e3c:	e8 0f e4 ff ff       	call   4250 <_ZdlPv@plt>
    5e41:	48 8b bc 24 90 00 00 	mov    0x90(%rsp),%rdi
    5e48:	00 
    5e49:	e8 52 2e 02 00       	call   28ca0 <_ZNSt6vectorISt10unique_ptrIN2ML5LayerESt14default_deleteIS2_EESaIS5_EED1Ev>
    5e4e:	48 89 df             	mov    %rbx,%rdi
    5e51:	e8 fa e5 ff ff       	call   4450 <_Unwind_Resume@plt>
    5e56:	e8 f5 e3 ff ff       	call   4250 <_ZdlPv@plt>
    5e5b:	eb 87                	jmp    5de4 <_ZN2ML13buildToyModelENS_4PathE.cold+0x38>
    5e5d:	e8 ee e3 ff ff       	call   4250 <_ZdlPv@plt>
    5e62:	eb ac                	jmp    5e10 <_ZN2ML13buildToyModelENS_4PathE.cold+0x64>
    5e64:	48 8b 7c 24 38       	mov    0x38(%rsp),%rdi
    5e69:	c5 f8 77             	vzeroupper
    5e6c:	e8 df e3 ff ff       	call   4250 <_ZdlPv@plt>
    5e71:	4c 89 e7             	mov    %r12,%rdi
    5e74:	e8 77 7b 00 00       	call   d9f0 <_ZN2ML11LayerParamsD1Ev>
    5e79:	48 8b bc 24 e0 01 00 	mov    0x1e0(%rsp),%rdi
    5e80:	00 
    5e81:	48 85 ff             	test   %rdi,%rdi
    5e84:	75 5f                	jne    5ee5 <_ZN2ML13buildToyModelENS_4PathE.cold+0x139>
    5e86:	4c 89 ef             	mov    %r13,%rdi
    5e89:	e8 62 7b 00 00       	call   d9f0 <_ZN2ML11LayerParamsD1Ev>
    5e8e:	48 8b bc 24 20 02 00 	mov    0x220(%rsp),%rdi
    5e95:	00 
    5e96:	48 85 ff             	test   %rdi,%rdi
    5e99:	74 a6                	je     5e41 <_ZN2ML13buildToyModelENS_4PathE.cold+0x95>
    5e9b:	e8 b0 e3 ff ff       	call   4250 <_ZdlPv@plt>
    5ea0:	eb 9f                	jmp    5e41 <_ZN2ML13buildToyModelENS_4PathE.cold+0x95>
    5ea2:	4c 89 f7             	mov    %r14,%rdi
    5ea5:	c5 f8 77             	vzeroupper
    5ea8:	e8 a3 e3 ff ff       	call   4250 <_ZdlPv@plt>
    5ead:	4c 89 e7             	mov    %r12,%rdi
    5eb0:	e8 3b 7b 00 00       	call   d9f0 <_ZN2ML11LayerParamsD1Ev>
    5eb5:	48 8b bc 24 e0 01 00 	mov    0x1e0(%rsp),%rdi
    5ebc:	00 
    5ebd:	48 85 ff             	test   %rdi,%rdi
    5ec0:	75 2a                	jne    5eec <_ZN2ML13buildToyModelENS_4PathE.cold+0x140>
    5ec2:	4c 89 ef             	mov    %r13,%rdi
    5ec5:	e8 26 7b 00 00       	call   d9f0 <_ZN2ML11LayerParamsD1Ev>
    5eca:	48 8b bc 24 20 02 00 	mov    0x220(%rsp),%rdi
    5ed1:	00 
    5ed2:	48 85 ff             	test   %rdi,%rdi
    5ed5:	0f 84 66 ff ff ff    	je     5e41 <_ZN2ML13buildToyModelENS_4PathE.cold+0x95>
    5edb:	e8 70 e3 ff ff       	call   4250 <_ZdlPv@plt>
    5ee0:	e9 5c ff ff ff       	jmp    5e41 <_ZN2ML13buildToyModelENS_4PathE.cold+0x95>
    5ee5:	e8 66 e3 ff ff       	call   4250 <_ZdlPv@plt>
    5eea:	eb 9a                	jmp    5e86 <_ZN2ML13buildToyModelENS_4PathE.cold+0xda>
    5eec:	e8 5f e3 ff ff       	call   4250 <_ZdlPv@plt>
    5ef1:	eb cf                	jmp    5ec2 <_ZN2ML13buildToyModelENS_4PathE.cold+0x116>
    5ef3:	48 8b bc 24 a0 02 00 	mov    0x2a0(%rsp),%rdi
    5efa:	00 
    5efb:	48 8d 84 24 b0 02 00 	lea    0x2b0(%rsp),%rax
    5f02:	00 
    5f03:	48 39 c7             	cmp    %rax,%rdi
    5f06:	0f 84 bd 00 00 00    	je     5fc9 <_ZN2ML13buildToyModelENS_4PathE.cold+0x21d>
    5f0c:	c5 f8 77             	vzeroupper
    5f0f:	e8 3c e3 ff ff       	call   4250 <_ZdlPv@plt>
    5f14:	e9 28 ff ff ff       	jmp    5e41 <_ZN2ML13buildToyModelENS_4PathE.cold+0x95>
    5f19:	4c 89 f7             	mov    %r14,%rdi
    5f1c:	c5 f8 77             	vzeroupper
    5f1f:	4d 89 fe             	mov    %r15,%r14
    5f22:	e8 c9 7a 00 00       	call   d9f0 <_ZN2ML11LayerParamsD1Ev>
    5f27:	48 8b bc 24 e0 00 00 	mov    0xe0(%rsp),%rdi
    5f2e:	00 
    5f2f:	48 85 ff             	test   %rdi,%rdi
    5f32:	74 05                	je     5f39 <_ZN2ML13buildToyModelENS_4PathE.cold+0x18d>
    5f34:	e8 17 e3 ff ff       	call   4250 <_ZdlPv@plt>
    5f39:	48 89 df             	mov    %rbx,%rdi
    5f3c:	4c 89 f3             	mov    %r14,%rbx
    5f3f:	e8 ac 7a 00 00       	call   d9f0 <_ZN2ML11LayerParamsD1Ev>
    5f44:	48 8b bc 24 20 01 00 	mov    0x120(%rsp),%rdi
    5f4b:	00 
    5f4c:	48 85 ff             	test   %rdi,%rdi
    5f4f:	74 05                	je     5f56 <_ZN2ML13buildToyModelENS_4PathE.cold+0x1aa>
    5f51:	e8 fa e2 ff ff       	call   4250 <_ZdlPv@plt>
    5f56:	4c 89 e7             	mov    %r12,%rdi
    5f59:	e8 92 7a 00 00       	call   d9f0 <_ZN2ML11LayerParamsD1Ev>
    5f5e:	48 8b bc 24 a0 01 00 	mov    0x1a0(%rsp),%rdi
    5f65:	00 
    5f66:	48 8d 84 24 b0 01 00 	lea    0x1b0(%rsp),%rax
    5f6d:	00 
    5f6e:	48 39 c7             	cmp    %rax,%rdi
    5f71:	74 05                	je     5f78 <_ZN2ML13buildToyModelENS_4PathE.cold+0x1cc>
    5f73:	e8 d8 e2 ff ff       	call   4250 <_ZdlPv@plt>
    5f78:	48 8b bc 24 40 01 00 	mov    0x140(%rsp),%rdi
    5f7f:	00 
    5f80:	48 85 ff             	test   %rdi,%rdi
    5f83:	75 3d                	jne    5fc2 <_ZN2ML13buildToyModelENS_4PathE.cold+0x216>
    5f85:	4c 89 ef             	mov    %r13,%rdi
    5f88:	e8 63 7a 00 00       	call   d9f0 <_ZN2ML11LayerParamsD1Ev>
    5f8d:	48 8b bc 24 c0 01 00 	mov    0x1c0(%rsp),%rdi
    5f94:	00 
    5f95:	48 8d 84 24 d0 01 00 	lea    0x1d0(%rsp),%rax
    5f9c:	00 
    5f9d:	48 39 c7             	cmp    %rax,%rdi
    5fa0:	74 05                	je     5fa7 <_ZN2ML13buildToyModelENS_4PathE.cold+0x1fb>
    5fa2:	e8 a9 e2 ff ff       	call   4250 <_ZdlPv@plt>
    5fa7:	48 8b bc 24 60 01 00 	mov    0x160(%rsp),%rdi
    5fae:	00 
    5faf:	48 85 ff             	test   %rdi,%rdi
    5fb2:	0f 84 89 fe ff ff    	je     5e41 <_ZN2ML13buildToyModelENS_4PathE.cold+0x95>
    5fb8:	e8 93 e2 ff ff       	call   4250 <_ZdlPv@plt>
    5fbd:	e9 7f fe ff ff       	jmp    5e41 <_ZN2ML13buildToyModelENS_4PathE.cold+0x95>
    5fc2:	e8 89 e2 ff ff       	call   4250 <_ZdlPv@plt>
    5fc7:	eb bc                	jmp    5f85 <_ZN2ML13buildToyModelENS_4PathE.cold+0x1d9>
    5fc9:	c5 f8 77             	vzeroupper
    5fcc:	e9 70 fe ff ff       	jmp    5e41 <_ZN2ML13buildToyModelENS_4PathE.cold+0x95>
    5fd1:	4c 89 f7             	mov    %r14,%rdi
    5fd4:	c5 f8 77             	vzeroupper
    5fd7:	4d 89 fe             	mov    %r15,%r14
    5fda:	e8 11 7a 00 00       	call   d9f0 <_ZN2ML11LayerParamsD1Ev>
    5fdf:	48 8b bc 24 20 01 00 	mov    0x120(%rsp),%rdi
    5fe6:	00 
    5fe7:	48 85 ff             	test   %rdi,%rdi
    5fea:	74 05                	je     5ff1 <_ZN2ML13buildToyModelENS_4PathE.cold+0x245>
    5fec:	e8 5f e2 ff ff       	call   4250 <_ZdlPv@plt>
    5ff1:	48 89 df             	mov    %rbx,%rdi
    5ff4:	4c 89 f3             	mov    %r14,%rbx
    5ff7:	e8 f4 79 00 00       	call   d9f0 <_ZN2ML11LayerParamsD1Ev>
    5ffc:	48 8b bc 24 40 01 00 	mov    0x140(%rsp),%rdi
    6003:	00 
    6004:	48 85 ff             	test   %rdi,%rdi
    6007:	74 05                	je     600e <_ZN2ML13buildToyModelENS_4PathE.cold+0x262>
    6009:	e8 42 e2 ff ff       	call   4250 <_ZdlPv@plt>
    600e:	4c 89 e7             	mov    %r12,%rdi
    6011:	e8 da 79 00 00       	call   d9f0 <_ZN2ML11LayerParamsD1Ev>
    6016:	48 8b bc 24 a0 01 00 	mov    0x1a0(%rsp),%rdi
    601d:	00 
    601e:	48 8b 44 24 60       	mov    0x60(%rsp),%rax
    6023:	48 39 c7             	cmp    %rax,%rdi
    6026:	74 05                	je     602d <_ZN2ML13buildToyModelENS_4PathE.cold+0x281>
    6028:	e8 23 e2 ff ff       	call   4250 <_ZdlPv@plt>
    602d:	48 8b bc 24 60 01 00 	mov    0x160(%rsp),%rdi
    6034:	00 
    6035:	48 85 ff             	test   %rdi,%rdi
    6038:	75 3a                	jne    6074 <_ZN2ML13buildToyModelENS_4PathE.cold+0x2c8>
    603a:	4c 89 ef             	mov    %r13,%rdi
    603d:	e8 ae 79 00 00       	call   d9f0 <_ZN2ML11LayerParamsD1Ev>
    6042:	48 8b bc 24 c0 01 00 	mov    0x1c0(%rsp),%rdi
    6049:	00 
    604a:	48 8b 44 24 58       	mov    0x58(%rsp),%rax
    604f:	48 39 c7             	cmp    %rax,%rdi
    6052:	74 05                	je     6059 <_ZN2ML13buildToyModelENS_4PathE.cold+0x2ad>
    6054:	e8 f7 e1 ff ff       	call   4250 <_ZdlPv@plt>
    6059:	48 8b bc 24 80 01 00 	mov    0x180(%rsp),%rdi
    6060:	00 
    6061:	48 85 ff             	test   %rdi,%rdi
    6064:	0f 84 d7 fd ff ff    	je     5e41 <_ZN2ML13buildToyModelENS_4PathE.cold+0x95>
    606a:	e8 e1 e1 ff ff       	call   4250 <_ZdlPv@plt>
    606f:	e9 cd fd ff ff       	jmp    5e41 <_ZN2ML13buildToyModelENS_4PathE.cold+0x95>
    6074:	e8 d7 e1 ff ff       	call   4250 <_ZdlPv@plt>
    6079:	eb bf                	jmp    603a <_ZN2ML13buildToyModelENS_4PathE.cold+0x28e>
    607b:	4c 89 f7             	mov    %r14,%rdi
    607e:	c5 f8 77             	vzeroupper
    6081:	4d 89 fe             	mov    %r15,%r14
    6084:	e8 67 79 00 00       	call   d9f0 <_ZN2ML11LayerParamsD1Ev>
    6089:	48 8b bc 24 20 01 00 	mov    0x120(%rsp),%rdi
    6090:	00 
    6091:	48 85 ff             	test   %rdi,%rdi
    6094:	74 05                	je     609b <_ZN2ML13buildToyModelENS_4PathE.cold+0x2ef>
    6096:	e8 b5 e1 ff ff       	call   4250 <_ZdlPv@plt>
    609b:	48 89 df             	mov    %rbx,%rdi
    609e:	4c 89 f3             	mov    %r14,%rbx
    60a1:	e8 4a 79 00 00       	call   d9f0 <_ZN2ML11LayerParamsD1Ev>
    60a6:	48 8b bc 24 40 01 00 	mov    0x140(%rsp),%rdi
    60ad:	00 
    60ae:	48 85 ff             	test   %rdi,%rdi
    60b1:	0f 85 b4 01 00 00    	jne    626b <_ZN2ML13buildToyModelENS_4PathE.cold+0x4bf>
    60b7:	4c 89 e7             	mov    %r12,%rdi
    60ba:	e8 31 79 00 00       	call   d9f0 <_ZN2ML11LayerParamsD1Ev>
    60bf:	48 8b bc 24 a0 01 00 	mov    0x1a0(%rsp),%rdi
    60c6:	00 
    60c7:	48 8b 44 24 60       	mov    0x60(%rsp),%rax
    60cc:	48 39 c7             	cmp    %rax,%rdi
    60cf:	74 05                	je     60d6 <_ZN2ML13buildToyModelENS_4PathE.cold+0x32a>
    60d1:	e8 7a e1 ff ff       	call   4250 <_ZdlPv@plt>
    60d6:	48 8b bc 24 60 01 00 	mov    0x160(%rsp),%rdi
    60dd:	00 
    60de:	48 85 ff             	test   %rdi,%rdi
    60e1:	0f 85 8e 01 00 00    	jne    6275 <_ZN2ML13buildToyModelENS_4PathE.cold+0x4c9>
    60e7:	4c 89 ef             	mov    %r13,%rdi
    60ea:	e8 01 79 00 00       	call   d9f0 <_ZN2ML11LayerParamsD1Ev>
    60ef:	48 8b bc 24 c0 01 00 	mov    0x1c0(%rsp),%rdi
    60f6:	00 
    60f7:	48 8b 44 24 58       	mov    0x58(%rsp),%rax
    60fc:	48 39 c7             	cmp    %rax,%rdi
    60ff:	74 05                	je     6106 <_ZN2ML13buildToyModelENS_4PathE.cold+0x35a>
    6101:	e8 4a e1 ff ff       	call   4250 <_ZdlPv@plt>
    6106:	48 8b bc 24 80 01 00 	mov    0x180(%rsp),%rdi
    610d:	00 
    610e:	48 85 ff             	test   %rdi,%rdi
    6111:	0f 84 2a fd ff ff    	je     5e41 <_ZN2ML13buildToyModelENS_4PathE.cold+0x95>
    6117:	e8 34 e1 ff ff       	call   4250 <_ZdlPv@plt>
    611c:	e9 20 fd ff ff       	jmp    5e41 <_ZN2ML13buildToyModelENS_4PathE.cold+0x95>
    6121:	4c 89 f7             	mov    %r14,%rdi
    6124:	c5 f8 77             	vzeroupper
    6127:	4d 89 fe             	mov    %r15,%r14
    612a:	e8 c1 78 00 00       	call   d9f0 <_ZN2ML11LayerParamsD1Ev>
    612f:	48 8b bc 24 e0 00 00 	mov    0xe0(%rsp),%rdi
    6136:	00 
    6137:	48 85 ff             	test   %rdi,%rdi
    613a:	74 05                	je     6141 <_ZN2ML13buildToyModelENS_4PathE.cold+0x395>
    613c:	e8 0f e1 ff ff       	call   4250 <_ZdlPv@plt>
    6141:	48 89 df             	mov    %rbx,%rdi
    6144:	4c 89 f3             	mov    %r14,%rbx
    6147:	e8 a4 78 00 00       	call   d9f0 <_ZN2ML11LayerParamsD1Ev>
    614c:	48 8b bc 24 20 01 00 	mov    0x120(%rsp),%rdi
    6153:	00 
    6154:	48 85 ff             	test   %rdi,%rdi
    6157:	74 05                	je     615e <_ZN2ML13buildToyModelENS_4PathE.cold+0x3b2>
    6159:	e8 f2 e0 ff ff       	call   4250 <_ZdlPv@plt>
    615e:	4c 89 e7             	mov    %r12,%rdi
    6161:	e8 8a 78 00 00       	call   d9f0 <_ZN2ML11LayerParamsD1Ev>
    6166:	48 8b bc 24 a0 01 00 	mov    0x1a0(%rsp),%rdi
    616d:	00 
    616e:	48 8b 44 24 60       	mov    0x60(%rsp),%rax
    6173:	48 39 c7             	cmp    %rax,%rdi
    6176:	74 05                	je     617d <_ZN2ML13buildToyModelENS_4PathE.cold+0x3d1>
    6178:	e8 d3 e0 ff ff       	call   4250 <_ZdlPv@plt>
    617d:	48 8b bc 24 40 01 00 	mov    0x140(%rsp),%rdi
    6184:	00 
    6185:	48 85 ff             	test   %rdi,%rdi
    6188:	74 05                	je     618f <_ZN2ML13buildToyModelENS_4PathE.cold+0x3e3>
    618a:	e8 c1 e0 ff ff       	call   4250 <_ZdlPv@plt>
    618f:	4c 89 ef             	mov    %r13,%rdi
    6192:	e8 59 78 00 00       	call   d9f0 <_ZN2ML11LayerParamsD1Ev>
    6197:	48 8b bc 24 c0 01 00 	mov    0x1c0(%rsp),%rdi
    619e:	00 
    619f:	48 8b 44 24 58       	mov    0x58(%rsp),%rax
    61a4:	48 39 c7             	cmp    %rax,%rdi
    61a7:	74 05                	je     61ae <_ZN2ML13buildToyModelENS_4PathE.cold+0x402>
    61a9:	e8 a2 e0 ff ff       	call   4250 <_ZdlPv@plt>
    61ae:	48 8b bc 24 60 01 00 	mov    0x160(%rsp),%rdi
    61b5:	00 
    61b6:	48 85 ff             	test   %rdi,%rdi
    61b9:	0f 84 82 fc ff ff    	je     5e41 <_ZN2ML13buildToyModelENS_4PathE.cold+0x95>
    61bf:	e8 8c e0 ff ff       	call   4250 <_ZdlPv@plt>
    61c4:	e9 78 fc ff ff       	jmp    5e41 <_ZN2ML13buildToyModelENS_4PathE.cold+0x95>
    61c9:	4c 89 f7             	mov    %r14,%rdi
    61cc:	c5 f8 77             	vzeroupper
    61cf:	4d 89 fe             	mov    %r15,%r14
    61d2:	e8 19 78 00 00       	call   d9f0 <_ZN2ML11LayerParamsD1Ev>
    61d7:	48 8b bc 24 e0 00 00 	mov    0xe0(%rsp),%rdi
    61de:	00 
    61df:	48 85 ff             	test   %rdi,%rdi
    61e2:	74 05                	je     61e9 <_ZN2ML13buildToyModelENS_4PathE.cold+0x43d>
    61e4:	e8 67 e0 ff ff       	call   4250 <_ZdlPv@plt>
    61e9:	48 89 df             	mov    %rbx,%rdi
    61ec:	4c 89 f3             	mov    %r14,%rbx
    61ef:	e8 fc 77 00 00       	call   d9f0 <_ZN2ML11LayerParamsD1Ev>
    61f4:	48 8b bc 24 20 01 00 	mov    0x120(%rsp),%rdi
    61fb:	00 
    61fc:	48 85 ff             	test   %rdi,%rdi
    61ff:	0f 85 1d 02 00 00    	jne    6422 <_ZN2ML13buildToyModelENS_4PathE.cold+0x676>
    6205:	4c 89 e7             	mov    %r12,%rdi
    6208:	e8 e3 77 00 00       	call   d9f0 <_ZN2ML11LayerParamsD1Ev>
    620d:	48 8b bc 24 a0 01 00 	mov    0x1a0(%rsp),%rdi
    6214:	00 
    6215:	48 8b 44 24 60       	mov    0x60(%rsp),%rax
    621a:	48 39 c7             	cmp    %rax,%rdi
    621d:	74 05                	je     6224 <_ZN2ML13buildToyModelENS_4PathE.cold+0x478>
    621f:	e8 2c e0 ff ff       	call   4250 <_ZdlPv@plt>
    6224:	48 8b bc 24 40 01 00 	mov    0x140(%rsp),%rdi
    622b:	00 
    622c:	48 85 ff             	test   %rdi,%rdi
    622f:	75 4e                	jne    627f <_ZN2ML13buildToyModelENS_4PathE.cold+0x4d3>
    6231:	4c 89 ef             	mov    %r13,%rdi
    6234:	e8 b7 77 00 00       	call   d9f0 <_ZN2ML11LayerParamsD1Ev>
    6239:	48 8b bc 24 c0 01 00 	mov    0x1c0(%rsp),%rdi
    6240:	00 
    6241:	48 8b 44 24 58       	mov    0x58(%rsp),%rax
    6246:	48 39 c7             	cmp    %rax,%rdi
    6249:	74 05                	je     6250 <_ZN2ML13buildToyModelENS_4PathE.cold+0x4a4>
    624b:	e8 00 e0 ff ff       	call   4250 <_ZdlPv@plt>
    6250:	48 8b bc 24 60 01 00 	mov    0x160(%rsp),%rdi
    6257:	00 
    6258:	48 85 ff             	test   %rdi,%rdi
    625b:	0f 84 e0 fb ff ff    	je     5e41 <_ZN2ML13buildToyModelENS_4PathE.cold+0x95>
    6261:	e8 ea df ff ff       	call   4250 <_ZdlPv@plt>
    6266:	e9 d6 fb ff ff       	jmp    5e41 <_ZN2ML13buildToyModelENS_4PathE.cold+0x95>
    626b:	e8 e0 df ff ff       	call   4250 <_ZdlPv@plt>
    6270:	e9 42 fe ff ff       	jmp    60b7 <_ZN2ML13buildToyModelENS_4PathE.cold+0x30b>
    6275:	e8 d6 df ff ff       	call   4250 <_ZdlPv@plt>
    627a:	e9 68 fe ff ff       	jmp    60e7 <_ZN2ML13buildToyModelENS_4PathE.cold+0x33b>
    627f:	e8 cc df ff ff       	call   4250 <_ZdlPv@plt>
    6284:	eb ab                	jmp    6231 <_ZN2ML13buildToyModelENS_4PathE.cold+0x485>
    6286:	4c 89 f7             	mov    %r14,%rdi
    6289:	c5 f8 77             	vzeroupper
    628c:	4d 89 fe             	mov    %r15,%r14
    628f:	e8 5c 77 00 00       	call   d9f0 <_ZN2ML11LayerParamsD1Ev>
    6294:	48 8b bc 24 e0 00 00 	mov    0xe0(%rsp),%rdi
    629b:	00 
    629c:	48 85 ff             	test   %rdi,%rdi
    629f:	74 05                	je     62a6 <_ZN2ML13buildToyModelENS_4PathE.cold+0x4fa>
    62a1:	e8 aa df ff ff       	call   4250 <_ZdlPv@plt>
    62a6:	48 89 df             	mov    %rbx,%rdi
    62a9:	4c 89 f3             	mov    %r14,%rbx
    62ac:	e8 3f 77 00 00       	call   d9f0 <_ZN2ML11LayerParamsD1Ev>
    62b1:	48 8b bc 24 20 01 00 	mov    0x120(%rsp),%rdi
    62b8:	00 
    62b9:	48 85 ff             	test   %rdi,%rdi
    62bc:	75 66                	jne    6324 <_ZN2ML13buildToyModelENS_4PathE.cold+0x578>
    62be:	4c 89 e7             	mov    %r12,%rdi
    62c1:	e8 2a 77 00 00       	call   d9f0 <_ZN2ML11LayerParamsD1Ev>
    62c6:	48 8b bc 24 a0 01 00 	mov    0x1a0(%rsp),%rdi
    62cd:	00 
    62ce:	48 8b 44 24 60       	mov    0x60(%rsp),%rax
    62d3:	48 39 c7             	cmp    %rax,%rdi
    62d6:	74 05                	je     62dd <_ZN2ML13buildToyModelENS_4PathE.cold+0x531>
    62d8:	e8 73 df ff ff       	call   4250 <_ZdlPv@plt>
    62dd:	48 8b bc 24 40 01 00 	mov    0x140(%rsp),%rdi
    62e4:	00 
    62e5:	48 85 ff             	test   %rdi,%rdi
    62e8:	75 41                	jne    632b <_ZN2ML13buildToyModelENS_4PathE.cold+0x57f>
    62ea:	4c 89 ef             	mov    %r13,%rdi
    62ed:	e8 fe 76 00 00       	call   d9f0 <_ZN2ML11LayerParamsD1Ev>
    62f2:	48 8b bc 24 c0 01 00 	mov    0x1c0(%rsp),%rdi
    62f9:	00 
    62fa:	48 8b 44 24 58       	mov    0x58(%rsp),%rax
    62ff:	48 39 c7             	cmp    %rax,%rdi
    6302:	74 05                	je     6309 <_ZN2ML13buildToyModelENS_4PathE.cold+0x55d>
    6304:	e8 47 df ff ff       	call   4250 <_ZdlPv@plt>
    6309:	48 8b bc 24 60 01 00 	mov    0x160(%rsp),%rdi
    6310:	00 
    6311:	48 85 ff             	test   %rdi,%rdi
    6314:	0f 84 27 fb ff ff    	je     5e41 <_ZN2ML13buildToyModelENS_4PathE.cold+0x95>
    631a:	e8 31 df ff ff       	call   4250 <_ZdlPv@plt>
    631f:	e9 1d fb ff ff       	jmp    5e41 <_ZN2ML13buildToyModelENS_4PathE.cold+0x95>
    6324:	e8 27 df ff ff       	call   4250 <_ZdlPv@plt>
    6329:	eb 93                	jmp    62be <_ZN2ML13buildToyModelENS_4PathE.cold+0x512>
    632b:	e8 20 df ff ff       	call   4250 <_ZdlPv@plt>
    6330:	eb b8                	jmp    62ea <_ZN2ML13buildToyModelENS_4PathE.cold+0x53e>
    6332:	4c 89 e7             	mov    %r12,%rdi
    6335:	c5 f8 77             	vzeroupper
    6338:	e8 b3 76 00 00       	call   d9f0 <_ZN2ML11LayerParamsD1Ev>
    633d:	48 8b bc 24 c0 01 00 	mov    0x1c0(%rsp),%rdi
    6344:	00 
    6345:	48 85 ff             	test   %rdi,%rdi
    6348:	0f 85 ca 00 00 00    	jne    6418 <_ZN2ML13buildToyModelENS_4PathE.cold+0x66c>
    634e:	4c 89 ef             	mov    %r13,%rdi
    6351:	e8 9a 76 00 00       	call   d9f0 <_ZN2ML11LayerParamsD1Ev>
    6356:	48 8b bc 24 20 02 00 	mov    0x220(%rsp),%rdi
    635d:	00 
    635e:	48 85 ff             	test   %rdi,%rdi
    6361:	0f 84 da fa ff ff    	je     5e41 <_ZN2ML13buildToyModelENS_4PathE.cold+0x95>
    6367:	e8 e4 de ff ff       	call   4250 <_ZdlPv@plt>
    636c:	e9 d0 fa ff ff       	jmp    5e41 <_ZN2ML13buildToyModelENS_4PathE.cold+0x95>
    6371:	4c 89 f7             	mov    %r14,%rdi
    6374:	c5 f8 77             	vzeroupper
    6377:	4d 89 fe             	mov    %r15,%r14
    637a:	e8 71 76 00 00       	call   d9f0 <_ZN2ML11LayerParamsD1Ev>
    637f:	48 8b bc 24 e0 00 00 	mov    0xe0(%rsp),%rdi
    6386:	00 
    6387:	48 85 ff             	test   %rdi,%rdi
    638a:	74 05                	je     6391 <_ZN2ML13buildToyModelENS_4PathE.cold+0x5e5>
    638c:	e8 bf de ff ff       	call   4250 <_ZdlPv@plt>
    6391:	48 89 df             	mov    %rbx,%rdi
    6394:	4c 89 f3             	mov    %r14,%rbx
    6397:	e8 54 76 00 00       	call   d9f0 <_ZN2ML11LayerParamsD1Ev>
    639c:	48 8b bc 24 20 01 00 	mov    0x120(%rsp),%rdi
    63a3:	00 
    63a4:	48 85 ff             	test   %rdi,%rdi
    63a7:	0f 85 bf 00 00 00    	jne    646c <_ZN2ML13buildToyModelENS_4PathE.cold+0x6c0>
    63ad:	4c 89 e7             	mov    %r12,%rdi
    63b0:	e8 3b 76 00 00       	call   d9f0 <_ZN2ML11LayerParamsD1Ev>
    63b5:	48 8b bc 24 a0 01 00 	mov    0x1a0(%rsp),%rdi
    63bc:	00 
    63bd:	48 8b 44 24 60       	mov    0x60(%rsp),%rax
    63c2:	48 39 c7             	cmp    %rax,%rdi
    63c5:	74 05                	je     63cc <_ZN2ML13buildToyModelENS_4PathE.cold+0x620>
    63c7:	e8 84 de ff ff       	call   4250 <_ZdlPv@plt>
    63cc:	48 8b bc 24 40 01 00 	mov    0x140(%rsp),%rdi
    63d3:	00 
    63d4:	48 85 ff             	test   %rdi,%rdi
    63d7:	74 05                	je     63de <_ZN2ML13buildToyModelENS_4PathE.cold+0x632>
    63d9:	e8 72 de ff ff       	call   4250 <_ZdlPv@plt>
    63de:	4c 89 ef             	mov    %r13,%rdi
    63e1:	e8 0a 76 00 00       	call   d9f0 <_ZN2ML11LayerParamsD1Ev>
    63e6:	48 8b bc 24 c0 01 00 	mov    0x1c0(%rsp),%rdi
    63ed:	00 
    63ee:	48 8b 44 24 58       	mov    0x58(%rsp),%rax
    63f3:	48 39 c7             	cmp    %rax,%rdi
    63f6:	74 05                	je     63fd <_ZN2ML13buildToyModelENS_4PathE.cold+0x651>
    63f8:	e8 53 de ff ff       	call   4250 <_ZdlPv@plt>
    63fd:	48 8b bc 24 60 01 00 	mov    0x160(%rsp),%rdi
    6404:	00 
    6405:	48 85 ff             	test   %rdi,%rdi
    6408:	0f 84 33 fa ff ff    	je     5e41 <_ZN2ML13buildToyModelENS_4PathE.cold+0x95>
    640e:	e8 3d de ff ff       	call   4250 <_ZdlPv@plt>
    6413:	e9 29 fa ff ff       	jmp    5e41 <_ZN2ML13buildToyModelENS_4PathE.cold+0x95>
    6418:	e8 33 de ff ff       	call   4250 <_ZdlPv@plt>
    641d:	e9 2c ff ff ff       	jmp    634e <_ZN2ML13buildToyModelENS_4PathE.cold+0x5a2>
    6422:	e8 29 de ff ff       	call   4250 <_ZdlPv@plt>
    6427:	e9 d9 fd ff ff       	jmp    6205 <_ZN2ML13buildToyModelENS_4PathE.cold+0x459>
    642c:	4c 89 e7             	mov    %r12,%rdi
    642f:	c5 f8 77             	vzeroupper
    6432:	e8 b9 75 00 00       	call   d9f0 <_ZN2ML11LayerParamsD1Ev>
    6437:	48 8b bc 24 c0 01 00 	mov    0x1c0(%rsp),%rdi
    643e:	00 
    643f:	48 85 ff             	test   %rdi,%rdi
    6442:	74 05                	je     6449 <_ZN2ML13buildToyModelENS_4PathE.cold+0x69d>
    6444:	e8 07 de ff ff       	call   4250 <_ZdlPv@plt>
    6449:	4c 89 ef             	mov    %r13,%rdi
    644c:	e8 9f 75 00 00       	call   d9f0 <_ZN2ML11LayerParamsD1Ev>
    6451:	48 8b bc 24 20 02 00 	mov    0x220(%rsp),%rdi
    6458:	00 
    6459:	48 85 ff             	test   %rdi,%rdi
    645c:	0f 84 df f9 ff ff    	je     5e41 <_ZN2ML13buildToyModelENS_4PathE.cold+0x95>
    6462:	e8 e9 dd ff ff       	call   4250 <_ZdlPv@plt>
    6467:	e9 d5 f9 ff ff       	jmp    5e41 <_ZN2ML13buildToyModelENS_4PathE.cold+0x95>
    646c:	e8 df dd ff ff       	call   4250 <_ZdlPv@plt>
    6471:	e9 37 ff ff ff       	jmp    63ad <_ZN2ML13buildToyModelENS_4PathE.cold+0x601>
    6476:	4c 89 e7             	mov    %r12,%rdi
    6479:	c5 f8 77             	vzeroupper
    647c:	e8 6f 75 00 00       	call   d9f0 <_ZN2ML11LayerParamsD1Ev>
    6481:	48 8b bc 24 c0 01 00 	mov    0x1c0(%rsp),%rdi
    6488:	00 
    6489:	48 85 ff             	test   %rdi,%rdi
    648c:	74 05                	je     6493 <_ZN2ML13buildToyModelENS_4PathE.cold+0x6e7>
    648e:	e8 bd dd ff ff       	call   4250 <_ZdlPv@plt>
    6493:	4c 89 ef             	mov    %r13,%rdi
    6496:	e8 55 75 00 00       	call   d9f0 <_ZN2ML11LayerParamsD1Ev>
    649b:	48 8b bc 24 20 02 00 	mov    0x220(%rsp),%rdi
    64a2:	00 
    64a3:	48 85 ff             	test   %rdi,%rdi
    64a6:	0f 84 95 f9 ff ff    	je     5e41 <_ZN2ML13buildToyModelENS_4PathE.cold+0x95>
    64ac:	e8 9f dd ff ff       	call   4250 <_ZdlPv@plt>
    64b1:	e9 8b f9 ff ff       	jmp    5e41 <_ZN2ML13buildToyModelENS_4PathE.cold+0x95>

00000000000064b6 <_ZN2ML10formatDimsB5cxx11ERKSt6vectorImSaImEE.cold>:
    64b6:	49 8b 3e             	mov    (%r14),%rdi
    64b9:	48 39 fb             	cmp    %rdi,%rbx
    64bc:	0f 84 ec 00 00 00    	je     65ae <_ZN2ML10formatDimsB5cxx11ERKSt6vectorImSaImEE.cold+0xf8>
    64c2:	c5 f8 77             	vzeroupper
    64c5:	e8 86 dd ff ff       	call   4250 <_ZdlPv@plt>
    64ca:	48 8b 7c 24 08       	mov    0x8(%rsp),%rdi
    64cf:	e8 1c dd ff ff       	call   41f0 <_ZNSt7__cxx1118basic_stringstreamIcSt11char_traitsIcESaIcEED1Ev@plt>
    64d4:	4c 89 e7             	mov    %r12,%rdi
    64d7:	e8 74 df ff ff       	call   4450 <_Unwind_Resume@plt>
    64dc:	48 8b bc 24 a0 00 00 	mov    0xa0(%rsp),%rdi
    64e3:	00 
    64e4:	48 8b 44 24 30       	mov    0x30(%rsp),%rax
    64e9:	48 89 5c 24 58       	mov    %rbx,0x58(%rsp)
    64ee:	48 39 c7             	cmp    %rax,%rdi
    64f1:	0f 85 aa 00 00 00    	jne    65a1 <_ZN2ML10formatDimsB5cxx11ERKSt6vectorImSaImEE.cold+0xeb>
    64f7:	c5 f8 77             	vzeroupper
    64fa:	48 8b 7c 24 20       	mov    0x20(%rsp),%rdi
    64ff:	48 8d 05 1a e5 02 00 	lea    0x2e51a(%rip),%rax        # 34a20 <_ZTVSt15basic_streambufIcSt11char_traitsIcEE@GLIBCXX_3.4+0x10>
    6506:	48 89 44 24 58       	mov    %rax,0x58(%rsp)
    650b:	e8 20 de ff ff       	call   4330 <_ZNSt6localeD1Ev@plt>
    6510:	48 8b 05 b1 e4 02 00 	mov    0x2e4b1(%rip),%rax        # 349c8 <_ZTTNSt7__cxx1118basic_stringstreamIcSt11char_traitsIcESaIcEEE@GLIBCXX_3.4.21+0x8>
    6517:	48 8b 3d d2 e4 02 00 	mov    0x2e4d2(%rip),%rdi        # 349f0 <_ZTTNSt7__cxx1118basic_stringstreamIcSt11char_traitsIcESaIcEEE@GLIBCXX_3.4.21+0x30>
    651e:	48 8b 0d c3 e4 02 00 	mov    0x2e4c3(%rip),%rcx        # 349e8 <_ZTTNSt7__cxx1118basic_stringstreamIcSt11char_traitsIcESaIcEEE@GLIBCXX_3.4.21+0x28>
    6525:	48 8b 40 e8          	mov    -0x18(%rax),%rax
    6529:	48 89 7c 04 40       	mov    %rdi,0x40(%rsp,%rax,1)
    652e:	48 8b 05 ab e4 02 00 	mov    0x2e4ab(%rip),%rax        # 349e0 <_ZTTNSt7__cxx1118basic_stringstreamIcSt11char_traitsIcESaIcEEE@GLIBCXX_3.4.21+0x20>
    6535:	48 8b 3d 9c e4 02 00 	mov    0x2e49c(%rip),%rdi        # 349d8 <_ZTTNSt7__cxx1118basic_stringstreamIcSt11char_traitsIcESaIcEEE@GLIBCXX_3.4.21+0x18>
    653c:	48 89 44 24 50       	mov    %rax,0x50(%rsp)
    6541:	48 8b 40 e8          	mov    -0x18(%rax),%rax
    6545:	48 89 4c 04 50       	mov    %rcx,0x50(%rsp,%rax,1)
    654a:	49 8b 47 e8          	mov    -0x18(%r15),%rax
    654e:	4c 89 7c 24 40       	mov    %r15,0x40(%rsp)
    6553:	48 89 7c 04 40       	mov    %rdi,0x40(%rsp,%rax,1)
    6558:	31 c0                	xor    %eax,%eax
    655a:	48 89 44 24 48       	mov    %rax,0x48(%rsp)
    655f:	eb 1f                	jmp    6580 <_ZN2ML10formatDimsB5cxx11ERKSt6vectorImSaImEE.cold+0xca>
    6561:	49 8b 47 e8          	mov    -0x18(%r15),%rax
    6565:	48 8b 3d 6c e4 02 00 	mov    0x2e46c(%rip),%rdi        # 349d8 <_ZTTNSt7__cxx1118basic_stringstreamIcSt11char_traitsIcESaIcEEE@GLIBCXX_3.4.21+0x18>
    656c:	31 d2                	xor    %edx,%edx
    656e:	4c 89 7c 24 40       	mov    %r15,0x40(%rsp)
    6573:	48 89 7c 04 40       	mov    %rdi,0x40(%rsp,%rax,1)
    6578:	48 89 54 24 48       	mov    %rdx,0x48(%rsp)
    657d:	c5 f8 77             	vzeroupper
    6580:	48 8b 7c 24 38       	mov    0x38(%rsp),%rdi
    6585:	48 8d 05 24 e4 02 00 	lea    0x2e424(%rip),%rax        # 349b0 <_ZTVSt9basic_iosIcSt11char_traitsIcEE@GLIBCXX_3.4+0x10>
    658c:	48 89 84 24 c0 00 00 	mov    %rax,0xc0(%rsp)
    6593:	00 
    6594:	e8 47 db ff ff       	call   40e0 <_ZNSt8ios_baseD2Ev@plt>
    6599:	4c 89 e7             	mov    %r12,%rdi
    659c:	e8 af de ff ff       	call   4450 <_Unwind_Resume@plt>
    65a1:	c5 f8 77             	vzeroupper
    65a4:	e8 a7 dc ff ff       	call   4250 <_ZdlPv@plt>
    65a9:	e9 4c ff ff ff       	jmp    64fa <_ZN2ML10formatDimsB5cxx11ERKSt6vectorImSaImEE.cold+0x44>
    65ae:	c5 f8 77             	vzeroupper
    65b1:	e9 14 ff ff ff       	jmp    64ca <_ZN2ML10formatDimsB5cxx11ERKSt6vectorImSaImEE.cold+0x14>

00000000000065b6 <_ZN2ML15runInfTestQuantERKNS_5ModelENS_4PathEiPK7QParams.cold>:
    65b6:	48 8b 7c 24 60       	mov    0x60(%rsp),%rdi
    65bb:	48 39 ef             	cmp    %rbp,%rdi
    65be:	74 4c                	je     660c <_ZN2ML15runInfTestQuantERKNS_5ModelENS_4PathEiPK7QParams.cold+0x56>
    65c0:	c5 f8 77             	vzeroupper
    65c3:	e8 88 dc ff ff       	call   4250 <_ZdlPv@plt>
    65c8:	4c 89 ef             	mov    %r13,%rdi
    65cb:	e8 60 1e 02 00       	call   28430 <_ZN2ML9LayerDataD1Ev>
    65d0:	48 89 df             	mov    %rbx,%rdi
    65d3:	e8 78 de ff ff       	call   4450 <_Unwind_Resume@plt>
    65d8:	48 8b 7c 24 60       	mov    0x60(%rsp),%rdi
    65dd:	48 39 ef             	cmp    %rbp,%rdi
    65e0:	75 20                	jne    6602 <_ZN2ML15runInfTestQuantERKNS_5ModelENS_4PathEiPK7QParams.cold+0x4c>
    65e2:	c5 f8 77             	vzeroupper
    65e5:	48 89 df             	mov    %rbx,%rdi
    65e8:	e8 63 de ff ff       	call   4450 <_Unwind_Resume@plt>
    65ed:	48 8b 7c 24 60       	mov    0x60(%rsp),%rdi
    65f2:	48 39 ef             	cmp    %rbp,%rdi
    65f5:	75 1a                	jne    6611 <_ZN2ML15runInfTestQuantERKNS_5ModelENS_4PathEiPK7QParams.cold+0x5b>
    65f7:	c5 f8 77             	vzeroupper
    65fa:	48 89 df             	mov    %rbx,%rdi
    65fd:	e8 4e de ff ff       	call   4450 <_Unwind_Resume@plt>
    6602:	c5 f8 77             	vzeroupper
    6605:	e8 46 dc ff ff       	call   4250 <_ZdlPv@plt>
    660a:	eb d9                	jmp    65e5 <_ZN2ML15runInfTestQuantERKNS_5ModelENS_4PathEiPK7QParams.cold+0x2f>
    660c:	c5 f8 77             	vzeroupper
    660f:	eb b7                	jmp    65c8 <_ZN2ML15runInfTestQuantERKNS_5ModelENS_4PathEiPK7QParams.cold+0x12>
    6611:	c5 f8 77             	vzeroupper
    6614:	e8 37 dc ff ff       	call   4250 <_ZdlPv@plt>
    6619:	eb df                	jmp    65fa <_ZN2ML15runInfTestQuantERKNS_5ModelENS_4PathEiPK7QParams.cold+0x44>

000000000000661b <_ZN2ML16runInferenceTestERKNS_5ModelERKNS_4PathE.cold>:
    661b:	48 8b bc 24 70 01 00 	mov    0x170(%rsp),%rdi
    6622:	00 
    6623:	4c 39 e7             	cmp    %r12,%rdi
    6626:	0f 84 a4 00 00 00    	je     66d0 <_ZN2ML16runInferenceTestERKNS_5ModelERKNS_4PathE.cold+0xb5>
    662c:	c5 f8 77             	vzeroupper
    662f:	e8 1c dc ff ff       	call   4250 <_ZdlPv@plt>
    6634:	48 89 ef             	mov    %rbp,%rdi
    6637:	e8 f4 1d 02 00       	call   28430 <_ZN2ML9LayerDataD1Ev>
    663c:	48 8b bc 24 a0 00 00 	mov    0xa0(%rsp),%rdi
    6643:	00 
    6644:	4c 39 ff             	cmp    %r15,%rdi
    6647:	74 05                	je     664e <_ZN2ML16runInferenceTestERKNS_5ModelERKNS_4PathE.cold+0x33>
    6649:	e8 02 dc ff ff       	call   4250 <_ZdlPv@plt>
    664e:	4c 89 f7             	mov    %r14,%rdi
    6651:	e8 da 1d 02 00       	call   28430 <_ZN2ML9LayerDataD1Ev>
    6656:	48 89 df             	mov    %rbx,%rdi
    6659:	e8 f2 dd ff ff       	call   4450 <_Unwind_Resume@plt>
    665e:	48 8b bc 24 70 01 00 	mov    0x170(%rsp),%rdi
    6665:	00 
    6666:	4c 39 e7             	cmp    %r12,%rdi
    6669:	75 5b                	jne    66c6 <_ZN2ML16runInferenceTestERKNS_5ModelERKNS_4PathE.cold+0xab>
    666b:	c5 f8 77             	vzeroupper
    666e:	48 8b 7c 24 10       	mov    0x10(%rsp),%rdi
    6673:	48 8d 44 24 20       	lea    0x20(%rsp),%rax
    6678:	48 39 c7             	cmp    %rax,%rdi
    667b:	74 05                	je     6682 <_ZN2ML16runInferenceTestERKNS_5ModelERKNS_4PathE.cold+0x67>
    667d:	e8 ce db ff ff       	call   4250 <_ZdlPv@plt>
    6682:	48 8b 7c 24 70       	mov    0x70(%rsp),%rdi
    6687:	48 8d 84 24 80 00 00 	lea    0x80(%rsp),%rax
    668e:	00 
    668f:	48 39 c7             	cmp    %rax,%rdi
    6692:	74 05                	je     6699 <_ZN2ML16runInferenceTestERKNS_5ModelERKNS_4PathE.cold+0x7e>
    6694:	e8 b7 db ff ff       	call   4250 <_ZdlPv@plt>
    6699:	48 8b 7c 24 50       	mov    0x50(%rsp),%rdi
    669e:	48 8d 44 24 60       	lea    0x60(%rsp),%rax
    66a3:	48 39 c7             	cmp    %rax,%rdi
    66a6:	74 05                	je     66ad <_ZN2ML16runInferenceTestERKNS_5ModelERKNS_4PathE.cold+0x92>
    66a8:	e8 a3 db ff ff       	call   4250 <_ZdlPv@plt>
    66ad:	48 8b 7c 24 30       	mov    0x30(%rsp),%rdi
    66b2:	48 8d 44 24 40       	lea    0x40(%rsp),%rax
    66b7:	48 39 c7             	cmp    %rax,%rdi
    66ba:	74 80                	je     663c <_ZN2ML16runInferenceTestERKNS_5ModelERKNS_4PathE.cold+0x21>
    66bc:	e8 8f db ff ff       	call   4250 <_ZdlPv@plt>
    66c1:	e9 76 ff ff ff       	jmp    663c <_ZN2ML16runInferenceTestERKNS_5ModelERKNS_4PathE.cold+0x21>
    66c6:	c5 f8 77             	vzeroupper
    66c9:	e8 82 db ff ff       	call   4250 <_ZdlPv@plt>
    66ce:	eb 9e                	jmp    666e <_ZN2ML16runInferenceTestERKNS_5ModelERKNS_4PathE.cold+0x53>
    66d0:	c5 f8 77             	vzeroupper
    66d3:	e9 5c ff ff ff       	jmp    6634 <_ZN2ML16runInferenceTestERKNS_5ModelERKNS_4PathE.cold+0x19>
    66d8:	48 8b bc 24 70 01 00 	mov    0x170(%rsp),%rdi
    66df:	00 
    66e0:	4c 39 e7             	cmp    %r12,%rdi
    66e3:	74 2d                	je     6712 <_ZN2ML16runInferenceTestERKNS_5ModelERKNS_4PathE.cold+0xf7>
    66e5:	c5 f8 77             	vzeroupper
    66e8:	e8 63 db ff ff       	call   4250 <_ZdlPv@plt>
    66ed:	e9 5c ff ff ff       	jmp    664e <_ZN2ML16runInferenceTestERKNS_5ModelERKNS_4PathE.cold+0x33>
    66f2:	48 8b bc 24 70 01 00 	mov    0x170(%rsp),%rdi
    66f9:	00 
    66fa:	48 8d 84 24 80 01 00 	lea    0x180(%rsp),%rax
    6701:	00 
    6702:	48 39 c7             	cmp    %rax,%rdi
    6705:	75 4d                	jne    6754 <_ZN2ML16runInferenceTestERKNS_5ModelERKNS_4PathE.cold+0x139>
    6707:	c5 f8 77             	vzeroupper
    670a:	48 89 df             	mov    %rbx,%rdi
    670d:	e8 3e dd ff ff       	call   4450 <_Unwind_Resume@plt>
    6712:	c5 f8 77             	vzeroupper
    6715:	e9 34 ff ff ff       	jmp    664e <_ZN2ML16runInferenceTestERKNS_5ModelERKNS_4PathE.cold+0x33>
    671a:	48 8b bc 24 70 01 00 	mov    0x170(%rsp),%rdi
    6721:	00 
    6722:	4c 39 e7             	cmp    %r12,%rdi
    6725:	74 25                	je     674c <_ZN2ML16runInferenceTestERKNS_5ModelERKNS_4PathE.cold+0x131>
    6727:	c5 f8 77             	vzeroupper
    672a:	e8 21 db ff ff       	call   4250 <_ZdlPv@plt>
    672f:	e9 1a ff ff ff       	jmp    664e <_ZN2ML16runInferenceTestERKNS_5ModelERKNS_4PathE.cold+0x33>
    6734:	48 8b bc 24 70 01 00 	mov    0x170(%rsp),%rdi
    673b:	00 
    673c:	4c 39 e7             	cmp    %r12,%rdi
    673f:	75 1d                	jne    675e <_ZN2ML16runInferenceTestERKNS_5ModelERKNS_4PathE.cold+0x143>
    6741:	c5 f8 77             	vzeroupper
    6744:	48 89 df             	mov    %rbx,%rdi
    6747:	e8 04 dd ff ff       	call   4450 <_Unwind_Resume@plt>
    674c:	c5 f8 77             	vzeroupper
    674f:	e9 fa fe ff ff       	jmp    664e <_ZN2ML16runInferenceTestERKNS_5ModelERKNS_4PathE.cold+0x33>
    6754:	c5 f8 77             	vzeroupper
    6757:	e8 f4 da ff ff       	call   4250 <_ZdlPv@plt>
    675c:	eb ac                	jmp    670a <_ZN2ML16runInferenceTestERKNS_5ModelERKNS_4PathE.cold+0xef>
    675e:	c5 f8 77             	vzeroupper
    6761:	e8 ea da ff ff       	call   4250 <_ZdlPv@plt>
    6766:	eb dc                	jmp    6744 <_ZN2ML16runInferenceTestERKNS_5ModelERKNS_4PathE.cold+0x129>

0000000000006768 <_ZN2ML21inspectQuantizedLayerERKNS_4PathERKNSt7__cxx1112basic_stringIcSt11char_traitsIcESaIcEEERKSt6vectorImSaImEESF_.cold>:
    6768:	48 8b bc 24 70 01 00 	mov    0x170(%rsp),%rdi
    676f:	00 
    6770:	4c 39 ef             	cmp    %r13,%rdi
    6773:	75 4a                	jne    67bf <_ZN2ML21inspectQuantizedLayerERKNS_4PathERKNSt7__cxx1112basic_stringIcSt11char_traitsIcESaIcEEERKSt6vectorImSaImEESF_.cold+0x57>
    6775:	c5 f8 77             	vzeroupper
    6778:	48 8b 7c 24 40       	mov    0x40(%rsp),%rdi
    677d:	48 8d 44 24 50       	lea    0x50(%rsp),%rax
    6782:	48 39 c7             	cmp    %rax,%rdi
    6785:	74 05                	je     678c <_ZN2ML21inspectQuantizedLayerERKNS_4PathERKNSt7__cxx1112basic_stringIcSt11char_traitsIcESaIcEEERKSt6vectorImSaImEESF_.cold+0x24>
    6787:	e8 c4 da ff ff       	call   4250 <_ZdlPv@plt>
    678c:	48 8b 7c 24 20       	mov    0x20(%rsp),%rdi
    6791:	48 8d 44 24 30       	lea    0x30(%rsp),%rax
    6796:	48 39 c7             	cmp    %rax,%rdi
    6799:	74 05                	je     67a0 <_ZN2ML21inspectQuantizedLayerERKNS_4PathERKNSt7__cxx1112basic_stringIcSt11char_traitsIcESaIcEEERKSt6vectorImSaImEESF_.cold+0x38>
    679b:	e8 b0 da ff ff       	call   4250 <_ZdlPv@plt>
    67a0:	48 89 df             	mov    %rbx,%rdi
    67a3:	e8 a8 dc ff ff       	call   4450 <_Unwind_Resume@plt>
    67a8:	48 8b bc 24 70 01 00 	mov    0x170(%rsp),%rdi
    67af:	00 
    67b0:	4c 39 ef             	cmp    %r13,%rdi
    67b3:	74 14                	je     67c9 <_ZN2ML21inspectQuantizedLayerERKNS_4PathERKNSt7__cxx1112basic_stringIcSt11char_traitsIcESaIcEEERKSt6vectorImSaImEESF_.cold+0x61>
    67b5:	c5 f8 77             	vzeroupper
    67b8:	e8 93 da ff ff       	call   4250 <_ZdlPv@plt>
    67bd:	eb b9                	jmp    6778 <_ZN2ML21inspectQuantizedLayerERKNS_4PathERKNSt7__cxx1112basic_stringIcSt11char_traitsIcESaIcEEERKSt6vectorImSaImEESF_.cold+0x10>
    67bf:	c5 f8 77             	vzeroupper
    67c2:	e8 89 da ff ff       	call   4250 <_ZdlPv@plt>
    67c7:	eb af                	jmp    6778 <_ZN2ML21inspectQuantizedLayerERKNS_4PathERKNSt7__cxx1112basic_stringIcSt11char_traitsIcESaIcEEERKSt6vectorImSaImEESF_.cold+0x10>
    67c9:	c5 f8 77             	vzeroupper
    67cc:	eb aa                	jmp    6778 <_ZN2ML21inspectQuantizedLayerERKNS_4PathERKNSt7__cxx1112basic_stringIcSt11char_traitsIcESaIcEEERKSt6vectorImSaImEESF_.cold+0x10>
    67ce:	48 8b bc 24 70 01 00 	mov    0x170(%rsp),%rdi
    67d5:	00 
    67d6:	4c 39 ef             	cmp    %r13,%rdi
    67d9:	0f 85 24 01 00 00    	jne    6903 <_ZN2ML21inspectQuantizedLayerERKNS_4PathERKNSt7__cxx1112basic_stringIcSt11char_traitsIcESaIcEEERKSt6vectorImSaImEESF_.cold+0x19b>
    67df:	c5 f8 77             	vzeroupper
    67e2:	48 8b bc 24 20 01 00 	mov    0x120(%rsp),%rdi
    67e9:	00 
    67ea:	48 85 ff             	test   %rdi,%rdi
    67ed:	0f 85 1d 01 00 00    	jne    6910 <_ZN2ML21inspectQuantizedLayerERKNS_4PathERKNSt7__cxx1112basic_stringIcSt11char_traitsIcESaIcEEERKSt6vectorImSaImEESF_.cold+0x1a8>
    67f3:	48 89 e8             	mov    %rbp,%rax
    67f6:	48 83 e8 01          	sub    $0x1,%rax
    67fa:	0f 85 d4 00 00 00    	jne    68d4 <_ZN2ML21inspectQuantizedLayerERKNS_4PathERKNSt7__cxx1112basic_stringIcSt11char_traitsIcESaIcEEERKSt6vectorImSaImEESF_.cold+0x16c>
    6800:	48 89 df             	mov    %rbx,%rdi
    6803:	e8 08 d9 ff ff       	call   4110 <__cxa_begin_catch@plt>
    6808:	48 8b 74 24 40       	mov    0x40(%rsp),%rsi
    680d:	48 8d 3d ec 51 02 00 	lea    0x251ec(%rip),%rdi        # 2ba00 <_ZTSN2ML12SoftmaxLayerE+0x780>
    6814:	48 89 c3             	mov    %rax,%rbx
    6817:	31 c0                	xor    %eax,%eax
    6819:	e8 32 d8 ff ff       	call   4050 <printf@plt>
    681e:	48 8d 2d 7b eb 02 00 	lea    0x2eb7b(%rip),%rbp        # 353a0 <_ZSt4cerr@GLIBCXX_3.4>
    6825:	ba 0a 00 00 00       	mov    $0xa,%edx
    682a:	48 8d 35 32 5a 02 00 	lea    0x25a32(%rip),%rsi        # 2c263 <_ZTSN2ML12SoftmaxLayerE+0xfe3>
    6831:	48 89 ef             	mov    %rbp,%rdi
    6834:	e8 67 da ff ff       	call   42a0 <_ZSt16__ostream_insertIcSt11char_traitsIcEERSt13basic_ostreamIT_T0_ES6_PKS3_l@plt>
    6839:	48 8b 03             	mov    (%rbx),%rax
    683c:	48 89 df             	mov    %rbx,%rdi
    683f:	ff 50 10             	call   *0x10(%rax)
    6842:	48 89 ef             	mov    %rbp,%rdi
    6845:	48 89 c6             	mov    %rax,%rsi
    6848:	e8 13 da ff ff       	call   4260 <_ZStlsISt11char_traitsIcEERSt13basic_ostreamIcT_ES5_PKc@plt>
    684d:	c6 84 24 70 01 00 00 	movb   $0xa,0x170(%rsp)
    6854:	0a 
    6855:	48 89 c7             	mov    %rax,%rdi
    6858:	48 8b 00             	mov    (%rax),%rax
    685b:	48 8b 40 e8          	mov    -0x18(%rax),%rax
    685f:	48 83 7c 07 10 00    	cmpq   $0x0,0x10(%rdi,%rax,1)
    6865:	0f 85 86 00 00 00    	jne    68f1 <_ZN2ML21inspectQuantizedLayerERKNS_4PathERKNSt7__cxx1112basic_stringIcSt11char_traitsIcESaIcEEERKSt6vectorImSaImEESF_.cold+0x189>
    686b:	be 0a 00 00 00       	mov    $0xa,%esi
    6870:	e8 cb d7 ff ff       	call   4040 <_ZNSo3putEc@plt>
    6875:	e8 66 db ff ff       	call   43e0 <__cxa_end_catch@plt>
    687a:	e9 cb 1a 01 00       	jmp    1834a <_ZN2ML21inspectQuantizedLayerERKNS_4PathERKNSt7__cxx1112basic_stringIcSt11char_traitsIcESaIcEEERKSt6vectorImSaImEESF_+0x3ba>
    687f:	48 8b bc 24 80 00 00 	mov    0x80(%rsp),%rdi
    6886:	00 
    6887:	48 8d 84 24 90 00 00 	lea    0x90(%rsp),%rax
    688e:	00 
    688f:	48 39 c7             	cmp    %rax,%rdi
    6892:	0f 85 a2 00 00 00    	jne    693a <_ZN2ML21inspectQuantizedLayerERKNS_4PathERKNSt7__cxx1112basic_stringIcSt11char_traitsIcESaIcEEERKSt6vectorImSaImEESF_.cold+0x1d2>
    6898:	c5 f8 77             	vzeroupper
    689b:	4c 89 e7             	mov    %r12,%rdi
    689e:	e8 8d 1b 02 00       	call   28430 <_ZN2ML9LayerDataD1Ev>
    68a3:	48 8b 7c 24 08       	mov    0x8(%rsp),%rdi
    68a8:	e8 43 71 00 00       	call   d9f0 <_ZN2ML11LayerParamsD1Ev>
    68ad:	48 8b 7c 24 10       	mov    0x10(%rsp),%rdi
    68b2:	e8 79 1b 02 00       	call   28430 <_ZN2ML9LayerDataD1Ev>
    68b7:	48 8b 7c 24 18       	mov    0x18(%rsp),%rdi
    68bc:	e8 2f 71 00 00       	call   d9f0 <_ZN2ML11LayerParamsD1Ev>
    68c1:	48 89 e8             	mov    %rbp,%rax
    68c4:	e9 2d ff ff ff       	jmp    67f6 <_ZN2ML21inspectQuantizedLayerERKNS_4PathERKNSt7__cxx1112basic_stringIcSt11char_traitsIcESaIcEEERKSt6vectorImSaImEESF_.cold+0x8e>
    68c9:	48 89 c3             	mov    %rax,%rbx
    68cc:	c5 f8 77             	vzeroupper
    68cf:	e8 0c db ff ff       	call   43e0 <__cxa_end_catch@plt>
    68d4:	48 8b 7c 24 60       	mov    0x60(%rsp),%rdi
    68d9:	48 8d 44 24 70       	lea    0x70(%rsp),%rax
    68de:	48 39 c7             	cmp    %rax,%rdi
    68e1:	0f 84 91 fe ff ff    	je     6778 <_ZN2ML21inspectQuantizedLayerERKNS_4PathERKNSt7__cxx1112basic_stringIcSt11char_traitsIcESaIcEEERKSt6vectorImSaImEESF_.cold+0x10>
    68e7:	e8 64 d9 ff ff       	call   4250 <_ZdlPv@plt>
    68ec:	e9 87 fe ff ff       	jmp    6778 <_ZN2ML21inspectQuantizedLayerERKNS_4PathERKNSt7__cxx1112basic_stringIcSt11char_traitsIcESaIcEEERKSt6vectorImSaImEESF_.cold+0x10>
    68f1:	ba 01 00 00 00       	mov    $0x1,%edx
    68f6:	4c 89 e6             	mov    %r12,%rsi
    68f9:	e8 a2 d9 ff ff       	call   42a0 <_ZSt16__ostream_insertIcSt11char_traitsIcEERSt13basic_ostreamIT_T0_ES6_PKS3_l@plt>
    68fe:	e9 72 ff ff ff       	jmp    6875 <_ZN2ML21inspectQuantizedLayerERKNS_4PathERKNSt7__cxx1112basic_stringIcSt11char_traitsIcESaIcEEERKSt6vectorImSaImEESF_.cold+0x10d>
    6903:	c5 f8 77             	vzeroupper
    6906:	e8 45 d9 ff ff       	call   4250 <_ZdlPv@plt>
    690b:	e9 d2 fe ff ff       	jmp    67e2 <_ZN2ML21inspectQuantizedLayerERKNS_4PathERKNSt7__cxx1112basic_stringIcSt11char_traitsIcESaIcEEERKSt6vectorImSaImEESF_.cold+0x7a>
    6910:	e8 3b d9 ff ff       	call   4250 <_ZdlPv@plt>
    6915:	e9 d9 fe ff ff       	jmp    67f3 <_ZN2ML21inspectQuantizedLayerERKNS_4PathERKNSt7__cxx1112basic_stringIcSt11char_traitsIcESaIcEEERKSt6vectorImSaImEESF_.cold+0x8b>
    691a:	48 8b bc 24 70 01 00 	mov    0x170(%rsp),%rdi
    6921:	00 
    6922:	48 8d 84 24 80 01 00 	lea    0x180(%rsp),%rax
    6929:	00 
    692a:	48 39 c7             	cmp    %rax,%rdi
    692d:	75 18                	jne    6947 <_ZN2ML21inspectQuantizedLayerERKNS_4PathERKNSt7__cxx1112basic_stringIcSt11char_traitsIcESaIcEEERKSt6vectorImSaImEESF_.cold+0x1df>
    692f:	c5 f8 77             	vzeroupper
    6932:	48 89 df             	mov    %rbx,%rdi
    6935:	e8 16 db ff ff       	call   4450 <_Unwind_Resume@plt>
    693a:	c5 f8 77             	vzeroupper
    693d:	e8 0e d9 ff ff       	call   4250 <_ZdlPv@plt>
    6942:	e9 54 ff ff ff       	jmp    689b <_ZN2ML21inspectQuantizedLayerERKNS_4PathERKNSt7__cxx1112basic_stringIcSt11char_traitsIcESaIcEEERKSt6vectorImSaImEESF_.cold+0x133>
    6947:	c5 f8 77             	vzeroupper
    694a:	e8 01 d9 ff ff       	call   4250 <_ZdlPv@plt>
    694f:	eb e1                	jmp    6932 <_ZN2ML21inspectQuantizedLayerERKNS_4PathERKNSt7__cxx1112basic_stringIcSt11char_traitsIcESaIcEEERKSt6vectorImSaImEESF_.cold+0x1ca>
    6951:	48 8b bc 24 70 01 00 	mov    0x170(%rsp),%rdi
    6958:	00 
    6959:	4c 39 ef             	cmp    %r13,%rdi
    695c:	74 23                	je     6981 <_ZN2ML21inspectQuantizedLayerERKNS_4PathERKNSt7__cxx1112basic_stringIcSt11char_traitsIcESaIcEEERKSt6vectorImSaImEESF_.cold+0x219>
    695e:	c5 f8 77             	vzeroupper
    6961:	e8 ea d8 ff ff       	call   4250 <_ZdlPv@plt>
    6966:	48 8b bc 24 80 00 00 	mov    0x80(%rsp),%rdi
    696d:	00 
    696e:	48 85 ff             	test   %rdi,%rdi
    6971:	0f 84 36 ff ff ff    	je     68ad <_ZN2ML21inspectQuantizedLayerERKNS_4PathERKNSt7__cxx1112basic_stringIcSt11char_traitsIcESaIcEEERKSt6vectorImSaImEESF_.cold+0x145>
    6977:	e8 d4 d8 ff ff       	call   4250 <_ZdlPv@plt>
    697c:	e9 2c ff ff ff       	jmp    68ad <_ZN2ML21inspectQuantizedLayerERKNS_4PathERKNSt7__cxx1112basic_stringIcSt11char_traitsIcESaIcEEERKSt6vectorImSaImEESF_.cold+0x145>
    6981:	c5 f8 77             	vzeroupper
    6984:	eb e0                	jmp    6966 <_ZN2ML21inspectQuantizedLayerERKNS_4PathERKNSt7__cxx1112basic_stringIcSt11char_traitsIcESaIcEEERKSt6vectorImSaImEESF_.cold+0x1fe>
    6986:	48 8b bc 24 70 01 00 	mov    0x170(%rsp),%rdi
    698d:	00 
    698e:	4c 39 ef             	cmp    %r13,%rdi
    6991:	74 49                	je     69dc <_ZN2ML21inspectQuantizedLayerERKNS_4PathERKNSt7__cxx1112basic_stringIcSt11char_traitsIcESaIcEEERKSt6vectorImSaImEESF_.cold+0x274>
    6993:	c5 f8 77             	vzeroupper
    6996:	e8 b5 d8 ff ff       	call   4250 <_ZdlPv@plt>
    699b:	e9 0d ff ff ff       	jmp    68ad <_ZN2ML21inspectQuantizedLayerERKNS_4PathERKNSt7__cxx1112basic_stringIcSt11char_traitsIcESaIcEEERKSt6vectorImSaImEESF_.cold+0x145>
    69a0:	48 8b bc 24 70 01 00 	mov    0x170(%rsp),%rdi
    69a7:	00 
    69a8:	4c 39 ef             	cmp    %r13,%rdi
    69ab:	74 27                	je     69d4 <_ZN2ML21inspectQuantizedLayerERKNS_4PathERKNSt7__cxx1112basic_stringIcSt11char_traitsIcESaIcEEERKSt6vectorImSaImEESF_.cold+0x26c>
    69ad:	c5 f8 77             	vzeroupper
    69b0:	e8 9b d8 ff ff       	call   4250 <_ZdlPv@plt>
    69b5:	e9 d2 fd ff ff       	jmp    678c <_ZN2ML21inspectQuantizedLayerERKNS_4PathERKNSt7__cxx1112basic_stringIcSt11char_traitsIcESaIcEEERKSt6vectorImSaImEESF_.cold+0x24>
    69ba:	48 8b bc 24 70 01 00 	mov    0x170(%rsp),%rdi
    69c1:	00 
    69c2:	4c 39 ef             	cmp    %r13,%rdi
    69c5:	74 1d                	je     69e4 <_ZN2ML21inspectQuantizedLayerERKNS_4PathERKNSt7__cxx1112basic_stringIcSt11char_traitsIcESaIcEEERKSt6vectorImSaImEESF_.cold+0x27c>
    69c7:	c5 f8 77             	vzeroupper
    69ca:	e8 81 d8 ff ff       	call   4250 <_ZdlPv@plt>
    69cf:	e9 b8 fd ff ff       	jmp    678c <_ZN2ML21inspectQuantizedLayerERKNS_4PathERKNSt7__cxx1112basic_stringIcSt11char_traitsIcESaIcEEERKSt6vectorImSaImEESF_.cold+0x24>
    69d4:	c5 f8 77             	vzeroupper
    69d7:	e9 b0 fd ff ff       	jmp    678c <_ZN2ML21inspectQuantizedLayerERKNS_4PathERKNSt7__cxx1112basic_stringIcSt11char_traitsIcESaIcEEERKSt6vectorImSaImEESF_.cold+0x24>
    69dc:	c5 f8 77             	vzeroupper
    69df:	e9 c9 fe ff ff       	jmp    68ad <_ZN2ML21inspectQuantizedLayerERKNS_4PathERKNSt7__cxx1112basic_stringIcSt11char_traitsIcESaIcEEERKSt6vectorImSaImEESF_.cold+0x145>
    69e4:	c5 f8 77             	vzeroupper
    69e7:	e9 a0 fd ff ff       	jmp    678c <_ZN2ML21inspectQuantizedLayerERKNS_4PathERKNSt7__cxx1112basic_stringIcSt11char_traitsIcESaIcEEERKSt6vectorImSaImEESF_.cold+0x24>

00000000000069ec <_ZN2ML12runBasicTestERKNS_5ModelERKNS_4PathE.cold>:
    69ec:	48 8b bc 24 b0 00 00 	mov    0xb0(%rsp),%rdi
    69f3:	00 
    69f4:	48 8d 84 24 c0 00 00 	lea    0xc0(%rsp),%rax
    69fb:	00 
    69fc:	48 39 c7             	cmp    %rax,%rdi
    69ff:	75 30                	jne    6a31 <_ZN2ML12runBasicTestERKNS_5ModelERKNS_4PathE.cold+0x45>
    6a01:	c5 f8 77             	vzeroupper
    6a04:	48 89 df             	mov    %rbx,%rdi
    6a07:	e8 44 da ff ff       	call   4450 <_Unwind_Resume@plt>
    6a0c:	48 8b 7c 24 40       	mov    0x40(%rsp),%rdi
    6a11:	4c 39 f7             	cmp    %r14,%rdi
    6a14:	75 25                	jne    6a3b <_ZN2ML12runBasicTestERKNS_5ModelERKNS_4PathE.cold+0x4f>
    6a16:	c5 f8 77             	vzeroupper
    6a19:	48 89 df             	mov    %rbx,%rdi
    6a1c:	e8 0f 1a 02 00       	call   28430 <_ZN2ML9LayerDataD1Ev>
    6a21:	48 89 ef             	mov    %rbp,%rdi
    6a24:	e8 07 1a 02 00       	call   28430 <_ZN2ML9LayerDataD1Ev>
    6a29:	4c 89 e7             	mov    %r12,%rdi
    6a2c:	e8 1f da ff ff       	call   4450 <_Unwind_Resume@plt>
    6a31:	c5 f8 77             	vzeroupper
    6a34:	e8 17 d8 ff ff       	call   4250 <_ZdlPv@plt>
    6a39:	eb c9                	jmp    6a04 <_ZN2ML12runBasicTestERKNS_5ModelERKNS_4PathE.cold+0x18>
    6a3b:	c5 f8 77             	vzeroupper
    6a3e:	e8 0d d8 ff ff       	call   4250 <_ZdlPv@plt>
    6a43:	eb d4                	jmp    6a19 <_ZN2ML12runBasicTestERKNS_5ModelERKNS_4PathE.cold+0x2d>
    6a45:	e8 f6 d8 ff ff       	call   4340 <__cxa_throw_bad_array_new_length@plt>
    6a4a:	48 8b bc 24 f0 00 00 	mov    0xf0(%rsp),%rdi
    6a51:	00 
    6a52:	49 89 c4             	mov    %rax,%r12
    6a55:	48 85 ff             	test   %rdi,%rdi
    6a58:	75 22                	jne    6a7c <_ZN2ML12runBasicTestERKNS_5ModelERKNS_4PathE.cold+0x90>
    6a5a:	c5 f8 77             	vzeroupper
    6a5d:	48 89 df             	mov    %rbx,%rdi
    6a60:	e8 8b 6f 00 00       	call   d9f0 <_ZN2ML11LayerParamsD1Ev>
    6a65:	eb ba                	jmp    6a21 <_ZN2ML12runBasicTestERKNS_5ModelERKNS_4PathE.cold+0x35>
    6a67:	48 8b bc 24 b0 00 00 	mov    0xb0(%rsp),%rdi
    6a6e:	00 
    6a6f:	4c 39 e7             	cmp    %r12,%rdi
    6a72:	75 12                	jne    6a86 <_ZN2ML12runBasicTestERKNS_5ModelERKNS_4PathE.cold+0x9a>
    6a74:	c5 f8 77             	vzeroupper
    6a77:	49 89 dc             	mov    %rbx,%r12
    6a7a:	eb a5                	jmp    6a21 <_ZN2ML12runBasicTestERKNS_5ModelERKNS_4PathE.cold+0x35>
    6a7c:	c5 f8 77             	vzeroupper
    6a7f:	e8 6c d8 ff ff       	call   42f0 <_ZdaPv@plt>
    6a84:	eb d7                	jmp    6a5d <_ZN2ML12runBasicTestERKNS_5ModelERKNS_4PathE.cold+0x71>
    6a86:	c5 f8 77             	vzeroupper
    6a89:	e8 c2 d7 ff ff       	call   4250 <_ZdlPv@plt>
    6a8e:	eb e7                	jmp    6a77 <_ZN2ML12runBasicTestERKNS_5ModelERKNS_4PathE.cold+0x8b>
    6a90:	48 89 df             	mov    %rbx,%rdi
    6a93:	c5 f8 77             	vzeroupper
    6a96:	48 89 eb             	mov    %rbp,%rbx
    6a99:	e8 52 6f 00 00       	call   d9f0 <_ZN2ML11LayerParamsD1Ev>
    6a9e:	48 8b 7c 24 40       	mov    0x40(%rsp),%rdi
    6aa3:	48 8d 44 24 50       	lea    0x50(%rsp),%rax
    6aa8:	48 39 c7             	cmp    %rax,%rdi
    6aab:	74 05                	je     6ab2 <_ZN2ML12runBasicTestERKNS_5ModelERKNS_4PathE.cold+0xc6>
    6aad:	e8 9e d7 ff ff       	call   4250 <_ZdlPv@plt>
    6ab2:	48 8b 7c 24 20       	mov    0x20(%rsp),%rdi
    6ab7:	48 85 ff             	test   %rdi,%rdi
    6aba:	74 05                	je     6ac1 <_ZN2ML12runBasicTestERKNS_5ModelERKNS_4PathE.cold+0xd5>
    6abc:	e8 8f d7 ff ff       	call   4250 <_ZdlPv@plt>
    6ac1:	48 89 df             	mov    %rbx,%rdi
    6ac4:	e8 87 d9 ff ff       	call   4450 <_Unwind_Resume@plt>

0000000000006ac9 <_ZN2ML12runLayerTestEmRKNS_5ModelERKNS_4PathE.cold>:
    6ac9:	48 89 df             	mov    %rbx,%rdi
    6acc:	c5 f8 77             	vzeroupper
    6acf:	4c 89 f3             	mov    %r14,%rbx
    6ad2:	e8 19 6f 00 00       	call   d9f0 <_ZN2ML11LayerParamsD1Ev>
    6ad7:	48 8b bd f0 fe ff ff 	mov    -0x110(%rbp),%rdi
    6ade:	4c 39 ef             	cmp    %r13,%rdi
    6ae1:	74 05                	je     6ae8 <_ZN2ML12runLayerTestEmRKNS_5ModelERKNS_4PathE.cold+0x1f>
    6ae3:	e8 68 d7 ff ff       	call   4250 <_ZdlPv@plt>
    6ae8:	48 8b bd d0 fe ff ff 	mov    -0x130(%rbp),%rdi
    6aef:	48 85 ff             	test   %rdi,%rdi
    6af2:	74 05                	je     6af9 <_ZN2ML12runLayerTestEmRKNS_5ModelERKNS_4PathE.cold+0x30>
    6af4:	e8 57 d7 ff ff       	call   4250 <_ZdlPv@plt>
    6af9:	48 8b bd 70 fe ff ff 	mov    -0x190(%rbp),%rdi
    6b00:	48 85 ff             	test   %rdi,%rdi
    6b03:	74 05                	je     6b0a <_ZN2ML12runLayerTestEmRKNS_5ModelERKNS_4PathE.cold+0x41>
    6b05:	e8 46 d7 ff ff       	call   4250 <_ZdlPv@plt>
    6b0a:	48 89 df             	mov    %rbx,%rdi
    6b0d:	e8 3e d9 ff ff       	call   4450 <_Unwind_Resume@plt>
    6b12:	48 8b bd b0 fe ff ff 	mov    -0x150(%rbp),%rdi
    6b19:	4c 39 ef             	cmp    %r13,%rdi
    6b1c:	74 32                	je     6b50 <_ZN2ML12runLayerTestEmRKNS_5ModelERKNS_4PathE.cold+0x87>
    6b1e:	c5 f8 77             	vzeroupper
    6b21:	e8 2a d7 ff ff       	call   4250 <_ZdlPv@plt>
    6b26:	48 89 df             	mov    %rbx,%rdi
    6b29:	4c 89 f3             	mov    %r14,%rbx
    6b2c:	e8 ff 18 02 00       	call   28430 <_ZN2ML9LayerDataD1Ev>
    6b31:	48 8b bd 00 ff ff ff 	mov    -0x100(%rbp),%rdi
    6b38:	4c 39 e7             	cmp    %r12,%rdi
    6b3b:	74 05                	je     6b42 <_ZN2ML12runLayerTestEmRKNS_5ModelERKNS_4PathE.cold+0x79>
    6b3d:	e8 0e d7 ff ff       	call   4250 <_ZdlPv@plt>
    6b42:	48 8b bd 68 fe ff ff 	mov    -0x198(%rbp),%rdi
    6b49:	e8 e2 18 02 00       	call   28430 <_ZN2ML9LayerDataD1Ev>
    6b4e:	eb a9                	jmp    6af9 <_ZN2ML12runLayerTestEmRKNS_5ModelERKNS_4PathE.cold+0x30>
    6b50:	c5 f8 77             	vzeroupper
    6b53:	eb d1                	jmp    6b26 <_ZN2ML12runLayerTestEmRKNS_5ModelERKNS_4PathE.cold+0x5d>
    6b55:	48 8b bd b0 fe ff ff 	mov    -0x150(%rbp),%rdi
    6b5c:	48 8d 85 c0 fe ff ff 	lea    -0x140(%rbp),%rax
    6b63:	48 39 c7             	cmp    %rax,%rdi
    6b66:	74 22                	je     6b8a <_ZN2ML12runLayerTestEmRKNS_5ModelERKNS_4PathE.cold+0xc1>
    6b68:	c5 f8 77             	vzeroupper
    6b6b:	e8 e0 d6 ff ff       	call   4250 <_ZdlPv@plt>
    6b70:	48 8b bd 90 fe ff ff 	mov    -0x170(%rbp),%rdi
    6b77:	48 8d 85 a0 fe ff ff 	lea    -0x160(%rbp),%rax
    6b7e:	48 39 c7             	cmp    %rax,%rdi
    6b81:	74 ae                	je     6b31 <_ZN2ML12runLayerTestEmRKNS_5ModelERKNS_4PathE.cold+0x68>
    6b83:	e8 c8 d6 ff ff       	call   4250 <_ZdlPv@plt>
    6b88:	eb a7                	jmp    6b31 <_ZN2ML12runLayerTestEmRKNS_5ModelERKNS_4PathE.cold+0x68>
    6b8a:	c5 f8 77             	vzeroupper
    6b8d:	eb e1                	jmp    6b70 <_ZN2ML12runLayerTestEmRKNS_5ModelERKNS_4PathE.cold+0xa7>
    6b8f:	48 8b 7d 80          	mov    -0x80(%rbp),%rdi
    6b93:	4c 39 ff             	cmp    %r15,%rdi
    6b96:	0f 84 83 00 00 00    	je     6c1f <_ZN2ML12runLayerTestEmRKNS_5ModelERKNS_4PathE.cold+0x156>
    6b9c:	c5 f8 77             	vzeroupper
    6b9f:	e8 ac d6 ff ff       	call   4250 <_ZdlPv@plt>
    6ba4:	eb 9c                	jmp    6b42 <_ZN2ML12runLayerTestEmRKNS_5ModelERKNS_4PathE.cold+0x79>
    6ba6:	48 8b 7d 80          	mov    -0x80(%rbp),%rdi
    6baa:	48 8d 45 90          	lea    -0x70(%rbp),%rax
    6bae:	48 39 c7             	cmp    %rax,%rdi
    6bb1:	74 51                	je     6c04 <_ZN2ML12runLayerTestEmRKNS_5ModelERKNS_4PathE.cold+0x13b>
    6bb3:	c5 f8 77             	vzeroupper
    6bb6:	e8 95 d6 ff ff       	call   4250 <_ZdlPv@plt>
    6bbb:	48 8b bd 30 ff ff ff 	mov    -0xd0(%rbp),%rdi
    6bc2:	48 8d 85 40 ff ff ff 	lea    -0xc0(%rbp),%rax
    6bc9:	48 39 c7             	cmp    %rax,%rdi
    6bcc:	74 05                	je     6bd3 <_ZN2ML12runLayerTestEmRKNS_5ModelERKNS_4PathE.cold+0x10a>
    6bce:	e8 7d d6 ff ff       	call   4250 <_ZdlPv@plt>
    6bd3:	48 8b bd d0 fe ff ff 	mov    -0x130(%rbp),%rdi
    6bda:	48 8b 85 58 fe ff ff 	mov    -0x1a8(%rbp),%rax
    6be1:	48 39 c7             	cmp    %rax,%rdi
    6be4:	74 05                	je     6beb <_ZN2ML12runLayerTestEmRKNS_5ModelERKNS_4PathE.cold+0x122>
    6be6:	e8 65 d6 ff ff       	call   4250 <_ZdlPv@plt>
    6beb:	48 8b bd f0 fe ff ff 	mov    -0x110(%rbp),%rdi
    6bf2:	4c 39 ef             	cmp    %r13,%rdi
    6bf5:	74 05                	je     6bfc <_ZN2ML12runLayerTestEmRKNS_5ModelERKNS_4PathE.cold+0x133>
    6bf7:	e8 54 d6 ff ff       	call   4250 <_ZdlPv@plt>
    6bfc:	48 89 df             	mov    %rbx,%rdi
    6bff:	e8 4c d8 ff ff       	call   4450 <_Unwind_Resume@plt>
    6c04:	c5 f8 77             	vzeroupper
    6c07:	eb b2                	jmp    6bbb <_ZN2ML12runLayerTestEmRKNS_5ModelERKNS_4PathE.cold+0xf2>
    6c09:	48 8b 7d 80          	mov    -0x80(%rbp),%rdi
    6c0d:	4c 39 ff             	cmp    %r15,%rdi
    6c10:	74 15                	je     6c27 <_ZN2ML12runLayerTestEmRKNS_5ModelERKNS_4PathE.cold+0x15e>
    6c12:	c5 f8 77             	vzeroupper
    6c15:	e8 36 d6 ff ff       	call   4250 <_ZdlPv@plt>
    6c1a:	e9 23 ff ff ff       	jmp    6b42 <_ZN2ML12runLayerTestEmRKNS_5ModelERKNS_4PathE.cold+0x79>
    6c1f:	c5 f8 77             	vzeroupper
    6c22:	e9 1b ff ff ff       	jmp    6b42 <_ZN2ML12runLayerTestEmRKNS_5ModelERKNS_4PathE.cold+0x79>
    6c27:	c5 f8 77             	vzeroupper
    6c2a:	e9 13 ff ff ff       	jmp    6b42 <_ZN2ML12runLayerTestEmRKNS_5ModelERKNS_4PathE.cold+0x79>

0000000000006c2f <_ZN2ML16profileFp32ModelERKNS_5ModelERKNS_4PathEi.cold>:
    6c2f:	48 8b bd 40 ff ff ff 	mov    -0xc0(%rbp),%rdi
    6c36:	48 8b 85 70 fe ff ff 	mov    -0x190(%rbp),%rax
    6c3d:	48 39 c7             	cmp    %rax,%rdi
    6c40:	75 62                	jne    6ca4 <_ZN2ML16profileFp32ModelERKNS_5ModelERKNS_4PathEi.cold+0x75>
    6c42:	c5 f8 77             	vzeroupper
    6c45:	48 8b bd c0 fe ff ff 	mov    -0x140(%rbp),%rdi
    6c4c:	48 8d 85 d0 fe ff ff 	lea    -0x130(%rbp),%rax
    6c53:	48 39 c7             	cmp    %rax,%rdi
    6c56:	74 05                	je     6c5d <_ZN2ML16profileFp32ModelERKNS_5ModelERKNS_4PathEi.cold+0x2e>
    6c58:	e8 f3 d5 ff ff       	call   4250 <_ZdlPv@plt>
    6c5d:	48 83 bd 78 fe ff ff 	cmpq   $0x0,-0x188(%rbp)
    6c64:	00 
    6c65:	74 0c                	je     6c73 <_ZN2ML16profileFp32ModelERKNS_5ModelERKNS_4PathEi.cold+0x44>
    6c67:	48 8b bd 78 fe ff ff 	mov    -0x188(%rbp),%rdi
    6c6e:	e8 dd d5 ff ff       	call   4250 <_ZdlPv@plt>
    6c73:	48 89 df             	mov    %rbx,%rdi
    6c76:	e8 d5 d7 ff ff       	call   4450 <_Unwind_Resume@plt>
    6c7b:	48 8b bd 40 ff ff ff 	mov    -0xc0(%rbp),%rdi
    6c82:	48 8b 85 70 fe ff ff 	mov    -0x190(%rbp),%rax
    6c89:	48 39 c7             	cmp    %rax,%rdi
    6c8c:	74 59                	je     6ce7 <_ZN2ML16profileFp32ModelERKNS_5ModelERKNS_4PathEi.cold+0xb8>
    6c8e:	c5 f8 77             	vzeroupper
    6c91:	e8 ba d5 ff ff       	call   4250 <_ZdlPv@plt>
    6c96:	48 8b bd 60 fe ff ff 	mov    -0x1a0(%rbp),%rdi
    6c9d:	e8 8e 17 02 00       	call   28430 <_ZN2ML9LayerDataD1Ev>
    6ca2:	eb a1                	jmp    6c45 <_ZN2ML16profileFp32ModelERKNS_5ModelERKNS_4PathEi.cold+0x16>
    6ca4:	c5 f8 77             	vzeroupper
    6ca7:	e8 a4 d5 ff ff       	call   4250 <_ZdlPv@plt>
    6cac:	eb 97                	jmp    6c45 <_ZN2ML16profileFp32ModelERKNS_5ModelERKNS_4PathEi.cold+0x16>
    6cae:	48 8b bd 00 ff ff ff 	mov    -0x100(%rbp),%rdi
    6cb5:	48 8b 85 a0 fe ff ff 	mov    -0x160(%rbp),%rax
    6cbc:	48 39 c7             	cmp    %rax,%rdi
    6cbf:	0f 84 d3 00 00 00    	je     6d98 <_ZN2ML16profileFp32ModelERKNS_5ModelERKNS_4PathEi.cold+0x169>
    6cc5:	c5 f8 77             	vzeroupper
    6cc8:	e8 83 d5 ff ff       	call   4250 <_ZdlPv@plt>
    6ccd:	48 8b bd e0 fe ff ff 	mov    -0x120(%rbp),%rdi
    6cd4:	48 8b 85 98 fe ff ff 	mov    -0x168(%rbp),%rax
    6cdb:	48 39 c7             	cmp    %rax,%rdi
    6cde:	74 b6                	je     6c96 <_ZN2ML16profileFp32ModelERKNS_5ModelERKNS_4PathEi.cold+0x67>
    6ce0:	e8 6b d5 ff ff       	call   4250 <_ZdlPv@plt>
    6ce5:	eb af                	jmp    6c96 <_ZN2ML16profileFp32ModelERKNS_5ModelERKNS_4PathEi.cold+0x67>
    6ce7:	c5 f8 77             	vzeroupper
    6cea:	eb aa                	jmp    6c96 <_ZN2ML16profileFp32ModelERKNS_5ModelERKNS_4PathEi.cold+0x67>
    6cec:	48 8b 7d 80          	mov    -0x80(%rbp),%rdi
    6cf0:	48 8d 45 90          	lea    -0x70(%rbp),%rax
    6cf4:	48 39 c7             	cmp    %rax,%rdi
    6cf7:	74 2e                	je     6d27 <_ZN2ML16profileFp32ModelERKNS_5ModelERKNS_4PathEi.cold+0xf8>
    6cf9:	c5 f8 77             	vzeroupper
    6cfc:	e8 4f d5 ff ff       	call   4250 <_ZdlPv@plt>
    6d01:	e9 6d ff ff ff       	jmp    6c73 <_ZN2ML16profileFp32ModelERKNS_5ModelERKNS_4PathEi.cold+0x44>
    6d06:	48 8b 7d 80          	mov    -0x80(%rbp),%rdi
    6d0a:	48 8b 85 48 fe ff ff 	mov    -0x1b8(%rbp),%rax
    6d11:	48 39 c7             	cmp    %rax,%rdi
    6d14:	0f 84 8b 00 00 00    	je     6da5 <_ZN2ML16profileFp32ModelERKNS_5ModelERKNS_4PathEi.cold+0x176>
    6d1a:	c5 f8 77             	vzeroupper
    6d1d:	e8 2e d5 ff ff       	call   4250 <_ZdlPv@plt>
    6d22:	e9 36 ff ff ff       	jmp    6c5d <_ZN2ML16profileFp32ModelERKNS_5ModelERKNS_4PathEi.cold+0x2e>
    6d27:	c5 f8 77             	vzeroupper
    6d2a:	e9 44 ff ff ff       	jmp    6c73 <_ZN2ML16profileFp32ModelERKNS_5ModelERKNS_4PathEi.cold+0x44>
    6d2f:	48 8b bd 00 ff ff ff 	mov    -0x100(%rbp),%rdi
    6d36:	48 8d 85 10 ff ff ff 	lea    -0xf0(%rbp),%rax
    6d3d:	48 39 c7             	cmp    %rax,%rdi
    6d40:	74 5e                	je     6da0 <_ZN2ML16profileFp32ModelERKNS_5ModelERKNS_4PathEi.cold+0x171>
    6d42:	c5 f8 77             	vzeroupper
    6d45:	e8 06 d5 ff ff       	call   4250 <_ZdlPv@plt>
    6d4a:	48 8b bd e0 fe ff ff 	mov    -0x120(%rbp),%rdi
    6d51:	48 8d 85 f0 fe ff ff 	lea    -0x110(%rbp),%rax
    6d58:	48 39 c7             	cmp    %rax,%rdi
    6d5b:	74 05                	je     6d62 <_ZN2ML16profileFp32ModelERKNS_5ModelERKNS_4PathEi.cold+0x133>
    6d5d:	e8 ee d4 ff ff       	call   4250 <_ZdlPv@plt>
    6d62:	48 8b 7d 80          	mov    -0x80(%rbp),%rdi
    6d66:	48 8b 85 48 fe ff ff 	mov    -0x1b8(%rbp),%rax
    6d6d:	48 39 c7             	cmp    %rax,%rdi
    6d70:	74 05                	je     6d77 <_ZN2ML16profileFp32ModelERKNS_5ModelERKNS_4PathEi.cold+0x148>
    6d72:	e8 d9 d4 ff ff       	call   4250 <_ZdlPv@plt>
    6d77:	48 8b bd 40 ff ff ff 	mov    -0xc0(%rbp),%rdi
    6d7e:	48 8b 85 70 fe ff ff 	mov    -0x190(%rbp),%rax
    6d85:	48 39 c7             	cmp    %rax,%rdi
    6d88:	0f 84 cf fe ff ff    	je     6c5d <_ZN2ML16profileFp32ModelERKNS_5ModelERKNS_4PathEi.cold+0x2e>
    6d8e:	e8 bd d4 ff ff       	call   4250 <_ZdlPv@plt>
    6d93:	e9 c5 fe ff ff       	jmp    6c5d <_ZN2ML16profileFp32ModelERKNS_5ModelERKNS_4PathEi.cold+0x2e>
    6d98:	c5 f8 77             	vzeroupper
    6d9b:	e9 2d ff ff ff       	jmp    6ccd <_ZN2ML16profileFp32ModelERKNS_5ModelERKNS_4PathEi.cold+0x9e>
    6da0:	c5 f8 77             	vzeroupper
    6da3:	eb a5                	jmp    6d4a <_ZN2ML16profileFp32ModelERKNS_5ModelERKNS_4PathEi.cold+0x11b>
    6da5:	c5 f8 77             	vzeroupper
    6da8:	e9 b0 fe ff ff       	jmp    6c5d <_ZN2ML16profileFp32ModelERKNS_5ModelERKNS_4PathEi.cold+0x2e>
    6dad:	48 8b bd 50 ff ff ff 	mov    -0xb0(%rbp),%rdi
    6db4:	4c 39 f7             	cmp    %r14,%rdi
    6db7:	74 0d                	je     6dc6 <_ZN2ML16profileFp32ModelERKNS_5ModelERKNS_4PathEi.cold+0x197>
    6db9:	c5 f8 77             	vzeroupper
    6dbc:	e8 8f d4 ff ff       	call   4250 <_ZdlPv@plt>
    6dc1:	e9 d0 fe ff ff       	jmp    6c96 <_ZN2ML16profileFp32ModelERKNS_5ModelERKNS_4PathEi.cold+0x67>
    6dc6:	c5 f8 77             	vzeroupper
    6dc9:	e9 c8 fe ff ff       	jmp    6c96 <_ZN2ML16profileFp32ModelERKNS_5ModelERKNS_4PathEi.cold+0x67>

0000000000006dce <_ZN2ML22profileModelWithTilingERKNS_5ModelERKNS_4PathEi.cold>:
    6dce:	48 8b bd 70 ff ff ff 	mov    -0x90(%rbp),%rdi
    6dd5:	48 8b 85 d8 fd ff ff 	mov    -0x228(%rbp),%rax
    6ddc:	48 39 c7             	cmp    %rax,%rdi
    6ddf:	0f 85 b8 00 00 00    	jne    6e9d <_ZN2ML22profileModelWithTilingERKNS_5ModelERKNS_4PathEi.cold+0xcf>
    6de5:	c5 f8 77             	vzeroupper
    6de8:	48 8b bd 70 fe ff ff 	mov    -0x190(%rbp),%rdi
    6def:	4c 39 ef             	cmp    %r13,%rdi
    6df2:	74 05                	je     6df9 <_ZN2ML22profileModelWithTilingERKNS_5ModelERKNS_4PathEi.cold+0x2b>
    6df4:	e8 57 d4 ff ff       	call   4250 <_ZdlPv@plt>
    6df9:	48 8b bd d0 fe ff ff 	mov    -0x130(%rbp),%rdi
    6e00:	48 8b 85 20 fe ff ff 	mov    -0x1e0(%rbp),%rax
    6e07:	48 39 c7             	cmp    %rax,%rdi
    6e0a:	74 05                	je     6e11 <_ZN2ML22profileModelWithTilingERKNS_5ModelERKNS_4PathEi.cold+0x43>
    6e0c:	e8 3f d4 ff ff       	call   4250 <_ZdlPv@plt>
    6e11:	48 8b bd b0 fe ff ff 	mov    -0x150(%rbp),%rdi
    6e18:	48 8b 85 18 fe ff ff 	mov    -0x1e8(%rbp),%rax
    6e1f:	48 39 c7             	cmp    %rax,%rdi
    6e22:	74 05                	je     6e29 <_ZN2ML22profileModelWithTilingERKNS_5ModelERKNS_4PathEi.cold+0x5b>
    6e24:	e8 27 d4 ff ff       	call   4250 <_ZdlPv@plt>
    6e29:	48 83 bd e0 fd ff ff 	cmpq   $0x0,-0x220(%rbp)
    6e30:	00 
    6e31:	74 0c                	je     6e3f <_ZN2ML22profileModelWithTilingERKNS_5ModelERKNS_4PathEi.cold+0x71>
    6e33:	48 8b bd e0 fd ff ff 	mov    -0x220(%rbp),%rdi
    6e3a:	e8 11 d4 ff ff       	call   4250 <_ZdlPv@plt>
    6e3f:	48 8b bd 30 fe ff ff 	mov    -0x1d0(%rbp),%rdi
    6e46:	48 85 ff             	test   %rdi,%rdi
    6e49:	74 05                	je     6e50 <_ZN2ML22profileModelWithTilingERKNS_5ModelERKNS_4PathEi.cold+0x82>
    6e4b:	e8 00 d4 ff ff       	call   4250 <_ZdlPv@plt>
    6e50:	48 89 df             	mov    %rbx,%rdi
    6e53:	e8 f8 d5 ff ff       	call   4450 <_Unwind_Resume@plt>
    6e58:	48 8b bd 30 ff ff ff 	mov    -0xd0(%rbp),%rdi
    6e5f:	48 8b 85 f8 fd ff ff 	mov    -0x208(%rbp),%rax
    6e66:	48 39 c7             	cmp    %rax,%rdi
    6e69:	0f 84 e2 02 00 00    	je     7151 <_ZN2ML22profileModelWithTilingERKNS_5ModelERKNS_4PathEi.cold+0x383>
    6e6f:	c5 f8 77             	vzeroupper
    6e72:	e8 d9 d3 ff ff       	call   4250 <_ZdlPv@plt>
    6e77:	48 8b bd e8 fd ff ff 	mov    -0x218(%rbp),%rdi
    6e7e:	e8 ad 15 02 00       	call   28430 <_ZN2ML9LayerDataD1Ev>
    6e83:	48 8b bd 50 fe ff ff 	mov    -0x1b0(%rbp),%rdi
    6e8a:	48 8b 85 a8 fd ff ff 	mov    -0x258(%rbp),%rax
    6e91:	48 39 c7             	cmp    %rax,%rdi
    6e94:	74 93                	je     6e29 <_ZN2ML22profileModelWithTilingERKNS_5ModelERKNS_4PathEi.cold+0x5b>
    6e96:	e8 b5 d3 ff ff       	call   4250 <_ZdlPv@plt>
    6e9b:	eb 8c                	jmp    6e29 <_ZN2ML22profileModelWithTilingERKNS_5ModelERKNS_4PathEi.cold+0x5b>
    6e9d:	c5 f8 77             	vzeroupper
    6ea0:	e8 ab d3 ff ff       	call   4250 <_ZdlPv@plt>
    6ea5:	e9 3e ff ff ff       	jmp    6de8 <_ZN2ML22profileModelWithTilingERKNS_5ModelERKNS_4PathEi.cold+0x1a>
    6eaa:	48 8b bd 30 ff ff ff 	mov    -0xd0(%rbp),%rdi
    6eb1:	48 8b 85 f8 fd ff ff 	mov    -0x208(%rbp),%rax
    6eb8:	48 39 c7             	cmp    %rax,%rdi
    6ebb:	0f 85 cf 00 00 00    	jne    6f90 <_ZN2ML22profileModelWithTilingERKNS_5ModelERKNS_4PathEi.cold+0x1c2>
    6ec1:	c5 f8 77             	vzeroupper
    6ec4:	48 8b bd 70 ff ff ff 	mov    -0x90(%rbp),%rdi
    6ecb:	48 8b 85 d8 fd ff ff 	mov    -0x228(%rbp),%rax
    6ed2:	48 39 c7             	cmp    %rax,%rdi
    6ed5:	0f 85 19 ff ff ff    	jne    6df4 <_ZN2ML22profileModelWithTilingERKNS_5ModelERKNS_4PathEi.cold+0x26>
    6edb:	e9 19 ff ff ff       	jmp    6df9 <_ZN2ML22profileModelWithTilingERKNS_5ModelERKNS_4PathEi.cold+0x2b>
    6ee0:	48 8b bd 70 ff ff ff 	mov    -0x90(%rbp),%rdi
    6ee7:	48 8b 85 d8 fd ff ff 	mov    -0x228(%rbp),%rax
    6eee:	48 39 c7             	cmp    %rax,%rdi
    6ef1:	0f 84 25 01 00 00    	je     701c <_ZN2ML22profileModelWithTilingERKNS_5ModelERKNS_4PathEi.cold+0x24e>
    6ef7:	c5 f8 77             	vzeroupper
    6efa:	e8 51 d3 ff ff       	call   4250 <_ZdlPv@plt>
    6eff:	48 8b bd 30 ff ff ff 	mov    -0xd0(%rbp),%rdi
    6f06:	48 8b 85 f8 fd ff ff 	mov    -0x208(%rbp),%rax
    6f0d:	48 39 c7             	cmp    %rax,%rdi
    6f10:	74 05                	je     6f17 <_ZN2ML22profileModelWithTilingERKNS_5ModelERKNS_4PathEi.cold+0x149>
    6f12:	e8 39 d3 ff ff       	call   4250 <_ZdlPv@plt>
    6f17:	48 8b bd d0 fe ff ff 	mov    -0x130(%rbp),%rdi
    6f1e:	48 8d 85 e0 fe ff ff 	lea    -0x120(%rbp),%rax
    6f25:	48 39 c7             	cmp    %rax,%rdi
    6f28:	0f 84 11 ff ff ff    	je     6e3f <_ZN2ML22profileModelWithTilingERKNS_5ModelERKNS_4PathEi.cold+0x71>
    6f2e:	e8 1d d3 ff ff       	call   4250 <_ZdlPv@plt>
    6f33:	e9 07 ff ff ff       	jmp    6e3f <_ZN2ML22profileModelWithTilingERKNS_5ModelERKNS_4PathEi.cold+0x71>
    6f38:	48 8b bd 70 ff ff ff 	mov    -0x90(%rbp),%rdi
    6f3f:	48 8b 85 d8 fd ff ff 	mov    -0x228(%rbp),%rax
    6f46:	48 39 c7             	cmp    %rax,%rdi
    6f49:	0f 84 0a 02 00 00    	je     7159 <_ZN2ML22profileModelWithTilingERKNS_5ModelERKNS_4PathEi.cold+0x38b>
    6f4f:	c5 f8 77             	vzeroupper
    6f52:	e8 f9 d2 ff ff       	call   4250 <_ZdlPv@plt>
    6f57:	48 8b bd 30 ff ff ff 	mov    -0xd0(%rbp),%rdi
    6f5e:	48 8b 85 f8 fd ff ff 	mov    -0x208(%rbp),%rax
    6f65:	48 39 c7             	cmp    %rax,%rdi
    6f68:	74 05                	je     6f6f <_ZN2ML22profileModelWithTilingERKNS_5ModelERKNS_4PathEi.cold+0x1a1>
    6f6a:	e8 e1 d2 ff ff       	call   4250 <_ZdlPv@plt>
    6f6f:	48 8b bd d0 fe ff ff 	mov    -0x130(%rbp),%rdi
    6f76:	48 8b 85 20 fe ff ff 	mov    -0x1e0(%rbp),%rax
    6f7d:	48 39 c7             	cmp    %rax,%rdi
    6f80:	0f 84 a3 fe ff ff    	je     6e29 <_ZN2ML22profileModelWithTilingERKNS_5ModelERKNS_4PathEi.cold+0x5b>
    6f86:	e8 c5 d2 ff ff       	call   4250 <_ZdlPv@plt>
    6f8b:	e9 99 fe ff ff       	jmp    6e29 <_ZN2ML22profileModelWithTilingERKNS_5ModelERKNS_4PathEi.cold+0x5b>
    6f90:	c5 f8 77             	vzeroupper
    6f93:	e8 b8 d2 ff ff       	call   4250 <_ZdlPv@plt>
    6f98:	e9 27 ff ff ff       	jmp    6ec4 <_ZN2ML22profileModelWithTilingERKNS_5ModelERKNS_4PathEi.cold+0xf6>
    6f9d:	48 8b bd 70 ff ff ff 	mov    -0x90(%rbp),%rdi
    6fa4:	48 8d 45 80          	lea    -0x80(%rbp),%rax
    6fa8:	48 39 c7             	cmp    %rax,%rdi
    6fab:	74 62                	je     700f <_ZN2ML22profileModelWithTilingERKNS_5ModelERKNS_4PathEi.cold+0x241>
    6fad:	c5 f8 77             	vzeroupper
    6fb0:	e8 9b d2 ff ff       	call   4250 <_ZdlPv@plt>
    6fb5:	e9 96 fe ff ff       	jmp    6e50 <_ZN2ML22profileModelWithTilingERKNS_5ModelERKNS_4PathEi.cold+0x82>
    6fba:	48 8b bd 78 ff ff ff 	mov    -0x88(%rbp),%rdi
    6fc1:	48 85 ff             	test   %rdi,%rdi
    6fc4:	74 51                	je     7017 <_ZN2ML22profileModelWithTilingERKNS_5ModelERKNS_4PathEi.cold+0x249>
    6fc6:	c5 f8 77             	vzeroupper
    6fc9:	e8 82 d2 ff ff       	call   4250 <_ZdlPv@plt>
    6fce:	48 85 db             	test   %rbx,%rbx
    6fd1:	75 51                	jne    7024 <_ZN2ML22profileModelWithTilingERKNS_5ModelERKNS_4PathEi.cold+0x256>
    6fd3:	4c 89 e3             	mov    %r12,%rbx
    6fd6:	48 8b bd 30 ff ff ff 	mov    -0xd0(%rbp),%rdi
    6fdd:	48 8b 85 f8 fd ff ff 	mov    -0x208(%rbp),%rax
    6fe4:	48 39 c7             	cmp    %rax,%rdi
    6fe7:	74 05                	je     6fee <_ZN2ML22profileModelWithTilingERKNS_5ModelERKNS_4PathEi.cold+0x220>
    6fe9:	e8 62 d2 ff ff       	call   4250 <_ZdlPv@plt>
    6fee:	48 8b bd d0 fe ff ff 	mov    -0x130(%rbp),%rdi
    6ff5:	48 8b 85 20 fe ff ff 	mov    -0x1e0(%rbp),%rax
    6ffc:	48 39 c7             	cmp    %rax,%rdi
    6fff:	0f 84 7e fe ff ff    	je     6e83 <_ZN2ML22profileModelWithTilingERKNS_5ModelERKNS_4PathEi.cold+0xb5>
    7005:	e8 46 d2 ff ff       	call   4250 <_ZdlPv@plt>
    700a:	e9 74 fe ff ff       	jmp    6e83 <_ZN2ML22profileModelWithTilingERKNS_5ModelERKNS_4PathEi.cold+0xb5>
    700f:	c5 f8 77             	vzeroupper
    7012:	e9 39 fe ff ff       	jmp    6e50 <_ZN2ML22profileModelWithTilingERKNS_5ModelERKNS_4PathEi.cold+0x82>
    7017:	c5 f8 77             	vzeroupper
    701a:	eb b2                	jmp    6fce <_ZN2ML22profileModelWithTilingERKNS_5ModelERKNS_4PathEi.cold+0x200>
    701c:	c5 f8 77             	vzeroupper
    701f:	e9 db fe ff ff       	jmp    6eff <_ZN2ML22profileModelWithTilingERKNS_5ModelERKNS_4PathEi.cold+0x131>
    7024:	48 89 df             	mov    %rbx,%rdi
    7027:	e8 24 d2 ff ff       	call   4250 <_ZdlPv@plt>
    702c:	eb a5                	jmp    6fd3 <_ZN2ML22profileModelWithTilingERKNS_5ModelERKNS_4PathEi.cold+0x205>
    702e:	48 8b bd 70 ff ff ff 	mov    -0x90(%rbp),%rdi
    7035:	48 8b 85 d8 fd ff ff 	mov    -0x228(%rbp),%rax
    703c:	48 39 c7             	cmp    %rax,%rdi
    703f:	0f 84 1c 01 00 00    	je     7161 <_ZN2ML22profileModelWithTilingERKNS_5ModelERKNS_4PathEi.cold+0x393>
    7045:	c5 f8 77             	vzeroupper
    7048:	e8 03 d2 ff ff       	call   4250 <_ZdlPv@plt>
    704d:	48 8b bd 90 fe ff ff 	mov    -0x170(%rbp),%rdi
    7054:	48 39 df             	cmp    %rbx,%rdi
    7057:	74 05                	je     705e <_ZN2ML22profileModelWithTilingERKNS_5ModelERKNS_4PathEi.cold+0x290>
    7059:	e8 f2 d1 ff ff       	call   4250 <_ZdlPv@plt>
    705e:	4c 89 e3             	mov    %r12,%rbx
    7061:	e9 82 fd ff ff       	jmp    6de8 <_ZN2ML22profileModelWithTilingERKNS_5ModelERKNS_4PathEi.cold+0x1a>
    7066:	48 8b bd 30 ff ff ff 	mov    -0xd0(%rbp),%rdi
    706d:	48 8b 85 f8 fd ff ff 	mov    -0x208(%rbp),%rax
    7074:	48 39 c7             	cmp    %rax,%rdi
    7077:	75 24                	jne    709d <_ZN2ML22profileModelWithTilingERKNS_5ModelERKNS_4PathEi.cold+0x2cf>
    7079:	c5 f8 77             	vzeroupper
    707c:	48 8b bd 70 ff ff ff 	mov    -0x90(%rbp),%rdi
    7083:	48 8b 85 d8 fd ff ff 	mov    -0x228(%rbp),%rax
    708a:	48 39 c7             	cmp    %rax,%rdi
    708d:	0f 84 55 fd ff ff    	je     6de8 <_ZN2ML22profileModelWithTilingERKNS_5ModelERKNS_4PathEi.cold+0x1a>
    7093:	e8 b8 d1 ff ff       	call   4250 <_ZdlPv@plt>
    7098:	e9 4b fd ff ff       	jmp    6de8 <_ZN2ML22profileModelWithTilingERKNS_5ModelERKNS_4PathEi.cold+0x1a>
    709d:	c5 f8 77             	vzeroupper
    70a0:	e8 ab d1 ff ff       	call   4250 <_ZdlPv@plt>
    70a5:	eb d5                	jmp    707c <_ZN2ML22profileModelWithTilingERKNS_5ModelERKNS_4PathEi.cold+0x2ae>
    70a7:	48 8b bd d0 fe ff ff 	mov    -0x130(%rbp),%rdi
    70ae:	48 8b 85 20 fe ff ff 	mov    -0x1e0(%rbp),%rax
    70b5:	48 39 c7             	cmp    %rax,%rdi
    70b8:	75 24                	jne    70de <_ZN2ML22profileModelWithTilingERKNS_5ModelERKNS_4PathEi.cold+0x310>
    70ba:	c5 f8 77             	vzeroupper
    70bd:	48 8b bd b0 fe ff ff 	mov    -0x150(%rbp),%rdi
    70c4:	48 8b 85 18 fe ff ff 	mov    -0x1e8(%rbp),%rax
    70cb:	48 39 c7             	cmp    %rax,%rdi
    70ce:	0f 84 a3 fd ff ff    	je     6e77 <_ZN2ML22profileModelWithTilingERKNS_5ModelERKNS_4PathEi.cold+0xa9>
    70d4:	e8 77 d1 ff ff       	call   4250 <_ZdlPv@plt>
    70d9:	e9 99 fd ff ff       	jmp    6e77 <_ZN2ML22profileModelWithTilingERKNS_5ModelERKNS_4PathEi.cold+0xa9>
    70de:	c5 f8 77             	vzeroupper
    70e1:	e8 6a d1 ff ff       	call   4250 <_ZdlPv@plt>
    70e6:	eb d5                	jmp    70bd <_ZN2ML22profileModelWithTilingERKNS_5ModelERKNS_4PathEi.cold+0x2ef>
    70e8:	48 8b bd 30 ff ff ff 	mov    -0xd0(%rbp),%rdi
    70ef:	48 8b 85 f8 fd ff ff 	mov    -0x208(%rbp),%rax
    70f6:	48 39 c7             	cmp    %rax,%rdi
    70f9:	75 44                	jne    713f <_ZN2ML22profileModelWithTilingERKNS_5ModelERKNS_4PathEi.cold+0x371>
    70fb:	c5 f8 77             	vzeroupper
    70fe:	48 8b bd 70 ff ff ff 	mov    -0x90(%rbp),%rdi
    7105:	48 8b 85 d8 fd ff ff 	mov    -0x228(%rbp),%rax
    710c:	48 39 c7             	cmp    %rax,%rdi
    710f:	0f 84 38 ff ff ff    	je     704d <_ZN2ML22profileModelWithTilingERKNS_5ModelERKNS_4PathEi.cold+0x27f>
    7115:	e8 36 d1 ff ff       	call   4250 <_ZdlPv@plt>
    711a:	e9 2e ff ff ff       	jmp    704d <_ZN2ML22profileModelWithTilingERKNS_5ModelERKNS_4PathEi.cold+0x27f>
    711f:	48 8b bd 40 ff ff ff 	mov    -0xc0(%rbp),%rdi
    7126:	48 8b 85 00 fe ff ff 	mov    -0x200(%rbp),%rax
    712d:	48 39 c7             	cmp    %rax,%rdi
    7130:	74 17                	je     7149 <_ZN2ML22profileModelWithTilingERKNS_5ModelERKNS_4PathEi.cold+0x37b>
    7132:	c5 f8 77             	vzeroupper
    7135:	e8 16 d1 ff ff       	call   4250 <_ZdlPv@plt>
    713a:	e9 38 fd ff ff       	jmp    6e77 <_ZN2ML22profileModelWithTilingERKNS_5ModelERKNS_4PathEi.cold+0xa9>
    713f:	c5 f8 77             	vzeroupper
    7142:	e8 09 d1 ff ff       	call   4250 <_ZdlPv@plt>
    7147:	eb b5                	jmp    70fe <_ZN2ML22profileModelWithTilingERKNS_5ModelERKNS_4PathEi.cold+0x330>
    7149:	c5 f8 77             	vzeroupper
    714c:	e9 26 fd ff ff       	jmp    6e77 <_ZN2ML22profileModelWithTilingERKNS_5ModelERKNS_4PathEi.cold+0xa9>
    7151:	c5 f8 77             	vzeroupper
    7154:	e9 1e fd ff ff       	jmp    6e77 <_ZN2ML22profileModelWithTilingERKNS_5ModelERKNS_4PathEi.cold+0xa9>
    7159:	c5 f8 77             	vzeroupper
    715c:	e9 f6 fd ff ff       	jmp    6f57 <_ZN2ML22profileModelWithTilingERKNS_5ModelERKNS_4PathEi.cold+0x189>
    7161:	c5 f8 77             	vzeroupper
    7164:	e9 e4 fe ff ff       	jmp    704d <_ZN2ML22profileModelWithTilingERKNS_5ModelERKNS_4PathEi.cold+0x27f>
    7169:	48 8b bd 70 ff ff ff 	mov    -0x90(%rbp),%rdi
    7170:	48 8b 85 d8 fd ff ff 	mov    -0x228(%rbp),%rax
    7177:	48 39 c7             	cmp    %rax,%rdi
    717a:	74 0d                	je     7189 <_ZN2ML22profileModelWithTilingERKNS_5ModelERKNS_4PathEi.cold+0x3bb>
    717c:	c5 f8 77             	vzeroupper
    717f:	e8 cc d0 ff ff       	call   4250 <_ZdlPv@plt>
    7184:	e9 70 fc ff ff       	jmp    6df9 <_ZN2ML22profileModelWithTilingERKNS_5ModelERKNS_4PathEi.cold+0x2b>
    7189:	c5 f8 77             	vzeroupper
    718c:	e9 68 fc ff ff       	jmp    6df9 <_ZN2ML22profileModelWithTilingERKNS_5ModelERKNS_4PathEi.cold+0x2b>

0000000000007191 <_ZN2ML25profileModelWithThreadingERKNS_5ModelERKNS_4PathEi.cold>:
    7191:	48 8b bd 40 ff ff ff 	mov    -0xc0(%rbp),%rdi
    7198:	48 8b 85 08 fe ff ff 	mov    -0x1f8(%rbp),%rax
    719f:	48 39 c7             	cmp    %rax,%rdi
    71a2:	0f 84 8e 02 00 00    	je     7436 <_ZN2ML25profileModelWithThreadingERKNS_5ModelERKNS_4PathEi.cold+0x2a5>
    71a8:	c5 f8 77             	vzeroupper
    71ab:	e8 a0 d0 ff ff       	call   4250 <_ZdlPv@plt>
    71b0:	48 8b 7d 80          	mov    -0x80(%rbp),%rdi
    71b4:	48 8b 85 e8 fd ff ff 	mov    -0x218(%rbp),%rax
    71bb:	48 39 c7             	cmp    %rax,%rdi
    71be:	74 05                	je     71c5 <_ZN2ML25profileModelWithThreadingERKNS_5ModelERKNS_4PathEi.cold+0x34>
    71c0:	e8 8b d0 ff ff       	call   4250 <_ZdlPv@plt>
    71c5:	48 8b bd 80 fe ff ff 	mov    -0x180(%rbp),%rdi
    71cc:	4c 39 e7             	cmp    %r12,%rdi
    71cf:	74 05                	je     71d6 <_ZN2ML25profileModelWithThreadingERKNS_5ModelERKNS_4PathEi.cold+0x45>
    71d1:	e8 7a d0 ff ff       	call   4250 <_ZdlPv@plt>
    71d6:	48 8b bd e0 fe ff ff 	mov    -0x120(%rbp),%rdi
    71dd:	48 8b 85 28 fe ff ff 	mov    -0x1d8(%rbp),%rax
    71e4:	48 39 c7             	cmp    %rax,%rdi
    71e7:	74 05                	je     71ee <_ZN2ML25profileModelWithThreadingERKNS_5ModelERKNS_4PathEi.cold+0x5d>
    71e9:	e8 62 d0 ff ff       	call   4250 <_ZdlPv@plt>
    71ee:	48 8b bd c0 fe ff ff 	mov    -0x140(%rbp),%rdi
    71f5:	48 8b 85 20 fe ff ff 	mov    -0x1e0(%rbp),%rax
    71fc:	48 39 c7             	cmp    %rax,%rdi
    71ff:	74 05                	je     7206 <_ZN2ML25profileModelWithThreadingERKNS_5ModelERKNS_4PathEi.cold+0x75>
    7201:	e8 4a d0 ff ff       	call   4250 <_ZdlPv@plt>
    7206:	48 83 bd f0 fd ff ff 	cmpq   $0x0,-0x210(%rbp)
    720d:	00 
    720e:	74 0c                	je     721c <_ZN2ML25profileModelWithThreadingERKNS_5ModelERKNS_4PathEi.cold+0x8b>
    7210:	48 8b bd f0 fd ff ff 	mov    -0x210(%rbp),%rdi
    7217:	e8 34 d0 ff ff       	call   4250 <_ZdlPv@plt>
    721c:	48 8b bd 40 fe ff ff 	mov    -0x1c0(%rbp),%rdi
    7223:	48 85 ff             	test   %rdi,%rdi
    7226:	74 05                	je     722d <_ZN2ML25profileModelWithThreadingERKNS_5ModelERKNS_4PathEi.cold+0x9c>
    7228:	e8 23 d0 ff ff       	call   4250 <_ZdlPv@plt>
    722d:	48 89 df             	mov    %rbx,%rdi
    7230:	e8 1b d2 ff ff       	call   4450 <_Unwind_Resume@plt>
    7235:	48 8b bd 40 ff ff ff 	mov    -0xc0(%rbp),%rdi
    723c:	48 8b 85 08 fe ff ff 	mov    -0x1f8(%rbp),%rax
    7243:	48 39 c7             	cmp    %rax,%rdi
    7246:	75 29                	jne    7271 <_ZN2ML25profileModelWithThreadingERKNS_5ModelERKNS_4PathEi.cold+0xe0>
    7248:	c5 f8 77             	vzeroupper
    724b:	48 8b bd f8 fd ff ff 	mov    -0x208(%rbp),%rdi
    7252:	e8 d9 11 02 00       	call   28430 <_ZN2ML9LayerDataD1Ev>
    7257:	48 8b bd 60 fe ff ff 	mov    -0x1a0(%rbp),%rdi
    725e:	48 8b 85 b8 fd ff ff 	mov    -0x248(%rbp),%rax
    7265:	48 39 c7             	cmp    %rax,%rdi
    7268:	74 9c                	je     7206 <_ZN2ML25profileModelWithThreadingERKNS_5ModelERKNS_4PathEi.cold+0x75>
    726a:	e8 e1 cf ff ff       	call   4250 <_ZdlPv@plt>
    726f:	eb 95                	jmp    7206 <_ZN2ML25profileModelWithThreadingERKNS_5ModelERKNS_4PathEi.cold+0x75>
    7271:	c5 f8 77             	vzeroupper
    7274:	e8 d7 cf ff ff       	call   4250 <_ZdlPv@plt>
    7279:	eb d0                	jmp    724b <_ZN2ML25profileModelWithThreadingERKNS_5ModelERKNS_4PathEi.cold+0xba>
    727b:	48 8b bd 40 ff ff ff 	mov    -0xc0(%rbp),%rdi
    7282:	48 8b 85 08 fe ff ff 	mov    -0x1f8(%rbp),%rax
    7289:	48 39 c7             	cmp    %rax,%rdi
    728c:	74 21                	je     72af <_ZN2ML25profileModelWithThreadingERKNS_5ModelERKNS_4PathEi.cold+0x11e>
    728e:	c5 f8 77             	vzeroupper
    7291:	e8 ba cf ff ff       	call   4250 <_ZdlPv@plt>
    7296:	48 8b 7d 80          	mov    -0x80(%rbp),%rdi
    729a:	48 8b 85 e8 fd ff ff 	mov    -0x218(%rbp),%rax
    72a1:	48 39 c7             	cmp    %rax,%rdi
    72a4:	0f 85 27 ff ff ff    	jne    71d1 <_ZN2ML25profileModelWithThreadingERKNS_5ModelERKNS_4PathEi.cold+0x40>
    72aa:	e9 27 ff ff ff       	jmp    71d6 <_ZN2ML25profileModelWithThreadingERKNS_5ModelERKNS_4PathEi.cold+0x45>
    72af:	c5 f8 77             	vzeroupper
    72b2:	eb e2                	jmp    7296 <_ZN2ML25profileModelWithThreadingERKNS_5ModelERKNS_4PathEi.cold+0x105>
    72b4:	48 8b 7d 80          	mov    -0x80(%rbp),%rdi
    72b8:	48 8b 85 e8 fd ff ff 	mov    -0x218(%rbp),%rax
    72bf:	48 39 c7             	cmp    %rax,%rdi
    72c2:	0f 84 96 00 00 00    	je     735e <_ZN2ML25profileModelWithThreadingERKNS_5ModelERKNS_4PathEi.cold+0x1cd>
    72c8:	c5 f8 77             	vzeroupper
    72cb:	e8 80 cf ff ff       	call   4250 <_ZdlPv@plt>
    72d0:	48 8b bd 40 ff ff ff 	mov    -0xc0(%rbp),%rdi
    72d7:	48 8b 85 08 fe ff ff 	mov    -0x1f8(%rbp),%rax
    72de:	48 39 c7             	cmp    %rax,%rdi
    72e1:	74 05                	je     72e8 <_ZN2ML25profileModelWithThreadingERKNS_5ModelERKNS_4PathEi.cold+0x157>
    72e3:	e8 68 cf ff ff       	call   4250 <_ZdlPv@plt>
    72e8:	48 8b bd e0 fe ff ff 	mov    -0x120(%rbp),%rdi
    72ef:	48 8d 85 f0 fe ff ff 	lea    -0x110(%rbp),%rax
    72f6:	48 39 c7             	cmp    %rax,%rdi
    72f9:	0f 84 1d ff ff ff    	je     721c <_ZN2ML25profileModelWithThreadingERKNS_5ModelERKNS_4PathEi.cold+0x8b>
    72ff:	e8 4c cf ff ff       	call   4250 <_ZdlPv@plt>
    7304:	e9 13 ff ff ff       	jmp    721c <_ZN2ML25profileModelWithThreadingERKNS_5ModelERKNS_4PathEi.cold+0x8b>
    7309:	48 8b 7d 80          	mov    -0x80(%rbp),%rdi
    730d:	48 8b 85 e8 fd ff ff 	mov    -0x218(%rbp),%rax
    7314:	48 39 c7             	cmp    %rax,%rdi
    7317:	0f 84 e5 00 00 00    	je     7402 <_ZN2ML25profileModelWithThreadingERKNS_5ModelERKNS_4PathEi.cold+0x271>
    731d:	c5 f8 77             	vzeroupper
    7320:	e8 2b cf ff ff       	call   4250 <_ZdlPv@plt>
    7325:	48 8b bd 40 ff ff ff 	mov    -0xc0(%rbp),%rdi
    732c:	48 8b 85 08 fe ff ff 	mov    -0x1f8(%rbp),%rax
    7333:	48 39 c7             	cmp    %rax,%rdi
    7336:	74 05                	je     733d <_ZN2ML25profileModelWithThreadingERKNS_5ModelERKNS_4PathEi.cold+0x1ac>
    7338:	e8 13 cf ff ff       	call   4250 <_ZdlPv@plt>
    733d:	48 8b bd e0 fe ff ff 	mov    -0x120(%rbp),%rdi
    7344:	48 8b 85 28 fe ff ff 	mov    -0x1d8(%rbp),%rax
    734b:	48 39 c7             	cmp    %rax,%rdi
    734e:	0f 84 b2 fe ff ff    	je     7206 <_ZN2ML25profileModelWithThreadingERKNS_5ModelERKNS_4PathEi.cold+0x75>
    7354:	e8 f7 ce ff ff       	call   4250 <_ZdlPv@plt>
    7359:	e9 a8 fe ff ff       	jmp    7206 <_ZN2ML25profileModelWithThreadingERKNS_5ModelERKNS_4PathEi.cold+0x75>
    735e:	c5 f8 77             	vzeroupper
    7361:	e9 6a ff ff ff       	jmp    72d0 <_ZN2ML25profileModelWithThreadingERKNS_5ModelERKNS_4PathEi.cold+0x13f>
    7366:	48 8b 7d 80          	mov    -0x80(%rbp),%rdi
    736a:	48 8d 45 90          	lea    -0x70(%rbp),%rax
    736e:	48 39 c7             	cmp    %rax,%rdi
    7371:	0f 84 83 00 00 00    	je     73fa <_ZN2ML25profileModelWithThreadingERKNS_5ModelERKNS_4PathEi.cold+0x269>
    7377:	c5 f8 77             	vzeroupper
    737a:	e8 d1 ce ff ff       	call   4250 <_ZdlPv@plt>
    737f:	e9 a9 fe ff ff       	jmp    722d <_ZN2ML25profileModelWithThreadingERKNS_5ModelERKNS_4PathEi.cold+0x9c>
    7384:	48 8b bd 50 ff ff ff 	mov    -0xb0(%rbp),%rdi
    738b:	4c 39 f7             	cmp    %r14,%rdi
    738e:	74 0d                	je     739d <_ZN2ML25profileModelWithThreadingERKNS_5ModelERKNS_4PathEi.cold+0x20c>
    7390:	c5 f8 77             	vzeroupper
    7393:	e8 b8 ce ff ff       	call   4250 <_ZdlPv@plt>
    7398:	e9 ae fe ff ff       	jmp    724b <_ZN2ML25profileModelWithThreadingERKNS_5ModelERKNS_4PathEi.cold+0xba>
    739d:	c5 f8 77             	vzeroupper
    73a0:	e9 a6 fe ff ff       	jmp    724b <_ZN2ML25profileModelWithThreadingERKNS_5ModelERKNS_4PathEi.cold+0xba>
    73a5:	48 8b 7d 88          	mov    -0x78(%rbp),%rdi
    73a9:	48 85 ff             	test   %rdi,%rdi
    73ac:	0f 85 6c 01 00 00    	jne    751e <_ZN2ML25profileModelWithThreadingERKNS_5ModelERKNS_4PathEi.cold+0x38d>
    73b2:	c5 f8 77             	vzeroupper
    73b5:	48 85 db             	test   %rbx,%rbx
    73b8:	0f 85 21 01 00 00    	jne    74df <_ZN2ML25profileModelWithThreadingERKNS_5ModelERKNS_4PathEi.cold+0x34e>
    73be:	4c 89 f3             	mov    %r14,%rbx
    73c1:	48 8b bd 40 ff ff ff 	mov    -0xc0(%rbp),%rdi
    73c8:	48 8b 85 08 fe ff ff 	mov    -0x1f8(%rbp),%rax
    73cf:	48 39 c7             	cmp    %rax,%rdi
    73d2:	74 05                	je     73d9 <_ZN2ML25profileModelWithThreadingERKNS_5ModelERKNS_4PathEi.cold+0x248>
    73d4:	e8 77 ce ff ff       	call   4250 <_ZdlPv@plt>
    73d9:	48 8b bd e0 fe ff ff 	mov    -0x120(%rbp),%rdi
    73e0:	48 8b 85 28 fe ff ff 	mov    -0x1d8(%rbp),%rax
    73e7:	48 39 c7             	cmp    %rax,%rdi
    73ea:	0f 84 67 fe ff ff    	je     7257 <_ZN2ML25profileModelWithThreadingERKNS_5ModelERKNS_4PathEi.cold+0xc6>
    73f0:	e8 5b ce ff ff       	call   4250 <_ZdlPv@plt>
    73f5:	e9 5d fe ff ff       	jmp    7257 <_ZN2ML25profileModelWithThreadingERKNS_5ModelERKNS_4PathEi.cold+0xc6>
    73fa:	c5 f8 77             	vzeroupper
    73fd:	e9 2b fe ff ff       	jmp    722d <_ZN2ML25profileModelWithThreadingERKNS_5ModelERKNS_4PathEi.cold+0x9c>
    7402:	c5 f8 77             	vzeroupper
    7405:	e9 1b ff ff ff       	jmp    7325 <_ZN2ML25profileModelWithThreadingERKNS_5ModelERKNS_4PathEi.cold+0x194>
    740a:	48 8b 7d 80          	mov    -0x80(%rbp),%rdi
    740e:	48 8b 85 e8 fd ff ff 	mov    -0x218(%rbp),%rax
    7415:	48 39 c7             	cmp    %rax,%rdi
    7418:	75 7c                	jne    7496 <_ZN2ML25profileModelWithThreadingERKNS_5ModelERKNS_4PathEi.cold+0x305>
    741a:	c5 f8 77             	vzeroupper
    741d:	48 8b bd a0 fe ff ff 	mov    -0x160(%rbp),%rdi
    7424:	48 39 df             	cmp    %rbx,%rdi
    7427:	74 05                	je     742e <_ZN2ML25profileModelWithThreadingERKNS_5ModelERKNS_4PathEi.cold+0x29d>
    7429:	e8 22 ce ff ff       	call   4250 <_ZdlPv@plt>
    742e:	4c 89 f3             	mov    %r14,%rbx
    7431:	e9 8f fd ff ff       	jmp    71c5 <_ZN2ML25profileModelWithThreadingERKNS_5ModelERKNS_4PathEi.cold+0x34>
    7436:	c5 f8 77             	vzeroupper
    7439:	e9 72 fd ff ff       	jmp    71b0 <_ZN2ML25profileModelWithThreadingERKNS_5ModelERKNS_4PathEi.cold+0x1f>
    743e:	48 8b bd 40 ff ff ff 	mov    -0xc0(%rbp),%rdi
    7445:	48 8b 85 08 fe ff ff 	mov    -0x1f8(%rbp),%rax
    744c:	48 39 c7             	cmp    %rax,%rdi
    744f:	74 1f                	je     7470 <_ZN2ML25profileModelWithThreadingERKNS_5ModelERKNS_4PathEi.cold+0x2df>
    7451:	c5 f8 77             	vzeroupper
    7454:	e8 f7 cd ff ff       	call   4250 <_ZdlPv@plt>
    7459:	48 8b 7d 80          	mov    -0x80(%rbp),%rdi
    745d:	48 8b 85 e8 fd ff ff 	mov    -0x218(%rbp),%rax
    7464:	48 39 c7             	cmp    %rax,%rdi
    7467:	74 b4                	je     741d <_ZN2ML25profileModelWithThreadingERKNS_5ModelERKNS_4PathEi.cold+0x28c>
    7469:	e8 e2 cd ff ff       	call   4250 <_ZdlPv@plt>
    746e:	eb ad                	jmp    741d <_ZN2ML25profileModelWithThreadingERKNS_5ModelERKNS_4PathEi.cold+0x28c>
    7470:	c5 f8 77             	vzeroupper
    7473:	eb e4                	jmp    7459 <_ZN2ML25profileModelWithThreadingERKNS_5ModelERKNS_4PathEi.cold+0x2c8>
    7475:	48 8b 7d 80          	mov    -0x80(%rbp),%rdi
    7479:	48 8b 85 e8 fd ff ff 	mov    -0x218(%rbp),%rax
    7480:	48 39 c7             	cmp    %rax,%rdi
    7483:	0f 84 8d 00 00 00    	je     7516 <_ZN2ML25profileModelWithThreadingERKNS_5ModelERKNS_4PathEi.cold+0x385>
    7489:	c5 f8 77             	vzeroupper
    748c:	e8 bf cd ff ff       	call   4250 <_ZdlPv@plt>
    7491:	e9 40 fd ff ff       	jmp    71d6 <_ZN2ML25profileModelWithThreadingERKNS_5ModelERKNS_4PathEi.cold+0x45>
    7496:	c5 f8 77             	vzeroupper
    7499:	e8 b2 cd ff ff       	call   4250 <_ZdlPv@plt>
    749e:	e9 7a ff ff ff       	jmp    741d <_ZN2ML25profileModelWithThreadingERKNS_5ModelERKNS_4PathEi.cold+0x28c>
    74a3:	48 8b bd e0 fe ff ff 	mov    -0x120(%rbp),%rdi
    74aa:	48 8b 85 28 fe ff ff 	mov    -0x1d8(%rbp),%rax
    74b1:	48 39 c7             	cmp    %rax,%rdi
    74b4:	74 36                	je     74ec <_ZN2ML25profileModelWithThreadingERKNS_5ModelERKNS_4PathEi.cold+0x35b>
    74b6:	c5 f8 77             	vzeroupper
    74b9:	e8 92 cd ff ff       	call   4250 <_ZdlPv@plt>
    74be:	48 8b bd c0 fe ff ff 	mov    -0x140(%rbp),%rdi
    74c5:	48 8b 85 20 fe ff ff 	mov    -0x1e0(%rbp),%rax
    74cc:	48 39 c7             	cmp    %rax,%rdi
    74cf:	0f 84 76 fd ff ff    	je     724b <_ZN2ML25profileModelWithThreadingERKNS_5ModelERKNS_4PathEi.cold+0xba>
    74d5:	e8 76 cd ff ff       	call   4250 <_ZdlPv@plt>
    74da:	e9 6c fd ff ff       	jmp    724b <_ZN2ML25profileModelWithThreadingERKNS_5ModelERKNS_4PathEi.cold+0xba>
    74df:	48 89 df             	mov    %rbx,%rdi
    74e2:	e8 69 cd ff ff       	call   4250 <_ZdlPv@plt>
    74e7:	e9 d2 fe ff ff       	jmp    73be <_ZN2ML25profileModelWithThreadingERKNS_5ModelERKNS_4PathEi.cold+0x22d>
    74ec:	c5 f8 77             	vzeroupper
    74ef:	eb cd                	jmp    74be <_ZN2ML25profileModelWithThreadingERKNS_5ModelERKNS_4PathEi.cold+0x32d>
    74f1:	48 8b 7d 80          	mov    -0x80(%rbp),%rdi
    74f5:	48 8b 85 e8 fd ff ff 	mov    -0x218(%rbp),%rax
    74fc:	48 39 c7             	cmp    %rax,%rdi
    74ff:	74 0d                	je     750e <_ZN2ML25profileModelWithThreadingERKNS_5ModelERKNS_4PathEi.cold+0x37d>
    7501:	c5 f8 77             	vzeroupper
    7504:	e8 47 cd ff ff       	call   4250 <_ZdlPv@plt>
    7509:	e9 b7 fc ff ff       	jmp    71c5 <_ZN2ML25profileModelWithThreadingERKNS_5ModelERKNS_4PathEi.cold+0x34>
    750e:	c5 f8 77             	vzeroupper
    7511:	e9 af fc ff ff       	jmp    71c5 <_ZN2ML25profileModelWithThreadingERKNS_5ModelERKNS_4PathEi.cold+0x34>
    7516:	c5 f8 77             	vzeroupper
    7519:	e9 b8 fc ff ff       	jmp    71d6 <_ZN2ML25profileModelWithThreadingERKNS_5ModelERKNS_4PathEi.cold+0x45>
    751e:	c5 f8 77             	vzeroupper
    7521:	e8 2a cd ff ff       	call   4250 <_ZdlPv@plt>
    7526:	e9 8a fe ff ff       	jmp    73b5 <_ZN2ML25profileModelWithThreadingERKNS_5ModelERKNS_4PathEi.cold+0x224>

000000000000752b <_ZN2ML20checkMaxPoolingLayerERKNS_4PathEiRKNS_11LayerParamsES5_.cold>:
    752b:	48 8b bc 24 a0 01 00 	mov    0x1a0(%rsp),%rdi
    7532:	00 
    7533:	4c 39 f7             	cmp    %r14,%rdi
    7536:	74 36                	je     756e <_ZN2ML20checkMaxPoolingLayerERKNS_4PathEiRKNS_11LayerParamsES5_.cold+0x43>
    7538:	c5 f8 77             	vzeroupper
    753b:	e8 10 cd ff ff       	call   4250 <_ZdlPv@plt>
    7540:	48 8b bc 24 50 01 00 	mov    0x150(%rsp),%rdi
    7547:	00 
    7548:	48 39 ef             	cmp    %rbp,%rdi
    754b:	74 05                	je     7552 <_ZN2ML20checkMaxPoolingLayerERKNS_4PathEiRKNS_11LayerParamsES5_.cold+0x27>
    754d:	e8 fe cc ff ff       	call   4250 <_ZdlPv@plt>
    7552:	48 8b 7c 24 20       	mov    0x20(%rsp),%rdi
    7557:	48 8d 44 24 30       	lea    0x30(%rsp),%rax
    755c:	48 39 c7             	cmp    %rax,%rdi
    755f:	74 05                	je     7566 <_ZN2ML20checkMaxPoolingLayerERKNS_4PathEiRKNS_11LayerParamsES5_.cold+0x3b>
    7561:	e8 ea cc ff ff       	call   4250 <_ZdlPv@plt>
    7566:	48 89 df             	mov    %rbx,%rdi
    7569:	e8 e2 ce ff ff       	call   4450 <_Unwind_Resume@plt>
    756e:	c5 f8 77             	vzeroupper
    7571:	eb cd                	jmp    7540 <_ZN2ML20checkMaxPoolingLayerERKNS_4PathEiRKNS_11LayerParamsES5_.cold+0x15>
    7573:	48 8b bc 24 a0 01 00 	mov    0x1a0(%rsp),%rdi
    757a:	00 
    757b:	48 8d 84 24 b0 01 00 	lea    0x1b0(%rsp),%rax
    7582:	00 
    7583:	48 39 c7             	cmp    %rax,%rdi
    7586:	75 25                	jne    75ad <_ZN2ML20checkMaxPoolingLayerERKNS_4PathEiRKNS_11LayerParamsES5_.cold+0x82>
    7588:	c5 f8 77             	vzeroupper
    758b:	48 8b bc 24 50 01 00 	mov    0x150(%rsp),%rdi
    7592:	00 
    7593:	48 8d 84 24 60 01 00 	lea    0x160(%rsp),%rax
    759a:	00 
    759b:	48 39 c7             	cmp    %rax,%rdi
    759e:	74 05                	je     75a5 <_ZN2ML20checkMaxPoolingLayerERKNS_4PathEiRKNS_11LayerParamsES5_.cold+0x7a>
    75a0:	e8 ab cc ff ff       	call   4250 <_ZdlPv@plt>
    75a5:	48 89 df             	mov    %rbx,%rdi
    75a8:	e8 a3 ce ff ff       	call   4450 <_Unwind_Resume@plt>
    75ad:	c5 f8 77             	vzeroupper
    75b0:	e8 9b cc ff ff       	call   4250 <_ZdlPv@plt>
    75b5:	eb d4                	jmp    758b <_ZN2ML20checkMaxPoolingLayerERKNS_4PathEiRKNS_11LayerParamsES5_.cold+0x60>
    75b7:	48 8b bc 24 a0 00 00 	mov    0xa0(%rsp),%rdi
    75be:	00 
    75bf:	48 39 ef             	cmp    %rbp,%rdi
    75c2:	0f 84 56 01 00 00    	je     771e <_ZN2ML20checkMaxPoolingLayerERKNS_4PathEiRKNS_11LayerParamsES5_.cold+0x1f3>
    75c8:	c5 f8 77             	vzeroupper
    75cb:	e8 80 cc ff ff       	call   4250 <_ZdlPv@plt>
    75d0:	48 89 df             	mov    %rbx,%rdi
    75d3:	4c 89 e3             	mov    %r12,%rbx
    75d6:	e8 55 0e 02 00       	call   28430 <_ZN2ML9LayerDataD1Ev>
    75db:	e9 1c 01 00 00       	jmp    76fc <_ZN2ML20checkMaxPoolingLayerERKNS_4PathEiRKNS_11LayerParamsES5_.cold+0x1d1>
    75e0:	48 8b bc 24 a0 00 00 	mov    0xa0(%rsp),%rdi
    75e7:	00 
    75e8:	48 39 ef             	cmp    %rbp,%rdi
    75eb:	74 0a                	je     75f7 <_ZN2ML20checkMaxPoolingLayerERKNS_4PathEiRKNS_11LayerParamsES5_.cold+0xcc>
    75ed:	c5 f8 77             	vzeroupper
    75f0:	e8 5b cc ff ff       	call   4250 <_ZdlPv@plt>
    75f5:	eb d9                	jmp    75d0 <_ZN2ML20checkMaxPoolingLayerERKNS_4PathEiRKNS_11LayerParamsES5_.cold+0xa5>
    75f7:	c5 f8 77             	vzeroupper
    75fa:	eb d4                	jmp    75d0 <_ZN2ML20checkMaxPoolingLayerERKNS_4PathEiRKNS_11LayerParamsES5_.cold+0xa5>
    75fc:	48 8b bc 24 50 01 00 	mov    0x150(%rsp),%rdi
    7603:	00 
    7604:	48 39 ef             	cmp    %rbp,%rdi
    7607:	0f 84 21 01 00 00    	je     772e <_ZN2ML20checkMaxPoolingLayerERKNS_4PathEiRKNS_11LayerParamsES5_.cold+0x203>
    760d:	c5 f8 77             	vzeroupper
    7610:	e8 3b cc ff ff       	call   4250 <_ZdlPv@plt>
    7615:	48 8b bc 24 a0 00 00 	mov    0xa0(%rsp),%rdi
    761c:	00 
    761d:	48 8d 84 24 b0 00 00 	lea    0xb0(%rsp),%rax
    7624:	00 
    7625:	48 39 c7             	cmp    %rax,%rdi
    7628:	74 05                	je     762f <_ZN2ML20checkMaxPoolingLayerERKNS_4PathEiRKNS_11LayerParamsES5_.cold+0x104>
    762a:	e8 21 cc ff ff       	call   4250 <_ZdlPv@plt>
    762f:	48 8b bc 24 d0 00 00 	mov    0xd0(%rsp),%rdi
    7636:	00 
    7637:	4c 39 ff             	cmp    %r15,%rdi
    763a:	75 38                	jne    7674 <_ZN2ML20checkMaxPoolingLayerERKNS_4PathEiRKNS_11LayerParamsES5_.cold+0x149>
    763c:	4c 89 f7             	mov    %r14,%rdi
    763f:	e8 ec 0d 02 00       	call   28430 <_ZN2ML9LayerDataD1Ev>
    7644:	48 8b 7c 24 40       	mov    0x40(%rsp),%rdi
    7649:	48 8d 44 24 50       	lea    0x50(%rsp),%rax
    764e:	48 39 c7             	cmp    %rax,%rdi
    7651:	74 05                	je     7658 <_ZN2ML20checkMaxPoolingLayerERKNS_4PathEiRKNS_11LayerParamsES5_.cold+0x12d>
    7653:	e8 f8 cb ff ff       	call   4250 <_ZdlPv@plt>
    7658:	48 8d 05 49 cf 02 00 	lea    0x2cf49(%rip),%rax        # 345a8 <_ZTVN2ML15MaxPoolingLayerE+0x10>
    765f:	4c 89 ef             	mov    %r13,%rdi
    7662:	48 89 84 24 a0 01 00 	mov    %rax,0x1a0(%rsp)
    7669:	00 
    766a:	e8 01 0e 02 00       	call   28470 <_ZN2ML5LayerD1Ev>
    766f:	e9 de fe ff ff       	jmp    7552 <_ZN2ML20checkMaxPoolingLayerERKNS_4PathEiRKNS_11LayerParamsES5_.cold+0x27>
    7674:	e8 d7 cb ff ff       	call   4250 <_ZdlPv@plt>
    7679:	eb c1                	jmp    763c <_ZN2ML20checkMaxPoolingLayerERKNS_4PathEiRKNS_11LayerParamsES5_.cold+0x111>
    767b:	48 8b bc 24 50 01 00 	mov    0x150(%rsp),%rdi
    7682:	00 
    7683:	48 39 ef             	cmp    %rbp,%rdi
    7686:	74 21                	je     76a9 <_ZN2ML20checkMaxPoolingLayerERKNS_4PathEiRKNS_11LayerParamsES5_.cold+0x17e>
    7688:	c5 f8 77             	vzeroupper
    768b:	e8 c0 cb ff ff       	call   4250 <_ZdlPv@plt>
    7690:	eb aa                	jmp    763c <_ZN2ML20checkMaxPoolingLayerERKNS_4PathEiRKNS_11LayerParamsES5_.cold+0x111>
    7692:	48 8b bc 24 50 01 00 	mov    0x150(%rsp),%rdi
    7699:	00 
    769a:	48 39 ef             	cmp    %rbp,%rdi
    769d:	74 0f                	je     76ae <_ZN2ML20checkMaxPoolingLayerERKNS_4PathEiRKNS_11LayerParamsES5_.cold+0x183>
    769f:	c5 f8 77             	vzeroupper
    76a2:	e8 a9 cb ff ff       	call   4250 <_ZdlPv@plt>
    76a7:	eb 93                	jmp    763c <_ZN2ML20checkMaxPoolingLayerERKNS_4PathEiRKNS_11LayerParamsES5_.cold+0x111>
    76a9:	c5 f8 77             	vzeroupper
    76ac:	eb 8e                	jmp    763c <_ZN2ML20checkMaxPoolingLayerERKNS_4PathEiRKNS_11LayerParamsES5_.cold+0x111>
    76ae:	c5 f8 77             	vzeroupper
    76b1:	eb 89                	jmp    763c <_ZN2ML20checkMaxPoolingLayerERKNS_4PathEiRKNS_11LayerParamsES5_.cold+0x111>
    76b3:	48 8b bc 24 50 01 00 	mov    0x150(%rsp),%rdi
    76ba:	00 
    76bb:	48 39 ef             	cmp    %rbp,%rdi
    76be:	74 66                	je     7726 <_ZN2ML20checkMaxPoolingLayerERKNS_4PathEiRKNS_11LayerParamsES5_.cold+0x1fb>
    76c0:	c5 f8 77             	vzeroupper
    76c3:	e8 88 cb ff ff       	call   4250 <_ZdlPv@plt>
    76c8:	e9 77 ff ff ff       	jmp    7644 <_ZN2ML20checkMaxPoolingLayerERKNS_4PathEiRKNS_11LayerParamsES5_.cold+0x119>
    76cd:	48 8b bc 24 a0 00 00 	mov    0xa0(%rsp),%rdi
    76d4:	00 
    76d5:	48 39 ef             	cmp    %rbp,%rdi
    76d8:	74 3f                	je     7719 <_ZN2ML20checkMaxPoolingLayerERKNS_4PathEiRKNS_11LayerParamsES5_.cold+0x1ee>
    76da:	c5 f8 77             	vzeroupper
    76dd:	e8 6e cb ff ff       	call   4250 <_ZdlPv@plt>
    76e2:	48 8b bc 24 80 00 00 	mov    0x80(%rsp),%rdi
    76e9:	00 
    76ea:	48 8d 84 24 90 00 00 	lea    0x90(%rsp),%rax
    76f1:	00 
    76f2:	48 39 c7             	cmp    %rax,%rdi
    76f5:	74 05                	je     76fc <_ZN2ML20checkMaxPoolingLayerERKNS_4PathEiRKNS_11LayerParamsES5_.cold+0x1d1>
    76f7:	e8 54 cb ff ff       	call   4250 <_ZdlPv@plt>
    76fc:	48 8b 7c 24 60       	mov    0x60(%rsp),%rdi
    7701:	48 8d 44 24 70       	lea    0x70(%rsp),%rax
    7706:	48 39 c7             	cmp    %rax,%rdi
    7709:	0f 84 20 ff ff ff    	je     762f <_ZN2ML20checkMaxPoolingLayerERKNS_4PathEiRKNS_11LayerParamsES5_.cold+0x104>
    770f:	e8 3c cb ff ff       	call   4250 <_ZdlPv@plt>
    7714:	e9 16 ff ff ff       	jmp    762f <_ZN2ML20checkMaxPoolingLayerERKNS_4PathEiRKNS_11LayerParamsES5_.cold+0x104>
    7719:	c5 f8 77             	vzeroupper
    771c:	eb c4                	jmp    76e2 <_ZN2ML20checkMaxPoolingLayerERKNS_4PathEiRKNS_11LayerParamsES5_.cold+0x1b7>
    771e:	c5 f8 77             	vzeroupper
    7721:	e9 aa fe ff ff       	jmp    75d0 <_ZN2ML20checkMaxPoolingLayerERKNS_4PathEiRKNS_11LayerParamsES5_.cold+0xa5>
    7726:	c5 f8 77             	vzeroupper
    7729:	e9 16 ff ff ff       	jmp    7644 <_ZN2ML20checkMaxPoolingLayerERKNS_4PathEiRKNS_11LayerParamsES5_.cold+0x119>
    772e:	c5 f8 77             	vzeroupper
    7731:	e9 df fe ff ff       	jmp    7615 <_ZN2ML20checkMaxPoolingLayerERKNS_4PathEiRKNS_11LayerParamsES5_.cold+0xea>

0000000000007736 <_ZN2ML17checkFlattenLayerERKNS_4PathEiRKNS_11LayerParamsES5_.cold>:
    7736:	48 8b bc 24 a0 01 00 	mov    0x1a0(%rsp),%rdi
    773d:	00 
    773e:	4c 39 f7             	cmp    %r14,%rdi
    7741:	74 36                	je     7779 <_ZN2ML17checkFlattenLayerERKNS_4PathEiRKNS_11LayerParamsES5_.cold+0x43>
    7743:	c5 f8 77             	vzeroupper
    7746:	e8 05 cb ff ff       	call   4250 <_ZdlPv@plt>
    774b:	48 8b bc 24 50 01 00 	mov    0x150(%rsp),%rdi
    7752:	00 
    7753:	48 39 ef             	cmp    %rbp,%rdi
    7756:	74 05                	je     775d <_ZN2ML17checkFlattenLayerERKNS_4PathEiRKNS_11LayerParamsES5_.cold+0x27>
    7758:	e8 f3 ca ff ff       	call   4250 <_ZdlPv@plt>
    775d:	48 8b 7c 24 20       	mov    0x20(%rsp),%rdi
    7762:	48 8d 44 24 30       	lea    0x30(%rsp),%rax
    7767:	48 39 c7             	cmp    %rax,%rdi
    776a:	74 05                	je     7771 <_ZN2ML17checkFlattenLayerERKNS_4PathEiRKNS_11LayerParamsES5_.cold+0x3b>
    776c:	e8 df ca ff ff       	call   4250 <_ZdlPv@plt>
    7771:	48 89 df             	mov    %rbx,%rdi
    7774:	e8 d7 cc ff ff       	call   4450 <_Unwind_Resume@plt>
    7779:	c5 f8 77             	vzeroupper
    777c:	eb cd                	jmp    774b <_ZN2ML17checkFlattenLayerERKNS_4PathEiRKNS_11LayerParamsES5_.cold+0x15>
    777e:	48 8b bc 24 a0 01 00 	mov    0x1a0(%rsp),%rdi
    7785:	00 
    7786:	48 8d 84 24 b0 01 00 	lea    0x1b0(%rsp),%rax
    778d:	00 
    778e:	48 39 c7             	cmp    %rax,%rdi
    7791:	75 25                	jne    77b8 <_ZN2ML17checkFlattenLayerERKNS_4PathEiRKNS_11LayerParamsES5_.cold+0x82>
    7793:	c5 f8 77             	vzeroupper
    7796:	48 8b bc 24 50 01 00 	mov    0x150(%rsp),%rdi
    779d:	00 
    779e:	48 8d 84 24 60 01 00 	lea    0x160(%rsp),%rax
    77a5:	00 
    77a6:	48 39 c7             	cmp    %rax,%rdi
    77a9:	74 05                	je     77b0 <_ZN2ML17checkFlattenLayerERKNS_4PathEiRKNS_11LayerParamsES5_.cold+0x7a>
    77ab:	e8 a0 ca ff ff       	call   4250 <_ZdlPv@plt>
    77b0:	48 89 df             	mov    %rbx,%rdi
    77b3:	e8 98 cc ff ff       	call   4450 <_Unwind_Resume@plt>
    77b8:	c5 f8 77             	vzeroupper
    77bb:	e8 90 ca ff ff       	call   4250 <_ZdlPv@plt>
    77c0:	eb d4                	jmp    7796 <_ZN2ML17checkFlattenLayerERKNS_4PathEiRKNS_11LayerParamsES5_.cold+0x60>
    77c2:	48 8b bc 24 a0 00 00 	mov    0xa0(%rsp),%rdi
    77c9:	00 
    77ca:	48 39 ef             	cmp    %rbp,%rdi
    77cd:	0f 84 56 01 00 00    	je     7929 <_ZN2ML17checkFlattenLayerERKNS_4PathEiRKNS_11LayerParamsES5_.cold+0x1f3>
    77d3:	c5 f8 77             	vzeroupper
    77d6:	e8 75 ca ff ff       	call   4250 <_ZdlPv@plt>
    77db:	48 89 df             	mov    %rbx,%rdi
    77de:	4c 89 e3             	mov    %r12,%rbx
    77e1:	e8 4a 0c 02 00       	call   28430 <_ZN2ML9LayerDataD1Ev>
    77e6:	e9 1c 01 00 00       	jmp    7907 <_ZN2ML17checkFlattenLayerERKNS_4PathEiRKNS_11LayerParamsES5_.cold+0x1d1>
    77eb:	48 8b bc 24 a0 00 00 	mov    0xa0(%rsp),%rdi
    77f2:	00 
    77f3:	48 39 ef             	cmp    %rbp,%rdi
    77f6:	74 0a                	je     7802 <_ZN2ML17checkFlattenLayerERKNS_4PathEiRKNS_11LayerParamsES5_.cold+0xcc>
    77f8:	c5 f8 77             	vzeroupper
    77fb:	e8 50 ca ff ff       	call   4250 <_ZdlPv@plt>
    7800:	eb d9                	jmp    77db <_ZN2ML17checkFlattenLayerERKNS_4PathEiRKNS_11LayerParamsES5_.cold+0xa5>
    7802:	c5 f8 77             	vzeroupper
    7805:	eb d4                	jmp    77db <_ZN2ML17checkFlattenLayerERKNS_4PathEiRKNS_11LayerParamsES5_.cold+0xa5>
    7807:	48 8b bc 24 50 01 00 	mov    0x150(%rsp),%rdi
    780e:	00 
    780f:	48 39 ef             	cmp    %rbp,%rdi
    7812:	0f 84 21 01 00 00    	je     7939 <_ZN2ML17checkFlattenLayerERKNS_4PathEiRKNS_11LayerParamsES5_.cold+0x203>
    7818:	c5 f8 77             	vzeroupper
    781b:	e8 30 ca ff ff       	call   4250 <_ZdlPv@plt>
    7820:	48 8b bc 24 a0 00 00 	mov    0xa0(%rsp),%rdi
    7827:	00 
    7828:	48 8d 84 24 b0 00 00 	lea    0xb0(%rsp),%rax
    782f:	00 
    7830:	48 39 c7             	cmp    %rax,%rdi
    7833:	74 05                	je     783a <_ZN2ML17checkFlattenLayerERKNS_4PathEiRKNS_11LayerParamsES5_.cold+0x104>
    7835:	e8 16 ca ff ff       	call   4250 <_ZdlPv@plt>
    783a:	48 8b bc 24 d0 00 00 	mov    0xd0(%rsp),%rdi
    7841:	00 
    7842:	4c 39 ff             	cmp    %r15,%rdi
    7845:	75 38                	jne    787f <_ZN2ML17checkFlattenLayerERKNS_4PathEiRKNS_11LayerParamsES5_.cold+0x149>
    7847:	4c 89 f7             	mov    %r14,%rdi
    784a:	e8 e1 0b 02 00       	call   28430 <_ZN2ML9LayerDataD1Ev>
    784f:	48 8b 7c 24 40       	mov    0x40(%rsp),%rdi
    7854:	48 8d 44 24 50       	lea    0x50(%rsp),%rax
    7859:	48 39 c7             	cmp    %rax,%rdi
    785c:	74 05                	je     7863 <_ZN2ML17checkFlattenLayerERKNS_4PathEiRKNS_11LayerParamsES5_.cold+0x12d>
    785e:	e8 ed c9 ff ff       	call   4250 <_ZdlPv@plt>
    7863:	48 8d 05 de cc 02 00 	lea    0x2ccde(%rip),%rax        # 34548 <_ZTVN2ML12FlattenLayerE+0x10>
    786a:	4c 89 ef             	mov    %r13,%rdi
    786d:	48 89 84 24 a0 01 00 	mov    %rax,0x1a0(%rsp)
    7874:	00 
    7875:	e8 f6 0b 02 00       	call   28470 <_ZN2ML5LayerD1Ev>
    787a:	e9 de fe ff ff       	jmp    775d <_ZN2ML17checkFlattenLayerERKNS_4PathEiRKNS_11LayerParamsES5_.cold+0x27>
    787f:	e8 cc c9 ff ff       	call   4250 <_ZdlPv@plt>
    7884:	eb c1                	jmp    7847 <_ZN2ML17checkFlattenLayerERKNS_4PathEiRKNS_11LayerParamsES5_.cold+0x111>
    7886:	48 8b bc 24 50 01 00 	mov    0x150(%rsp),%rdi
    788d:	00 
    788e:	48 39 ef             	cmp    %rbp,%rdi
    7891:	74 21                	je     78b4 <_ZN2ML17checkFlattenLayerERKNS_4PathEiRKNS_11LayerParamsES5_.cold+0x17e>
    7893:	c5 f8 77             	vzeroupper
    7896:	e8 b5 c9 ff ff       	call   4250 <_ZdlPv@plt>
    789b:	eb aa                	jmp    7847 <_ZN2ML17checkFlattenLayerERKNS_4PathEiRKNS_11LayerParamsES5_.cold+0x111>
    789d:	48 8b bc 24 50 01 00 	mov    0x150(%rsp),%rdi
    78a4:	00 
    78a5:	48 39 ef             	cmp    %rbp,%rdi
    78a8:	74 0f                	je     78b9 <_ZN2ML17checkFlattenLayerERKNS_4PathEiRKNS_11LayerParamsES5_.cold+0x183>
    78aa:	c5 f8 77             	vzeroupper
    78ad:	e8 9e c9 ff ff       	call   4250 <_ZdlPv@plt>
    78b2:	eb 93                	jmp    7847 <_ZN2ML17checkFlattenLayerERKNS_4PathEiRKNS_11LayerParamsES5_.cold+0x111>
    78b4:	c5 f8 77             	vzeroupper
    78b7:	eb 8e                	jmp    7847 <_ZN2ML17checkFlattenLayerERKNS_4PathEiRKNS_11LayerParamsES5_.cold+0x111>
    78b9:	c5 f8 77             	vzeroupper
    78bc:	eb 89                	jmp    7847 <_ZN2ML17checkFlattenLayerERKNS_4PathEiRKNS_11LayerParamsES5_.cold+0x111>
    78be:	48 8b bc 24 50 01 00 	mov    0x150(%rsp),%rdi
    78c5:	00 
    78c6:	48 39 ef             	cmp    %rbp,%rdi
    78c9:	74 66                	je     7931 <_ZN2ML17checkFlattenLayerERKNS_4PathEiRKNS_11LayerParamsES5_.cold+0x1fb>
    78cb:	c5 f8 77             	vzeroupper
    78ce:	e8 7d c9 ff ff       	call   4250 <_ZdlPv@plt>
    78d3:	e9 77 ff ff ff       	jmp    784f <_ZN2ML17checkFlattenLayerERKNS_4PathEiRKNS_11LayerParamsES5_.cold+0x119>
    78d8:	48 8b bc 24 a0 00 00 	mov    0xa0(%rsp),%rdi
    78df:	00 
    78e0:	48 39 ef             	cmp    %rbp,%rdi
    78e3:	74 3f                	je     7924 <_ZN2ML17checkFlattenLayerERKNS_4PathEiRKNS_11LayerParamsES5_.cold+0x1ee>
    78e5:	c5 f8 77             	vzeroupper
    78e8:	e8 63 c9 ff ff       	call   4250 <_ZdlPv@plt>
    78ed:	48 8b bc 24 80 00 00 	mov    0x80(%rsp),%rdi
    78f4:	00 
    78f5:	48 8d 84 24 90 00 00 	lea    0x90(%rsp),%rax
    78fc:	00 
    78fd:	48 39 c7             	cmp    %rax,%rdi
    7900:	74 05                	je     7907 <_ZN2ML17checkFlattenLayerERKNS_4PathEiRKNS_11LayerParamsES5_.cold+0x1d1>
    7902:	e8 49 c9 ff ff       	call   4250 <_ZdlPv@plt>
    7907:	48 8b 7c 24 60       	mov    0x60(%rsp),%rdi
    790c:	48 8d 44 24 70       	lea    0x70(%rsp),%rax
    7911:	48 39 c7             	cmp    %rax,%rdi
    7914:	0f 84 20 ff ff ff    	je     783a <_ZN2ML17checkFlattenLayerERKNS_4PathEiRKNS_11LayerParamsES5_.cold+0x104>
    791a:	e8 31 c9 ff ff       	call   4250 <_ZdlPv@plt>
    791f:	e9 16 ff ff ff       	jmp    783a <_ZN2ML17checkFlattenLayerERKNS_4PathEiRKNS_11LayerParamsES5_.cold+0x104>
    7924:	c5 f8 77             	vzeroupper
    7927:	eb c4                	jmp    78ed <_ZN2ML17checkFlattenLayerERKNS_4PathEiRKNS_11LayerParamsES5_.cold+0x1b7>
    7929:	c5 f8 77             	vzeroupper
    792c:	e9 aa fe ff ff       	jmp    77db <_ZN2ML17checkFlattenLayerERKNS_4PathEiRKNS_11LayerParamsES5_.cold+0xa5>
    7931:	c5 f8 77             	vzeroupper
    7934:	e9 16 ff ff ff       	jmp    784f <_ZN2ML17checkFlattenLayerERKNS_4PathEiRKNS_11LayerParamsES5_.cold+0x119>
    7939:	c5 f8 77             	vzeroupper
    793c:	e9 df fe ff ff       	jmp    7820 <_ZN2ML17checkFlattenLayerERKNS_4PathEiRKNS_11LayerParamsES5_.cold+0xea>

0000000000007941 <_ZN2ML8runTestsEv.cold>:
    7941:	48 8b 7d 80          	mov    -0x80(%rbp),%rdi
    7945:	48 8b 85 08 fd ff ff 	mov    -0x2f8(%rbp),%rax
    794c:	48 39 c7             	cmp    %rax,%rdi
    794f:	0f 84 b8 03 00 00    	je     7d0d <_ZN2ML8runTestsEv.cold+0x3cc>
    7955:	c5 f8 77             	vzeroupper
    7958:	e8 f3 c8 ff ff       	call   4250 <_ZdlPv@plt>
    795d:	48 8b bd 30 fe ff ff 	mov    -0x1d0(%rbp),%rdi
    7964:	4c 39 f7             	cmp    %r14,%rdi
    7967:	74 05                	je     796e <_ZN2ML8runTestsEv.cold+0x2d>
    7969:	e8 e2 c8 ff ff       	call   4250 <_ZdlPv@plt>
    796e:	48 8b bd 50 fe ff ff 	mov    -0x1b0(%rbp),%rdi
    7975:	48 8b 85 20 fd ff ff 	mov    -0x2e0(%rbp),%rax
    797c:	48 39 c7             	cmp    %rax,%rdi
    797f:	74 05                	je     7986 <_ZN2ML8runTestsEv.cold+0x45>
    7981:	e8 ca c8 ff ff       	call   4250 <_ZdlPv@plt>
    7986:	48 83 bd 18 fd ff ff 	cmpq   $0x0,-0x2e8(%rbp)
    798d:	00 
    798e:	74 0c                	je     799c <_ZN2ML8runTestsEv.cold+0x5b>
    7990:	48 8b bd 18 fd ff ff 	mov    -0x2e8(%rbp),%rdi
    7997:	e8 b4 c8 ff ff       	call   4250 <_ZdlPv@plt>
    799c:	48 8b bd 90 fd ff ff 	mov    -0x270(%rbp),%rdi
    79a3:	48 85 ff             	test   %rdi,%rdi
    79a6:	75 68                	jne    7a10 <_ZN2ML8runTestsEv.cold+0xcf>
    79a8:	48 8b bd 10 fd ff ff 	mov    -0x2f0(%rbp),%rdi
    79af:	e8 ec 12 02 00       	call   28ca0 <_ZNSt6vectorISt10unique_ptrIN2ML5LayerESt14default_deleteIS2_EESaIS5_EED1Ev>
    79b4:	48 8b bd c8 fc ff ff 	mov    -0x338(%rbp),%rdi
    79bb:	e8 70 0a 02 00       	call   28430 <_ZN2ML9LayerDataD1Ev>
    79c0:	48 8b bd f0 fd ff ff 	mov    -0x210(%rbp),%rdi
    79c7:	48 8b 85 b0 fc ff ff 	mov    -0x350(%rbp),%rax
    79ce:	48 39 c7             	cmp    %rax,%rdi
    79d1:	74 05                	je     79d8 <_ZN2ML8runTestsEv.cold+0x97>
    79d3:	e8 78 c8 ff ff       	call   4250 <_ZdlPv@plt>
    79d8:	48 8b bd d0 fd ff ff 	mov    -0x230(%rbp),%rdi
    79df:	48 8d 85 e0 fd ff ff 	lea    -0x220(%rbp),%rax
    79e6:	48 39 c7             	cmp    %rax,%rdi
    79e9:	74 05                	je     79f0 <_ZN2ML8runTestsEv.cold+0xaf>
    79eb:	e8 60 c8 ff ff       	call   4250 <_ZdlPv@plt>
    79f0:	48 8b bd b0 fd ff ff 	mov    -0x250(%rbp),%rdi
    79f7:	48 8d 85 c0 fd ff ff 	lea    -0x240(%rbp),%rax
    79fe:	48 39 c7             	cmp    %rax,%rdi
    7a01:	74 05                	je     7a08 <_ZN2ML8runTestsEv.cold+0xc7>
    7a03:	e8 48 c8 ff ff       	call   4250 <_ZdlPv@plt>
    7a08:	48 89 df             	mov    %rbx,%rdi
    7a0b:	e8 40 ca ff ff       	call   4450 <_Unwind_Resume@plt>
    7a10:	e8 3b c8 ff ff       	call   4250 <_ZdlPv@plt>
    7a15:	eb 91                	jmp    79a8 <_ZN2ML8runTestsEv.cold+0x67>
    7a17:	48 8b 7d 80          	mov    -0x80(%rbp),%rdi
    7a1b:	48 8b 85 08 fd ff ff 	mov    -0x2f8(%rbp),%rax
    7a22:	48 39 c7             	cmp    %rax,%rdi
    7a25:	0f 84 f8 00 00 00    	je     7b23 <_ZN2ML8runTestsEv.cold+0x1e2>
    7a2b:	c5 f8 77             	vzeroupper
    7a2e:	e8 1d c8 ff ff       	call   4250 <_ZdlPv@plt>
    7a33:	e9 7c ff ff ff       	jmp    79b4 <_ZN2ML8runTestsEv.cold+0x73>
    7a38:	48 8b 7d 80          	mov    -0x80(%rbp),%rdi
    7a3c:	48 8b 85 08 fd ff ff 	mov    -0x2f8(%rbp),%rax
    7a43:	48 39 c7             	cmp    %rax,%rdi
    7a46:	75 58                	jne    7aa0 <_ZN2ML8runTestsEv.cold+0x15f>
    7a48:	c5 f8 77             	vzeroupper
    7a4b:	48 8b bd d0 fe ff ff 	mov    -0x130(%rbp),%rdi
    7a52:	48 8b 85 60 fd ff ff 	mov    -0x2a0(%rbp),%rax
    7a59:	48 39 c7             	cmp    %rax,%rdi
    7a5c:	0f 84 fb fe ff ff    	je     795d <_ZN2ML8runTestsEv.cold+0x1c>
    7a62:	e8 e9 c7 ff ff       	call   4250 <_ZdlPv@plt>
    7a67:	e9 f1 fe ff ff       	jmp    795d <_ZN2ML8runTestsEv.cold+0x1c>
    7a6c:	48 8b bd f0 fe ff ff 	mov    -0x110(%rbp),%rdi
    7a73:	48 8b 85 40 fd ff ff 	mov    -0x2c0(%rbp),%rax
    7a7a:	48 39 c7             	cmp    %rax,%rdi
    7a7d:	0f 84 82 02 00 00    	je     7d05 <_ZN2ML8runTestsEv.cold+0x3c4>
    7a83:	c5 f8 77             	vzeroupper
    7a86:	e8 c5 c7 ff ff       	call   4250 <_ZdlPv@plt>
    7a8b:	48 8b 7d 80          	mov    -0x80(%rbp),%rdi
    7a8f:	48 8b 85 08 fd ff ff 	mov    -0x2f8(%rbp),%rax
    7a96:	48 39 c7             	cmp    %rax,%rdi
    7a99:	75 c7                	jne    7a62 <_ZN2ML8runTestsEv.cold+0x121>
    7a9b:	e9 bd fe ff ff       	jmp    795d <_ZN2ML8runTestsEv.cold+0x1c>
    7aa0:	c5 f8 77             	vzeroupper
    7aa3:	e8 a8 c7 ff ff       	call   4250 <_ZdlPv@plt>
    7aa8:	eb a1                	jmp    7a4b <_ZN2ML8runTestsEv.cold+0x10a>
    7aaa:	48 8b bd 70 fe ff ff 	mov    -0x190(%rbp),%rdi
    7ab1:	4c 39 e7             	cmp    %r12,%rdi
    7ab4:	74 68                	je     7b1e <_ZN2ML8runTestsEv.cold+0x1dd>
    7ab6:	c5 f8 77             	vzeroupper
    7ab9:	e8 92 c7 ff ff       	call   4250 <_ZdlPv@plt>
    7abe:	48 8b bd d0 fe ff ff 	mov    -0x130(%rbp),%rdi
    7ac5:	48 8b 85 60 fd ff ff 	mov    -0x2a0(%rbp),%rax
    7acc:	48 39 c7             	cmp    %rax,%rdi
    7acf:	74 16                	je     7ae7 <_ZN2ML8runTestsEv.cold+0x1a6>
    7ad1:	e8 7a c7 ff ff       	call   4250 <_ZdlPv@plt>
    7ad6:	eb 0f                	jmp    7ae7 <_ZN2ML8runTestsEv.cold+0x1a6>
    7ad8:	48 8b bd 00 ff ff ff 	mov    -0x100(%rbp),%rdi
    7adf:	4c 39 ef             	cmp    %r13,%rdi
    7ae2:	75 30                	jne    7b14 <_ZN2ML8runTestsEv.cold+0x1d3>
    7ae4:	c5 f8 77             	vzeroupper
    7ae7:	48 8b bd 28 fd ff ff 	mov    -0x2d8(%rbp),%rdi
    7aee:	e8 3d 09 02 00       	call   28430 <_ZN2ML9LayerDataD1Ev>
    7af3:	48 8b bd 10 fe ff ff 	mov    -0x1f0(%rbp),%rdi
    7afa:	48 8b 85 e0 fc ff ff 	mov    -0x320(%rbp),%rax
    7b01:	48 39 c7             	cmp    %rax,%rdi
    7b04:	0f 84 7c fe ff ff    	je     7986 <_ZN2ML8runTestsEv.cold+0x45>
    7b0a:	e8 41 c7 ff ff       	call   4250 <_ZdlPv@plt>
    7b0f:	e9 72 fe ff ff       	jmp    7986 <_ZN2ML8runTestsEv.cold+0x45>
    7b14:	c5 f8 77             	vzeroupper
    7b17:	e8 34 c7 ff ff       	call   4250 <_ZdlPv@plt>
    7b1c:	eb c9                	jmp    7ae7 <_ZN2ML8runTestsEv.cold+0x1a6>
    7b1e:	c5 f8 77             	vzeroupper
    7b21:	eb 9b                	jmp    7abe <_ZN2ML8runTestsEv.cold+0x17d>
    7b23:	c5 f8 77             	vzeroupper
    7b26:	e9 89 fe ff ff       	jmp    79b4 <_ZN2ML8runTestsEv.cold+0x73>
    7b2b:	48 8b bd 28 fd ff ff 	mov    -0x2d8(%rbp),%rdi
    7b32:	c5 f8 77             	vzeroupper
    7b35:	e8 b6 5e 00 00       	call   d9f0 <_ZN2ML11LayerParamsD1Ev>
    7b3a:	48 8b bd d0 fe ff ff 	mov    -0x130(%rbp),%rdi
    7b41:	48 85 ff             	test   %rdi,%rdi
    7b44:	74 05                	je     7b4b <_ZN2ML8runTestsEv.cold+0x20a>
    7b46:	e8 05 c7 ff ff       	call   4250 <_ZdlPv@plt>
    7b4b:	48 8b bd f0 fe ff ff 	mov    -0x110(%rbp),%rdi
    7b52:	48 8b 85 40 fd ff ff 	mov    -0x2c0(%rbp),%rax
    7b59:	48 39 c7             	cmp    %rax,%rdi
    7b5c:	0f 84 5e fe ff ff    	je     79c0 <_ZN2ML8runTestsEv.cold+0x7f>
    7b62:	e8 e9 c6 ff ff       	call   4250 <_ZdlPv@plt>
    7b67:	e9 54 fe ff ff       	jmp    79c0 <_ZN2ML8runTestsEv.cold+0x7f>
    7b6c:	48 8b bd d0 fe ff ff 	mov    -0x130(%rbp),%rdi
    7b73:	48 8b 85 60 fd ff ff 	mov    -0x2a0(%rbp),%rax
    7b7a:	48 39 c7             	cmp    %rax,%rdi
    7b7d:	74 3e                	je     7bbd <_ZN2ML8runTestsEv.cold+0x27c>
    7b7f:	c5 f8 77             	vzeroupper
    7b82:	e8 c9 c6 ff ff       	call   4250 <_ZdlPv@plt>
    7b87:	48 8b bd f0 fe ff ff 	mov    -0x110(%rbp),%rdi
    7b8e:	48 8b 85 40 fd ff ff 	mov    -0x2c0(%rbp),%rax
    7b95:	48 39 c7             	cmp    %rax,%rdi
    7b98:	74 05                	je     7b9f <_ZN2ML8runTestsEv.cold+0x25e>
    7b9a:	e8 b1 c6 ff ff       	call   4250 <_ZdlPv@plt>
    7b9f:	48 8b 7d 80          	mov    -0x80(%rbp),%rdi
    7ba3:	48 8b 85 08 fd ff ff 	mov    -0x2f8(%rbp),%rax
    7baa:	48 39 c7             	cmp    %rax,%rdi
    7bad:	0f 84 e9 fd ff ff    	je     799c <_ZN2ML8runTestsEv.cold+0x5b>
    7bb3:	e8 98 c6 ff ff       	call   4250 <_ZdlPv@plt>
    7bb8:	e9 df fd ff ff       	jmp    799c <_ZN2ML8runTestsEv.cold+0x5b>
    7bbd:	c5 f8 77             	vzeroupper
    7bc0:	eb c5                	jmp    7b87 <_ZN2ML8runTestsEv.cold+0x246>
    7bc2:	48 8b 7d 80          	mov    -0x80(%rbp),%rdi
    7bc6:	48 8b 85 08 fd ff ff 	mov    -0x2f8(%rbp),%rax
    7bcd:	48 39 c7             	cmp    %rax,%rdi
    7bd0:	0f 85 fb 00 00 00    	jne    7cd1 <_ZN2ML8runTestsEv.cold+0x390>
    7bd6:	c5 f8 77             	vzeroupper
    7bd9:	48 8b bd 70 fe ff ff 	mov    -0x190(%rbp),%rdi
    7be0:	4c 39 e7             	cmp    %r12,%rdi
    7be3:	0f 84 62 fe ff ff    	je     7a4b <_ZN2ML8runTestsEv.cold+0x10a>
    7be9:	e8 62 c6 ff ff       	call   4250 <_ZdlPv@plt>
    7bee:	e9 58 fe ff ff       	jmp    7a4b <_ZN2ML8runTestsEv.cold+0x10a>
    7bf3:	48 8b bd f0 fe ff ff 	mov    -0x110(%rbp),%rdi
    7bfa:	48 8b 85 40 fd ff ff 	mov    -0x2c0(%rbp),%rax
    7c01:	48 39 c7             	cmp    %rax,%rdi
    7c04:	0f 84 59 01 00 00    	je     7d63 <_ZN2ML8runTestsEv.cold+0x422>
    7c0a:	c5 f8 77             	vzeroupper
    7c0d:	e8 3e c6 ff ff       	call   4250 <_ZdlPv@plt>
    7c12:	48 8b 7d 80          	mov    -0x80(%rbp),%rdi
    7c16:	48 8b 85 08 fd ff ff 	mov    -0x2f8(%rbp),%rax
    7c1d:	48 39 c7             	cmp    %rax,%rdi
    7c20:	0f 84 25 fe ff ff    	je     7a4b <_ZN2ML8runTestsEv.cold+0x10a>
    7c26:	e8 25 c6 ff ff       	call   4250 <_ZdlPv@plt>
    7c2b:	e9 1b fe ff ff       	jmp    7a4b <_ZN2ML8runTestsEv.cold+0x10a>
    7c30:	48 8b 7d 88          	mov    -0x78(%rbp),%rdi
    7c34:	48 85 ff             	test   %rdi,%rdi
    7c37:	0f 85 5b 01 00 00    	jne    7d98 <_ZN2ML8runTestsEv.cold+0x457>
    7c3d:	c5 f8 77             	vzeroupper
    7c40:	48 85 db             	test   %rbx,%rbx
    7c43:	0f 85 d4 00 00 00    	jne    7d1d <_ZN2ML8runTestsEv.cold+0x3dc>
    7c49:	4c 89 fb             	mov    %r15,%rbx
    7c4c:	48 8b bd f0 fe ff ff 	mov    -0x110(%rbp),%rdi
    7c53:	48 8b 85 40 fd ff ff 	mov    -0x2c0(%rbp),%rax
    7c5a:	48 39 c7             	cmp    %rax,%rdi
    7c5d:	74 05                	je     7c64 <_ZN2ML8runTestsEv.cold+0x323>
    7c5f:	e8 ec c5 ff ff       	call   4250 <_ZdlPv@plt>
    7c64:	48 8b bd d0 fe ff ff 	mov    -0x130(%rbp),%rdi
    7c6b:	48 8b 85 60 fd ff ff 	mov    -0x2a0(%rbp),%rax
    7c72:	48 39 c7             	cmp    %rax,%rdi
    7c75:	0f 84 78 fe ff ff    	je     7af3 <_ZN2ML8runTestsEv.cold+0x1b2>
    7c7b:	e8 d0 c5 ff ff       	call   4250 <_ZdlPv@plt>
    7c80:	e9 6e fe ff ff       	jmp    7af3 <_ZN2ML8runTestsEv.cold+0x1b2>
    7c85:	48 8b bd d0 fe ff ff 	mov    -0x130(%rbp),%rdi
    7c8c:	48 8b 85 60 fd ff ff 	mov    -0x2a0(%rbp),%rax
    7c93:	48 39 c7             	cmp    %rax,%rdi
    7c96:	75 46                	jne    7cde <_ZN2ML8runTestsEv.cold+0x39d>
    7c98:	c5 f8 77             	vzeroupper
    7c9b:	48 8b bd f0 fe ff ff 	mov    -0x110(%rbp),%rdi
    7ca2:	48 8b 85 40 fd ff ff 	mov    -0x2c0(%rbp),%rax
    7ca9:	48 39 c7             	cmp    %rax,%rdi
    7cac:	74 05                	je     7cb3 <_ZN2ML8runTestsEv.cold+0x372>
    7cae:	e8 9d c5 ff ff       	call   4250 <_ZdlPv@plt>
    7cb3:	48 8b 7d 80          	mov    -0x80(%rbp),%rdi
    7cb7:	48 8b 85 08 fd ff ff 	mov    -0x2f8(%rbp),%rax
    7cbe:	48 39 c7             	cmp    %rax,%rdi
    7cc1:	0f 84 bf fc ff ff    	je     7986 <_ZN2ML8runTestsEv.cold+0x45>
    7cc7:	e8 84 c5 ff ff       	call   4250 <_ZdlPv@plt>
    7ccc:	e9 b5 fc ff ff       	jmp    7986 <_ZN2ML8runTestsEv.cold+0x45>
    7cd1:	c5 f8 77             	vzeroupper
    7cd4:	e8 77 c5 ff ff       	call   4250 <_ZdlPv@plt>
    7cd9:	e9 fb fe ff ff       	jmp    7bd9 <_ZN2ML8runTestsEv.cold+0x298>
    7cde:	c5 f8 77             	vzeroupper
    7ce1:	e8 6a c5 ff ff       	call   4250 <_ZdlPv@plt>
    7ce6:	eb b3                	jmp    7c9b <_ZN2ML8runTestsEv.cold+0x35a>
    7ce8:	48 8b 7d 80          	mov    -0x80(%rbp),%rdi
    7cec:	48 8b 85 08 fd ff ff 	mov    -0x2f8(%rbp),%rax
    7cf3:	48 39 c7             	cmp    %rax,%rdi
    7cf6:	74 1d                	je     7d15 <_ZN2ML8runTestsEv.cold+0x3d4>
    7cf8:	c5 f8 77             	vzeroupper
    7cfb:	e8 50 c5 ff ff       	call   4250 <_ZdlPv@plt>
    7d00:	e9 a3 fc ff ff       	jmp    79a8 <_ZN2ML8runTestsEv.cold+0x67>
    7d05:	c5 f8 77             	vzeroupper
    7d08:	e9 7e fd ff ff       	jmp    7a8b <_ZN2ML8runTestsEv.cold+0x14a>
    7d0d:	c5 f8 77             	vzeroupper
    7d10:	e9 48 fc ff ff       	jmp    795d <_ZN2ML8runTestsEv.cold+0x1c>
    7d15:	c5 f8 77             	vzeroupper
    7d18:	e9 8b fc ff ff       	jmp    79a8 <_ZN2ML8runTestsEv.cold+0x67>
    7d1d:	48 89 df             	mov    %rbx,%rdi
    7d20:	e8 2b c5 ff ff       	call   4250 <_ZdlPv@plt>
    7d25:	e9 1f ff ff ff       	jmp    7c49 <_ZN2ML8runTestsEv.cold+0x308>
    7d2a:	48 8b bd f0 fe ff ff 	mov    -0x110(%rbp),%rdi
    7d31:	48 8b 85 40 fd ff ff 	mov    -0x2c0(%rbp),%rax
    7d38:	48 39 c7             	cmp    %rax,%rdi
    7d3b:	74 2e                	je     7d6b <_ZN2ML8runTestsEv.cold+0x42a>
    7d3d:	c5 f8 77             	vzeroupper
    7d40:	e8 0b c5 ff ff       	call   4250 <_ZdlPv@plt>
    7d45:	48 8b 7d 80          	mov    -0x80(%rbp),%rdi
    7d49:	48 8b 85 08 fd ff ff 	mov    -0x2f8(%rbp),%rax
    7d50:	48 39 c7             	cmp    %rax,%rdi
    7d53:	0f 84 80 fe ff ff    	je     7bd9 <_ZN2ML8runTestsEv.cold+0x298>
    7d59:	e8 f2 c4 ff ff       	call   4250 <_ZdlPv@plt>
    7d5e:	e9 76 fe ff ff       	jmp    7bd9 <_ZN2ML8runTestsEv.cold+0x298>
    7d63:	c5 f8 77             	vzeroupper
    7d66:	e9 a7 fe ff ff       	jmp    7c12 <_ZN2ML8runTestsEv.cold+0x2d1>
    7d6b:	c5 f8 77             	vzeroupper
    7d6e:	eb d5                	jmp    7d45 <_ZN2ML8runTestsEv.cold+0x404>
    7d70:	48 8b bd f0 fe ff ff 	mov    -0x110(%rbp),%rdi
    7d77:	48 8b 85 40 fd ff ff 	mov    -0x2c0(%rbp),%rax
    7d7e:	48 39 c7             	cmp    %rax,%rdi
    7d81:	74 0d                	je     7d90 <_ZN2ML8runTestsEv.cold+0x44f>
    7d83:	c5 f8 77             	vzeroupper
    7d86:	e8 c5 c4 ff ff       	call   4250 <_ZdlPv@plt>
    7d8b:	e9 57 fd ff ff       	jmp    7ae7 <_ZN2ML8runTestsEv.cold+0x1a6>
    7d90:	c5 f8 77             	vzeroupper
    7d93:	e9 4f fd ff ff       	jmp    7ae7 <_ZN2ML8runTestsEv.cold+0x1a6>
    7d98:	c5 f8 77             	vzeroupper
    7d9b:	e8 b0 c4 ff ff       	call   4250 <_ZdlPv@plt>
    7da0:	e9 9b fe ff ff       	jmp    7c40 <_ZN2ML8runTestsEv.cold+0x2ff>

0000000000007da5 <_ZN2ML16test4BitAccuracyEv.cold>:
    7da5:	48 8b bd b0 fd ff ff 	mov    -0x250(%rbp),%rdi
    7dac:	48 8b 85 a8 fc ff ff 	mov    -0x358(%rbp),%rax
    7db3:	48 39 c7             	cmp    %rax,%rdi
    7db6:	0f 84 d6 02 00 00    	je     8092 <_ZN2ML16test4BitAccuracyEv.cold+0x2ed>
    7dbc:	c5 f8 77             	vzeroupper
    7dbf:	e8 8c c4 ff ff       	call   4250 <_ZdlPv@plt>
    7dc4:	48 8b bd 60 fd ff ff 	mov    -0x2a0(%rbp),%rdi
    7dcb:	48 8b 85 b0 fc ff ff 	mov    -0x350(%rbp),%rax
    7dd2:	48 39 c7             	cmp    %rax,%rdi
    7dd5:	74 05                	je     7ddc <_ZN2ML16test4BitAccuracyEv.cold+0x37>
    7dd7:	e8 74 c4 ff ff       	call   4250 <_ZdlPv@plt>
    7ddc:	48 8b bd 50 fc ff ff 	mov    -0x3b0(%rbp),%rdi
    7de3:	e8 b8 0e 02 00       	call   28ca0 <_ZNSt6vectorISt10unique_ptrIN2ML5LayerESt14default_deleteIS2_EESaIS5_EED1Ev>
    7de8:	48 89 df             	mov    %rbx,%rdi
    7deb:	e8 60 c6 ff ff       	call   4450 <_Unwind_Resume@plt>
    7df0:	48 8b bd b0 fd ff ff 	mov    -0x250(%rbp),%rdi
    7df7:	48 8b 85 a8 fc ff ff 	mov    -0x358(%rbp),%rax
    7dfe:	48 39 c7             	cmp    %rax,%rdi
    7e01:	0f 85 83 00 00 00    	jne    7e8a <_ZN2ML16test4BitAccuracyEv.cold+0xe5>
    7e07:	c5 f8 77             	vzeroupper
    7e0a:	48 8b bd 00 fd ff ff 	mov    -0x300(%rbp),%rdi
    7e11:	48 8b 85 80 fc ff ff 	mov    -0x380(%rbp),%rax
    7e18:	48 39 c7             	cmp    %rax,%rdi
    7e1b:	74 05                	je     7e22 <_ZN2ML16test4BitAccuracyEv.cold+0x7d>
    7e1d:	e8 2e c4 ff ff       	call   4250 <_ZdlPv@plt>
    7e22:	48 8b bd e0 fc ff ff 	mov    -0x320(%rbp),%rdi
    7e29:	48 8b 85 90 fc ff ff 	mov    -0x370(%rbp),%rax
    7e30:	48 39 c7             	cmp    %rax,%rdi
    7e33:	74 a7                	je     7ddc <_ZN2ML16test4BitAccuracyEv.cold+0x37>
    7e35:	e8 16 c4 ff ff       	call   4250 <_ZdlPv@plt>
    7e3a:	eb a0                	jmp    7ddc <_ZN2ML16test4BitAccuracyEv.cold+0x37>
    7e3c:	48 8b bd 68 fd ff ff 	mov    -0x298(%rbp),%rdi
    7e43:	48 85 ff             	test   %rdi,%rdi
    7e46:	75 4f                	jne    7e97 <_ZN2ML16test4BitAccuracyEv.cold+0xf2>
    7e48:	c5 f8 77             	vzeroupper
    7e4b:	4d 85 ed             	test   %r13,%r13
    7e4e:	74 08                	je     7e58 <_ZN2ML16test4BitAccuracyEv.cold+0xb3>
    7e50:	4c 89 ef             	mov    %r13,%rdi
    7e53:	e8 f8 c3 ff ff       	call   4250 <_ZdlPv@plt>
    7e58:	48 8b bd b0 fd ff ff 	mov    -0x250(%rbp),%rdi
    7e5f:	48 8b 85 a8 fc ff ff 	mov    -0x358(%rbp),%rax
    7e66:	48 39 c7             	cmp    %rax,%rdi
    7e69:	74 05                	je     7e70 <_ZN2ML16test4BitAccuracyEv.cold+0xcb>
    7e6b:	e8 e0 c3 ff ff       	call   4250 <_ZdlPv@plt>
    7e70:	48 8b bd 40 fd ff ff 	mov    -0x2c0(%rbp),%rdi
    7e77:	48 8b 85 98 fc ff ff 	mov    -0x368(%rbp),%rax
    7e7e:	48 39 c7             	cmp    %rax,%rdi
    7e81:	74 87                	je     7e0a <_ZN2ML16test4BitAccuracyEv.cold+0x65>
    7e83:	e8 c8 c3 ff ff       	call   4250 <_ZdlPv@plt>
    7e88:	eb 80                	jmp    7e0a <_ZN2ML16test4BitAccuracyEv.cold+0x65>
    7e8a:	c5 f8 77             	vzeroupper
    7e8d:	e8 be c3 ff ff       	call   4250 <_ZdlPv@plt>
    7e92:	e9 73 ff ff ff       	jmp    7e0a <_ZN2ML16test4BitAccuracyEv.cold+0x65>
    7e97:	c5 f8 77             	vzeroupper
    7e9a:	e8 b1 c3 ff ff       	call   4250 <_ZdlPv@plt>
    7e9f:	eb aa                	jmp    7e4b <_ZN2ML16test4BitAccuracyEv.cold+0xa6>
    7ea1:	48 8b bd b0 fd ff ff 	mov    -0x250(%rbp),%rdi
    7ea8:	48 8d 85 c0 fd ff ff 	lea    -0x240(%rbp),%rax
    7eaf:	48 39 c7             	cmp    %rax,%rdi
    7eb2:	75 47                	jne    7efb <_ZN2ML16test4BitAccuracyEv.cold+0x156>
    7eb4:	c5 f8 77             	vzeroupper
    7eb7:	48 89 df             	mov    %rbx,%rdi
    7eba:	e8 91 c5 ff ff       	call   4450 <_Unwind_Resume@plt>
    7ebf:	4c 89 e7             	mov    %r12,%rdi
    7ec2:	48 89 c3             	mov    %rax,%rbx
    7ec5:	c5 f8 77             	vzeroupper
