
build/ml:     file format elf64-x86-64


Disassembly of section .init:

0000000000004000 <_init>:
    4000:	48 83 ec 08          	sub    $0x8,%rsp
    4004:	48 8b 05 ad df 02 00 	mov    0x2dfad(%rip),%rax        # 31fb8 <__gmon_start__@Base>
    400b:	48 85 c0             	test   %rax,%rax
    400e:	74 02                	je     4012 <_init+0x12>
    4010:	ff d0                	call   *%rax
    4012:	48 83 c4 08          	add    $0x8,%rsp
    4016:	c3                   	ret

Disassembly of section .plt:

0000000000004020 <operator new[](unsigned long)@plt-0x10>:
    4020:	ff 35 ca df 02 00    	push   0x2dfca(%rip)        # 31ff0 <_GLOBAL_OFFSET_TABLE_+0x8>
    4026:	ff 25 cc df 02 00    	jmp    *0x2dfcc(%rip)        # 31ff8 <_GLOBAL_OFFSET_TABLE_+0x10>
    402c:	0f 1f 40 00          	nopl   0x0(%rax)

0000000000004030 <operator new[](unsigned long)@plt>:
    4030:	ff 25 ca df 02 00    	jmp    *0x2dfca(%rip)        # 32000 <operator new[](unsigned long)@GLIBCXX_3.4>
    4036:	68 00 00 00 00       	push   $0x0
    403b:	e9 e0 ff ff ff       	jmp    4020 <_init+0x20>

0000000000004040 <std::ostream::put(char)@plt>:
    4040:	ff 25 c2 df 02 00    	jmp    *0x2dfc2(%rip)        # 32008 <std::ostream::put(char)@GLIBCXX_3.4>
    4046:	68 01 00 00 00       	push   $0x1
    404b:	e9 d0 ff ff ff       	jmp    4020 <_init+0x20>

0000000000004050 <printf@plt>:
    4050:	ff 25 ba df 02 00    	jmp    *0x2dfba(%rip)        # 32010 <printf@GLIBC_2.2.5>
    4056:	68 02 00 00 00       	push   $0x2
    405b:	e9 c0 ff ff ff       	jmp    4020 <_init+0x20>

0000000000004060 <std::basic_filebuf<char, std::char_traits<char> >::close()@plt>:
    4060:	ff 25 b2 df 02 00    	jmp    *0x2dfb2(%rip)        # 32018 <std::basic_filebuf<char, std::char_traits<char> >::close()@GLIBCXX_3.4>
    4066:	68 03 00 00 00       	push   $0x3
    406b:	e9 b0 ff ff ff       	jmp    4020 <_init+0x20>

0000000000004070 <std::__basic_file<char>::is_open() const@plt>:
    4070:	ff 25 aa df 02 00    	jmp    *0x2dfaa(%rip)        # 32020 <std::__basic_file<char>::is_open() const@GLIBCXX_3.4>
    4076:	68 04 00 00 00       	push   $0x4
    407b:	e9 a0 ff ff ff       	jmp    4020 <_init+0x20>

0000000000004080 <std::__cxx11::basic_string<char, std::char_traits<char>, std::allocator<char> >::insert(unsigned long, char const*)@plt>:
    4080:	ff 25 a2 df 02 00    	jmp    *0x2dfa2(%rip)        # 32028 <std::__cxx11::basic_string<char, std::char_traits<char>, std::allocator<char> >::insert(unsigned long, char const*)@GLIBCXX_3.4.21>
    4086:	68 05 00 00 00       	push   $0x5
    408b:	e9 90 ff ff ff       	jmp    4020 <_init+0x20>

0000000000004090 <std::basic_ifstream<char, std::char_traits<char> >::~basic_ifstream()@plt>:
    4090:	ff 25 9a df 02 00    	jmp    *0x2df9a(%rip)        # 32030 <std::basic_ifstream<char, std::char_traits<char> >::~basic_ifstream()@GLIBCXX_3.4>
    4096:	68 06 00 00 00       	push   $0x6
    409b:	e9 80 ff ff ff       	jmp    4020 <_init+0x20>

00000000000040a0 <std::terminate()@plt>:
    40a0:	ff 25 92 df 02 00    	jmp    *0x2df92(%rip)        # 32038 <std::terminate()@GLIBCXX_3.4>
    40a6:	68 07 00 00 00       	push   $0x7
    40ab:	e9 70 ff ff ff       	jmp    4020 <_init+0x20>

00000000000040b0 <std::__cxx11::basic_string<char, std::char_traits<char>, std::allocator<char> >::compare(char const*) const@plt>:
    40b0:	ff 25 8a df 02 00    	jmp    *0x2df8a(%rip)        # 32040 <std::__cxx11::basic_string<char, std::char_traits<char>, std::allocator<char> >::compare(char const*) const@GLIBCXX_3.4.21>
    40b6:	68 08 00 00 00       	push   $0x8
    40bb:	e9 60 ff ff ff       	jmp    4020 <_init+0x20>

00000000000040c0 <std::ios_base::ios_base()@plt>:
    40c0:	ff 25 82 df 02 00    	jmp    *0x2df82(%rip)        # 32048 <std::ios_base::ios_base()@GLIBCXX_3.4>
    40c6:	68 09 00 00 00       	push   $0x9
    40cb:	e9 50 ff ff ff       	jmp    4020 <_init+0x20>

00000000000040d0 <std::__cxx11::basic_string<char, std::char_traits<char>, std::allocator<char> >::_M_append(char const*, unsigned long)@plt>:
    40d0:	ff 25 7a df 02 00    	jmp    *0x2df7a(%rip)        # 32050 <std::__cxx11::basic_string<char, std::char_traits<char>, std::allocator<char> >::_M_append(char const*, unsigned long)@GLIBCXX_3.4.21>
    40d6:	68 0a 00 00 00       	push   $0xa
    40db:	e9 40 ff ff ff       	jmp    4020 <_init+0x20>

00000000000040e0 <std::ios_base::~ios_base()@plt>:
    40e0:	ff 25 72 df 02 00    	jmp    *0x2df72(%rip)        # 32058 <std::ios_base::~ios_base()@GLIBCXX_3.4>
    40e6:	68 0b 00 00 00       	push   $0xb
    40eb:	e9 30 ff ff ff       	jmp    4020 <_init+0x20>

00000000000040f0 <std::__throw_bad_alloc()@plt>:
    40f0:	ff 25 6a df 02 00    	jmp    *0x2df6a(%rip)        # 32060 <std::__throw_bad_alloc()@GLIBCXX_3.4>
    40f6:	68 0c 00 00 00       	push   $0xc
    40fb:	e9 20 ff ff ff       	jmp    4020 <_init+0x20>

0000000000004100 <std::runtime_error::runtime_error(char const*)@plt>:
    4100:	ff 25 62 df 02 00    	jmp    *0x2df62(%rip)        # 32068 <std::runtime_error::runtime_error(char const*)@GLIBCXX_3.4.21>
    4106:	68 0d 00 00 00       	push   $0xd
    410b:	e9 10 ff ff ff       	jmp    4020 <_init+0x20>

0000000000004110 <__cxa_begin_catch@plt>:
    4110:	ff 25 5a df 02 00    	jmp    *0x2df5a(%rip)        # 32070 <__cxa_begin_catch@CXXABI_1.3>
    4116:	68 0e 00 00 00       	push   $0xe
    411b:	e9 00 ff ff ff       	jmp    4020 <_init+0x20>

0000000000004120 <strlen@plt>:
    4120:	ff 25 52 df 02 00    	jmp    *0x2df52(%rip)        # 32078 <strlen@GLIBC_2.2.5>
    4126:	68 0f 00 00 00       	push   $0xf
    412b:	e9 f0 fe ff ff       	jmp    4020 <_init+0x20>

0000000000004130 <std::thread::_State::~_State()@plt>:
    4130:	ff 25 4a df 02 00    	jmp    *0x2df4a(%rip)        # 32080 <std::thread::_State::~_State()@GLIBCXX_3.4.22>
    4136:	68 10 00 00 00       	push   $0x10
    413b:	e9 e0 fe ff ff       	jmp    4020 <_init+0x20>

0000000000004140 <std::basic_ostream<char, std::char_traits<char> >& std::endl<char, std::char_traits<char> >(std::basic_ostream<char, std::char_traits<char> >&)@plt>:
    4140:	ff 25 42 df 02 00    	jmp    *0x2df42(%rip)        # 32088 <std::basic_ostream<char, std::char_traits<char> >& std::endl<char, std::char_traits<char> >(std::basic_ostream<char, std::char_traits<char> >&)@GLIBCXX_3.4>
    4146:	68 11 00 00 00       	push   $0x11
    414b:	e9 d0 fe ff ff       	jmp    4020 <_init+0x20>

0000000000004150 <__cxa_allocate_exception@plt>:
    4150:	ff 25 3a df 02 00    	jmp    *0x2df3a(%rip)        # 32090 <__cxa_allocate_exception@CXXABI_1.3>
    4156:	68 12 00 00 00       	push   $0x12
    415b:	e9 c0 fe ff ff       	jmp    4020 <_init+0x20>

0000000000004160 <std::__throw_length_error(char const*)@plt>:
    4160:	ff 25 32 df 02 00    	jmp    *0x2df32(%rip)        # 32098 <std::__throw_length_error(char const*)@GLIBCXX_3.4>
    4166:	68 13 00 00 00       	push   $0x13
    416b:	e9 b0 fe ff ff       	jmp    4020 <_init+0x20>

0000000000004170 <std::__cxx11::basic_string<char, std::char_traits<char>, std::allocator<char> >::_M_assign(std::__cxx11::basic_string<char, std::char_traits<char>, std::allocator<char> > const&)@plt>:
    4170:	ff 25 2a df 02 00    	jmp    *0x2df2a(%rip)        # 320a0 <std::__cxx11::basic_string<char, std::char_traits<char>, std::allocator<char> >::_M_assign(std::__cxx11::basic_string<char, std::char_traits<char>, std::allocator<char> > const&)@GLIBCXX_3.4.21>
    4176:	68 14 00 00 00       	push   $0x14
    417b:	e9 a0 fe ff ff       	jmp    4020 <_init+0x20>

0000000000004180 <memset@plt>:
    4180:	ff 25 22 df 02 00    	jmp    *0x2df22(%rip)        # 320a8 <memset@GLIBC_2.2.5>
    4186:	68 15 00 00 00       	push   $0x15
    418b:	e9 90 fe ff ff       	jmp    4020 <_init+0x20>

0000000000004190 <std::__cxx11::basic_string<char, std::char_traits<char>, std::allocator<char> >::basic_string(std::__cxx11::basic_string<char, std::char_traits<char>, std::allocator<char> >&&)@plt>:
    4190:	ff 25 1a df 02 00    	jmp    *0x2df1a(%rip)        # 320b0 <std::__cxx11::basic_string<char, std::char_traits<char>, std::allocator<char> >::basic_string(std::__cxx11::basic_string<char, std::char_traits<char>, std::allocator<char> >&&)@GLIBCXX_3.4.21>
    4196:	68 16 00 00 00       	push   $0x16
    419b:	e9 80 fe ff ff       	jmp    4020 <_init+0x20>

00000000000041a0 <__assert_fail@plt>:
    41a0:	ff 25 12 df 02 00    	jmp    *0x2df12(%rip)        # 320b8 <__assert_fail@GLIBC_2.2.5>
    41a6:	68 17 00 00 00       	push   $0x17
    41ab:	e9 70 fe ff ff       	jmp    4020 <_init+0x20>

00000000000041b0 <std::ostream& std::ostream::_M_insert<unsigned long>(unsigned long)@plt>:
    41b0:	ff 25 0a df 02 00    	jmp    *0x2df0a(%rip)        # 320c0 <std::ostream& std::ostream::_M_insert<unsigned long>(unsigned long)@GLIBCXX_3.4.9>
    41b6:	68 18 00 00 00       	push   $0x18
    41bb:	e9 60 fe ff ff       	jmp    4020 <_init+0x20>

00000000000041c0 <std::ostream::flush()@plt>:
    41c0:	ff 25 02 df 02 00    	jmp    *0x2df02(%rip)        # 320c8 <std::ostream::flush()@GLIBCXX_3.4>
    41c6:	68 19 00 00 00       	push   $0x19
    41cb:	e9 50 fe ff ff       	jmp    4020 <_init+0x20>

00000000000041d0 <std::__throw_logic_error(char const*)@plt>:
    41d0:	ff 25 fa de 02 00    	jmp    *0x2defa(%rip)        # 320d0 <std::__throw_logic_error(char const*)@GLIBCXX_3.4>
    41d6:	68 1a 00 00 00       	push   $0x1a
    41db:	e9 40 fe ff ff       	jmp    4020 <_init+0x20>

00000000000041e0 <__cxa_free_exception@plt>:
    41e0:	ff 25 f2 de 02 00    	jmp    *0x2def2(%rip)        # 320d8 <__cxa_free_exception@CXXABI_1.3>
    41e6:	68 1b 00 00 00       	push   $0x1b
    41eb:	e9 30 fe ff ff       	jmp    4020 <_init+0x20>

00000000000041f0 <std::__cxx11::basic_stringstream<char, std::char_traits<char>, std::allocator<char> >::~basic_stringstream()@plt>:
    41f0:	ff 25 ea de 02 00    	jmp    *0x2deea(%rip)        # 320e0 <std::__cxx11::basic_stringstream<char, std::char_traits<char>, std::allocator<char> >::~basic_stringstream()@GLIBCXX_3.4.21>
    41f6:	68 1c 00 00 00       	push   $0x1c
    41fb:	e9 20 fe ff ff       	jmp    4020 <_init+0x20>

0000000000004200 <std::__throw_bad_array_new_length()@plt>:
    4200:	ff 25 e2 de 02 00    	jmp    *0x2dee2(%rip)        # 320e8 <std::__throw_bad_array_new_length()@GLIBCXX_3.4.29>
    4206:	68 1d 00 00 00       	push   $0x1d
    420b:	e9 10 fe ff ff       	jmp    4020 <_init+0x20>

0000000000004210 <memcpy@plt>:
    4210:	ff 25 da de 02 00    	jmp    *0x2deda(%rip)        # 320f0 <memcpy@GLIBC_2.14>
    4216:	68 1e 00 00 00       	push   $0x1e
    421b:	e9 00 fe ff ff       	jmp    4020 <_init+0x20>

0000000000004220 <__cxa_atexit@plt>:
    4220:	ff 25 d2 de 02 00    	jmp    *0x2ded2(%rip)        # 320f8 <__cxa_atexit@GLIBC_2.2.5>
    4226:	68 1f 00 00 00       	push   $0x1f
    422b:	e9 f0 fd ff ff       	jmp    4020 <_init+0x20>

0000000000004230 <std::basic_filebuf<char, std::char_traits<char> >::open(char const*, std::_Ios_Openmode)@plt>:
    4230:	ff 25 ca de 02 00    	jmp    *0x2deca(%rip)        # 32100 <std::basic_filebuf<char, std::char_traits<char> >::open(char const*, std::_Ios_Openmode)@GLIBCXX_3.4>
    4236:	68 20 00 00 00       	push   $0x20
    423b:	e9 e0 fd ff ff       	jmp    4020 <_init+0x20>

0000000000004240 <std::thread::_M_start_thread(std::unique_ptr<std::thread::_State, std::default_delete<std::thread::_State> >, void (*)())@plt>:
    4240:	ff 25 c2 de 02 00    	jmp    *0x2dec2(%rip)        # 32108 <std::thread::_M_start_thread(std::unique_ptr<std::thread::_State, std::default_delete<std::thread::_State> >, void (*)())@GLIBCXX_3.4.22>
    4246:	68 21 00 00 00       	push   $0x21
    424b:	e9 d0 fd ff ff       	jmp    4020 <_init+0x20>

0000000000004250 <operator delete(void*)@plt>:
    4250:	ff 25 ba de 02 00    	jmp    *0x2deba(%rip)        # 32110 <operator delete(void*)@GLIBCXX_3.4>
    4256:	68 22 00 00 00       	push   $0x22
    425b:	e9 c0 fd ff ff       	jmp    4020 <_init+0x20>

0000000000004260 <std::basic_ostream<char, std::char_traits<char> >& std::operator<< <std::char_traits<char> >(std::basic_ostream<char, std::char_traits<char> >&, char const*)@plt>:
    4260:	ff 25 b2 de 02 00    	jmp    *0x2deb2(%rip)        # 32118 <std::basic_ostream<char, std::char_traits<char> >& std::operator<< <std::char_traits<char> >(std::basic_ostream<char, std::char_traits<char> >&, char const*)@GLIBCXX_3.4>
    4266:	68 23 00 00 00       	push   $0x23
    426b:	e9 b0 fd ff ff       	jmp    4020 <_init+0x20>

0000000000004270 <operator new(unsigned long)@plt>:
    4270:	ff 25 aa de 02 00    	jmp    *0x2deaa(%rip)        # 32120 <operator new(unsigned long)@GLIBCXX_3.4>
    4276:	68 24 00 00 00       	push   $0x24
    427b:	e9 a0 fd ff ff       	jmp    4020 <_init+0x20>

0000000000004280 <std::basic_filebuf<char, std::char_traits<char> >::basic_filebuf()@plt>:
    4280:	ff 25 a2 de 02 00    	jmp    *0x2dea2(%rip)        # 32128 <std::basic_filebuf<char, std::char_traits<char> >::basic_filebuf()@GLIBCXX_3.4>
    4286:	68 25 00 00 00       	push   $0x25
    428b:	e9 90 fd ff ff       	jmp    4020 <_init+0x20>

0000000000004290 <__dynamic_cast@plt>:
    4290:	ff 25 9a de 02 00    	jmp    *0x2de9a(%rip)        # 32130 <__dynamic_cast@CXXABI_1.3>
    4296:	68 26 00 00 00       	push   $0x26
    429b:	e9 80 fd ff ff       	jmp    4020 <_init+0x20>

00000000000042a0 <std::basic_ostream<char, std::char_traits<char> >& std::__ostream_insert<char, std::char_traits<char> >(std::basic_ostream<char, std::char_traits<char> >&, char const*, long)@plt>:
    42a0:	ff 25 92 de 02 00    	jmp    *0x2de92(%rip)        # 32138 <std::basic_ostream<char, std::char_traits<char> >& std::__ostream_insert<char, std::char_traits<char> >(std::basic_ostream<char, std::char_traits<char> >&, char const*, long)@GLIBCXX_3.4.9>
    42a6:	68 27 00 00 00       	push   $0x27
    42ab:	e9 70 fd ff ff       	jmp    4020 <_init+0x20>

00000000000042b0 <std::ctype<char>::_M_widen_init() const@plt>:
    42b0:	ff 25 8a de 02 00    	jmp    *0x2de8a(%rip)        # 32140 <std::ctype<char>::_M_widen_init() const@GLIBCXX_3.4.11>
    42b6:	68 28 00 00 00       	push   $0x28
    42bb:	e9 60 fd ff ff       	jmp    4020 <_init+0x20>

00000000000042c0 <std::__cxx11::basic_string<char, std::char_traits<char>, std::allocator<char> >::_M_construct(unsigned long, char)@plt>:
    42c0:	ff 25 82 de 02 00    	jmp    *0x2de82(%rip)        # 32148 <std::__cxx11::basic_string<char, std::char_traits<char>, std::allocator<char> >::_M_construct(unsigned long, char)@GLIBCXX_3.4.21>
    42c6:	68 29 00 00 00       	push   $0x29
    42cb:	e9 50 fd ff ff       	jmp    4020 <_init+0x20>

00000000000042d0 <std::istream::read(char*, long)@plt>:
    42d0:	ff 25 7a de 02 00    	jmp    *0x2de7a(%rip)        # 32150 <std::istream::read(char*, long)@GLIBCXX_3.4>
    42d6:	68 2a 00 00 00       	push   $0x2a
    42db:	e9 40 fd ff ff       	jmp    4020 <_init+0x20>

00000000000042e0 <std::__throw_bad_cast()@plt>:
    42e0:	ff 25 72 de 02 00    	jmp    *0x2de72(%rip)        # 32158 <std::__throw_bad_cast()@GLIBCXX_3.4>
    42e6:	68 2b 00 00 00       	push   $0x2b
    42eb:	e9 30 fd ff ff       	jmp    4020 <_init+0x20>

00000000000042f0 <operator delete[](void*)@plt>:
    42f0:	ff 25 6a de 02 00    	jmp    *0x2de6a(%rip)        # 32160 <operator delete[](void*)@GLIBCXX_3.4>
    42f6:	68 2c 00 00 00       	push   $0x2c
    42fb:	e9 20 fd ff ff       	jmp    4020 <_init+0x20>

0000000000004300 <std::chrono::_V2::steady_clock::now()@plt>:
    4300:	ff 25 62 de 02 00    	jmp    *0x2de62(%rip)        # 32168 <std::chrono::_V2::steady_clock::now()@GLIBCXX_3.4.19>
    4306:	68 2d 00 00 00       	push   $0x2d
    430b:	e9 10 fd ff ff       	jmp    4020 <_init+0x20>

0000000000004310 <std::basic_ios<char, std::char_traits<char> >::init(std::basic_streambuf<char, std::char_traits<char> >*)@plt>:
    4310:	ff 25 5a de 02 00    	jmp    *0x2de5a(%rip)        # 32170 <std::basic_ios<char, std::char_traits<char> >::init(std::basic_streambuf<char, std::char_traits<char> >*)@GLIBCXX_3.4>
    4316:	68 2e 00 00 00       	push   $0x2e
    431b:	e9 00 fd ff ff       	jmp    4020 <_init+0x20>

0000000000004320 <putchar@plt>:
    4320:	ff 25 52 de 02 00    	jmp    *0x2de52(%rip)        # 32178 <putchar@GLIBC_2.2.5>
    4326:	68 2f 00 00 00       	push   $0x2f
    432b:	e9 f0 fc ff ff       	jmp    4020 <_init+0x20>

0000000000004330 <std::locale::~locale()@plt>:
    4330:	ff 25 4a de 02 00    	jmp    *0x2de4a(%rip)        # 32180 <std::locale::~locale()@GLIBCXX_3.4>
    4336:	68 30 00 00 00       	push   $0x30
    433b:	e9 e0 fc ff ff       	jmp    4020 <_init+0x20>

0000000000004340 <__cxa_throw_bad_array_new_length@plt>:
    4340:	ff 25 42 de 02 00    	jmp    *0x2de42(%rip)        # 32188 <__cxa_throw_bad_array_new_length@CXXABI_1.3.8>
    4346:	68 31 00 00 00       	push   $0x31
    434b:	e9 d0 fc ff ff       	jmp    4020 <_init+0x20>

0000000000004350 <__cxa_rethrow@plt>:
    4350:	ff 25 3a de 02 00    	jmp    *0x2de3a(%rip)        # 32190 <__cxa_rethrow@CXXABI_1.3>
    4356:	68 32 00 00 00       	push   $0x32
    435b:	e9 c0 fc ff ff       	jmp    4020 <_init+0x20>

0000000000004360 <std::basic_ofstream<char, std::char_traits<char> >::~basic_ofstream()@plt>:
    4360:	ff 25 32 de 02 00    	jmp    *0x2de32(%rip)        # 32198 <std::basic_ofstream<char, std::char_traits<char> >::~basic_ofstream()@GLIBCXX_3.4>
    4366:	68 33 00 00 00       	push   $0x33
    436b:	e9 b0 fc ff ff       	jmp    4020 <_init+0x20>

0000000000004370 <std::ios_base::Init::Init()@plt>:
    4370:	ff 25 2a de 02 00    	jmp    *0x2de2a(%rip)        # 321a0 <std::ios_base::Init::Init()@GLIBCXX_3.4>
    4376:	68 34 00 00 00       	push   $0x34
    437b:	e9 a0 fc ff ff       	jmp    4020 <_init+0x20>

0000000000004380 <puts@plt>:
    4380:	ff 25 22 de 02 00    	jmp    *0x2de22(%rip)        # 321a8 <puts@GLIBC_2.2.5>
    4386:	68 35 00 00 00       	push   $0x35
    438b:	e9 90 fc ff ff       	jmp    4020 <_init+0x20>

0000000000004390 <std::__cxx11::basic_string<char, std::char_traits<char>, std::allocator<char> >::_M_replace(unsigned long, unsigned long, char const*, unsigned long)@plt>:
    4390:	ff 25 1a de 02 00    	jmp    *0x2de1a(%rip)        # 321b0 <std::__cxx11::basic_string<char, std::char_traits<char>, std::allocator<char> >::_M_replace(unsigned long, unsigned long, char const*, unsigned long)@GLIBCXX_3.4.21>
    4396:	68 36 00 00 00       	push   $0x36
    439b:	e9 80 fc ff ff       	jmp    4020 <_init+0x20>

00000000000043a0 <std::basic_filebuf<char, std::char_traits<char> >::~basic_filebuf()@plt>:
    43a0:	ff 25 12 de 02 00    	jmp    *0x2de12(%rip)        # 321b8 <std::basic_filebuf<char, std::char_traits<char> >::~basic_filebuf()@GLIBCXX_3.4>
    43a6:	68 37 00 00 00       	push   $0x37
    43ab:	e9 70 fc ff ff       	jmp    4020 <_init+0x20>

00000000000043b0 <std::__cxx11::basic_string<char, std::char_traits<char>, std::allocator<char> >::reserve(unsigned long)@plt>:
    43b0:	ff 25 0a de 02 00    	jmp    *0x2de0a(%rip)        # 321c0 <std::__cxx11::basic_string<char, std::char_traits<char>, std::allocator<char> >::reserve(unsigned long)@GLIBCXX_3.4.21>
    43b6:	68 38 00 00 00       	push   $0x38
    43bb:	e9 60 fc ff ff       	jmp    4020 <_init+0x20>

00000000000043c0 <std::ostream& std::ostream::_M_insert<double>(double)@plt>:
    43c0:	ff 25 02 de 02 00    	jmp    *0x2de02(%rip)        # 321c8 <std::ostream& std::ostream::_M_insert<double>(double)@GLIBCXX_3.4.9>
    43c6:	68 39 00 00 00       	push   $0x39
    43cb:	e9 50 fc ff ff       	jmp    4020 <_init+0x20>

00000000000043d0 <std::runtime_error::runtime_error(std::__cxx11::basic_string<char, std::char_traits<char>, std::allocator<char> > const&)@plt>:
    43d0:	ff 25 fa dd 02 00    	jmp    *0x2ddfa(%rip)        # 321d0 <std::runtime_error::runtime_error(std::__cxx11::basic_string<char, std::char_traits<char>, std::allocator<char> > const&)@GLIBCXX_3.4.21>
    43d6:	68 3a 00 00 00       	push   $0x3a
    43db:	e9 40 fc ff ff       	jmp    4020 <_init+0x20>

00000000000043e0 <memmove@plt>:
    43e0:	ff 25 f2 dd 02 00    	jmp    *0x2ddf2(%rip)        # 321d8 <memmove@GLIBC_2.2.5>
    43e6:	68 3b 00 00 00       	push   $0x3b
    43eb:	e9 30 fc ff ff       	jmp    4020 <_init+0x20>

00000000000043f0 <__cxa_end_catch@plt>:
    43f0:	ff 25 ea dd 02 00    	jmp    *0x2ddea(%rip)        # 321e0 <__cxa_end_catch@CXXABI_1.3>
    43f6:	68 3c 00 00 00       	push   $0x3c
    43fb:	e9 20 fc ff ff       	jmp    4020 <_init+0x20>

0000000000004400 <std::ostream& std::ostream::_M_insert<bool>(bool)@plt>:
    4400:	ff 25 e2 dd 02 00    	jmp    *0x2dde2(%rip)        # 321e8 <std::ostream& std::ostream::_M_insert<bool>(bool)@GLIBCXX_3.4.9>
    4406:	68 3d 00 00 00       	push   $0x3d
    440b:	e9 10 fc ff ff       	jmp    4020 <_init+0x20>

0000000000004410 <expf@plt>:
    4410:	ff 25 da dd 02 00    	jmp    *0x2ddda(%rip)        # 321f0 <expf@GLIBC_2.27>
    4416:	68 3e 00 00 00       	push   $0x3e
    441b:	e9 00 fc ff ff       	jmp    4020 <_init+0x20>

0000000000004420 <std::basic_ios<char, std::char_traits<char> >::clear(std::_Ios_Iostate)@plt>:
    4420:	ff 25 d2 dd 02 00    	jmp    *0x2ddd2(%rip)        # 321f8 <std::basic_ios<char, std::char_traits<char> >::clear(std::_Ios_Iostate)@GLIBCXX_3.4>
    4426:	68 3f 00 00 00       	push   $0x3f
    442b:	e9 f0 fb ff ff       	jmp    4020 <_init+0x20>

0000000000004430 <std::thread::join()@plt>:
    4430:	ff 25 ca dd 02 00    	jmp    *0x2ddca(%rip)        # 32200 <std::thread::join()@GLIBCXX_3.4.11>
    4436:	68 40 00 00 00       	push   $0x40
    443b:	e9 e0 fb ff ff       	jmp    4020 <_init+0x20>

0000000000004440 <__cxa_throw@plt>:
    4440:	ff 25 c2 dd 02 00    	jmp    *0x2ddc2(%rip)        # 32208 <__cxa_throw@CXXABI_1.3>
    4446:	68 41 00 00 00       	push   $0x41
    444b:	e9 d0 fb ff ff       	jmp    4020 <_init+0x20>

0000000000004450 <std::ostream::operator<<(int)@plt>:
    4450:	ff 25 ba dd 02 00    	jmp    *0x2ddba(%rip)        # 32210 <std::ostream::operator<<(int)@GLIBCXX_3.4>
    4456:	68 42 00 00 00       	push   $0x42
    445b:	e9 c0 fb ff ff       	jmp    4020 <_init+0x20>

0000000000004460 <_Unwind_Resume@plt>:
    4460:	ff 25 b2 dd 02 00    	jmp    *0x2ddb2(%rip)        # 32218 <_Unwind_Resume@GCC_3.0>
    4466:	68 43 00 00 00       	push   $0x43
    446b:	e9 b0 fb ff ff       	jmp    4020 <_init+0x20>

0000000000004470 <std::__cxx11::basic_string<char, std::char_traits<char>, std::allocator<char> >::_M_create(unsigned long&, unsigned long)@plt>:
    4470:	ff 25 aa dd 02 00    	jmp    *0x2ddaa(%rip)        # 32220 <std::__cxx11::basic_string<char, std::char_traits<char>, std::allocator<char> >::_M_create(unsigned long&, unsigned long)@GLIBCXX_3.4.21>
    4476:	68 44 00 00 00       	push   $0x44
    447b:	e9 a0 fb ff ff       	jmp    4020 <_init+0x20>

0000000000004480 <std::__basic_file<char>::~__basic_file()@plt>:
    4480:	ff 25 a2 dd 02 00    	jmp    *0x2dda2(%rip)        # 32228 <std::__basic_file<char>::~__basic_file()@GLIBCXX_3.4>
    4486:	68 45 00 00 00       	push   $0x45
    448b:	e9 90 fb ff ff       	jmp    4020 <_init+0x20>

0000000000004490 <__cxa_bad_cast@plt>:
    4490:	ff 25 9a dd 02 00    	jmp    *0x2dd9a(%rip)        # 32230 <__cxa_bad_cast@CXXABI_1.3>
    4496:	68 46 00 00 00       	push   $0x46
    449b:	e9 80 fb ff ff       	jmp    4020 <_init+0x20>

00000000000044a0 <std::__cxx11::basic_string<char, std::char_traits<char>, std::allocator<char> >::append(char const*)@plt>:
    44a0:	ff 25 92 dd 02 00    	jmp    *0x2dd92(%rip)        # 32238 <std::__cxx11::basic_string<char, std::char_traits<char>, std::allocator<char> >::append(char const*)@GLIBCXX_3.4.21>
    44a6:	68 47 00 00 00       	push   $0x47
    44ab:	e9 70 fb ff ff       	jmp    4020 <_init+0x20>

00000000000044b0 <std::locale::locale()@plt>:
    44b0:	ff 25 8a dd 02 00    	jmp    *0x2dd8a(%rip)        # 32240 <std::locale::locale()@GLIBCXX_3.4>
    44b6:	68 48 00 00 00       	push   $0x48
    44bb:	e9 60 fb ff ff       	jmp    4020 <_init+0x20>

Disassembly of section .plt.got:

00000000000044c0 <__cxa_finalize@plt>:
    44c0:	ff 25 ca da 02 00    	jmp    *0x2daca(%rip)        # 31f90 <__cxa_finalize@GLIBC_2.2.5>
    44c6:	66 90                	xchg   %ax,%ax

Disassembly of section .text:

00000000000044d0 <ML::ConvolutionalLayer::computeThreaded(ML::LayerData const&, unsigned long) const [clone .cold]>:
    44d0:	48 8b bc 24 98 00 00 	mov    0x98(%rsp),%rdi
    44d7:	00 
    44d8:	48 85 ff             	test   %rdi,%rdi
    44db:	74 23                	je     4500 <ML::ConvolutionalLayer::computeThreaded(ML::LayerData const&, unsigned long) const [clone .cold]+0x30>
    44dd:	48 8b 07             	mov    (%rdi),%rax
    44e0:	c5 f8 77             	vzeroupper
    44e3:	ff 50 08             	call   *0x8(%rax)
    44e6:	48 8b 44 24 28       	mov    0x28(%rsp),%rax
    44eb:	48 39 c3             	cmp    %rax,%rbx
    44ee:	74 6b                	je     455b <ML::ConvolutionalLayer::computeThreaded(ML::LayerData const&, unsigned long) const [clone .cold]+0x8b>
    44f0:	48 83 38 00          	cmpq   $0x0,(%rax)
    44f4:	0f 85 77 6f 00 00    	jne    b471 <ML::ConvolutionalLayer::computeThreaded(ML::LayerData const&, unsigned long) const+0x491>
    44fa:	48 83 c0 08          	add    $0x8,%rax
    44fe:	eb eb                	jmp    44eb <ML::ConvolutionalLayer::computeThreaded(ML::LayerData const&, unsigned long) const [clone .cold]+0x1b>
    4500:	c5 f8 77             	vzeroupper
    4503:	eb e1                	jmp    44e6 <ML::ConvolutionalLayer::computeThreaded(ML::LayerData const&, unsigned long) const [clone .cold]+0x16>
    4505:	48 8b bc 24 98 00 00 	mov    0x98(%rsp),%rdi
    450c:	00 
    450d:	48 85 ff             	test   %rdi,%rdi
    4510:	75 3e                	jne    4550 <ML::ConvolutionalLayer::computeThreaded(ML::LayerData const&, unsigned long) const [clone .cold]+0x80>
    4512:	c5 f8 77             	vzeroupper
    4515:	4c 89 e7             	mov    %r12,%rdi
    4518:	e8 f3 fb ff ff       	call   4110 <__cxa_begin_catch@plt>
    451d:	48 83 7c 24 20 00    	cmpq   $0x0,0x20(%rsp)
    4523:	74 0f                	je     4534 <ML::ConvolutionalLayer::computeThreaded(ML::LayerData const&, unsigned long) const [clone .cold]+0x64>
    4525:	48 8b 7c 24 20       	mov    0x20(%rsp),%rdi
    452a:	e8 21 fd ff ff       	call   4250 <operator delete(void*)@plt>
    452f:	e8 1c fe ff ff       	call   4350 <__cxa_rethrow@plt>
    4534:	48 8b 04 24          	mov    (%rsp),%rax
    4538:	48 83 38 00          	cmpq   $0x0,(%rax)
    453c:	74 f1                	je     452f <ML::ConvolutionalLayer::computeThreaded(ML::LayerData const&, unsigned long) const [clone .cold]+0x5f>
    453e:	e9 2e 6f 00 00       	jmp    b471 <ML::ConvolutionalLayer::computeThreaded(ML::LayerData const&, unsigned long) const+0x491>
    4543:	49 89 c4             	mov    %rax,%r12
    4546:	c5 f8 77             	vzeroupper
    4549:	e8 a2 fe ff ff       	call   43f0 <__cxa_end_catch@plt>
    454e:	eb 96                	jmp    44e6 <ML::ConvolutionalLayer::computeThreaded(ML::LayerData const&, unsigned long) const [clone .cold]+0x16>
    4550:	48 8b 07             	mov    (%rdi),%rax
    4553:	c5 f8 77             	vzeroupper
    4556:	ff 50 08             	call   *0x8(%rax)
    4559:	eb ba                	jmp    4515 <ML::ConvolutionalLayer::computeThreaded(ML::LayerData const&, unsigned long) const [clone .cold]+0x45>
    455b:	48 83 7c 24 28 00    	cmpq   $0x0,0x28(%rsp)
    4561:	74 0a                	je     456d <ML::ConvolutionalLayer::computeThreaded(ML::LayerData const&, unsigned long) const [clone .cold]+0x9d>
    4563:	48 8b 7c 24 28       	mov    0x28(%rsp),%rdi
    4568:	e8 e3 fc ff ff       	call   4250 <operator delete(void*)@plt>
    456d:	4c 89 e7             	mov    %r12,%rdi
    4570:	e8 eb fe ff ff       	call   4460 <_Unwind_Resume@plt>
    4575:	90                   	nop

0000000000004576 <ML::ConvolutionalLayer::computeNaive(ML::LayerData const&, std::__cxx11::basic_string<char, std::char_traits<char>, std::allocator<char> > const&) const [clone .cold]>:
    4576:	4c 89 e7             	mov    %r12,%rdi
    4579:	c5 f8 77             	vzeroupper
    457c:	e8 df fd ff ff       	call   4360 <std::basic_ofstream<char, std::char_traits<char> >::~basic_ofstream()@plt>
    4581:	48 8b bc 24 e0 00 00 	mov    0xe0(%rsp),%rdi
    4588:	00 
    4589:	e8 d2 fd ff ff       	call   4360 <std::basic_ofstream<char, std::char_traits<char> >::~basic_ofstream()@plt>
    458e:	48 8b bc 24 e8 00 00 	mov    0xe8(%rsp),%rdi
    4595:	00 
    4596:	e8 c5 fd ff ff       	call   4360 <std::basic_ofstream<char, std::char_traits<char> >::~basic_ofstream()@plt>
    459b:	48 8b bc 24 20 01 00 	mov    0x120(%rsp),%rdi
    45a2:	00 
    45a3:	48 85 ff             	test   %rdi,%rdi
    45a6:	74 05                	je     45ad <ML::ConvolutionalLayer::computeNaive(ML::LayerData const&, std::__cxx11::basic_string<char, std::char_traits<char>, std::allocator<char> > const&) const [clone .cold]+0x37>
    45a8:	e8 a3 fc ff ff       	call   4250 <operator delete(void*)@plt>
    45ad:	48 8b bc 24 00 01 00 	mov    0x100(%rsp),%rdi
    45b4:	00 
    45b5:	48 85 ff             	test   %rdi,%rdi
    45b8:	74 05                	je     45bf <ML::ConvolutionalLayer::computeNaive(ML::LayerData const&, std::__cxx11::basic_string<char, std::char_traits<char>, std::allocator<char> > const&) const [clone .cold]+0x49>
    45ba:	e8 91 fc ff ff       	call   4250 <operator delete(void*)@plt>
    45bf:	48 83 bc 24 b0 00 00 	cmpq   $0x0,0xb0(%rsp)
    45c6:	00 00 
    45c8:	74 0d                	je     45d7 <ML::ConvolutionalLayer::computeNaive(ML::LayerData const&, std::__cxx11::basic_string<char, std::char_traits<char>, std::allocator<char> > const&) const [clone .cold]+0x61>
    45ca:	48 8b bc 24 b0 00 00 	mov    0xb0(%rsp),%rdi
    45d1:	00 
    45d2:	e8 79 fc ff ff       	call   4250 <operator delete(void*)@plt>
    45d7:	48 89 df             	mov    %rbx,%rdi
    45da:	e8 81 fe ff ff       	call   4460 <_Unwind_Resume@plt>
    45df:	48 8b bc 24 d8 00 00 	mov    0xd8(%rsp),%rdi
    45e6:	00 
    45e7:	c5 f8 77             	vzeroupper
    45ea:	e8 b1 fd ff ff       	call   43a0 <std::basic_filebuf<char, std::char_traits<char> >::~basic_filebuf()@plt>
    45ef:	48 8b 43 e8          	mov    -0x18(%rbx),%rax
    45f3:	48 8b 3d 06 d4 02 00 	mov    0x2d406(%rip),%rdi        # 31a00 <VTT for std::basic_ofstream<char, std::char_traits<char> >@GLIBCXX_3.4+0x10>
    45fa:	48 89 9c 24 60 01 00 	mov    %rbx,0x160(%rsp)
    4601:	00 
    4602:	4c 89 e3             	mov    %r12,%rbx
    4605:	48 89 bc 04 60 01 00 	mov    %rdi,0x160(%rsp,%rax,1)
    460c:	00 
    460d:	48 8b bc 24 c8 00 00 	mov    0xc8(%rsp),%rdi
    4614:	00 
    4615:	48 8d 05 f4 d2 02 00 	lea    0x2d2f4(%rip),%rax        # 31910 <vtable for std::basic_ios<char, std::char_traits<char> >@GLIBCXX_3.4+0x10>
    461c:	48 89 84 24 58 02 00 	mov    %rax,0x258(%rsp)
    4623:	00 
    4624:	e8 b7 fa ff ff       	call   40e0 <std::ios_base::~ios_base()@plt>
    4629:	48 8b bc 24 60 05 00 	mov    0x560(%rsp),%rdi
    4630:	00 
    4631:	48 8b 84 24 f0 00 00 	mov    0xf0(%rsp),%rax
    4638:	00 
    4639:	48 39 c7             	cmp    %rax,%rdi
    463c:	0f 84 59 ff ff ff    	je     459b <ML::ConvolutionalLayer::computeNaive(ML::LayerData const&, std::__cxx11::basic_string<char, std::char_traits<char>, std::allocator<char> > const&) const [clone .cold]+0x25>
    4642:	e8 09 fc ff ff       	call   4250 <operator delete(void*)@plt>
    4647:	e9 4f ff ff ff       	jmp    459b <ML::ConvolutionalLayer::computeNaive(ML::LayerData const&, std::__cxx11::basic_string<char, std::char_traits<char>, std::allocator<char> > const&) const [clone .cold]+0x25>
    464c:	48 8b bc 24 60 05 00 	mov    0x560(%rsp),%rdi
    4653:	00 
    4654:	48 8b 84 24 f0 00 00 	mov    0xf0(%rsp),%rax
    465b:	00 
    465c:	48 39 c7             	cmp    %rax,%rdi
    465f:	74 0d                	je     466e <ML::ConvolutionalLayer::computeNaive(ML::LayerData const&, std::__cxx11::basic_string<char, std::char_traits<char>, std::allocator<char> > const&) const [clone .cold]+0xf8>
    4661:	c5 f8 77             	vzeroupper
    4664:	e8 e7 fb ff ff       	call   4250 <operator delete(void*)@plt>
    4669:	e9 2d ff ff ff       	jmp    459b <ML::ConvolutionalLayer::computeNaive(ML::LayerData const&, std::__cxx11::basic_string<char, std::char_traits<char>, std::allocator<char> > const&) const [clone .cold]+0x25>
    466e:	c5 f8 77             	vzeroupper
    4671:	e9 25 ff ff ff       	jmp    459b <ML::ConvolutionalLayer::computeNaive(ML::LayerData const&, std::__cxx11::basic_string<char, std::char_traits<char>, std::allocator<char> > const&) const [clone .cold]+0x25>
    4676:	c5 f8 77             	vzeroupper
    4679:	e8 92 fa ff ff       	call   4110 <__cxa_begin_catch@plt>
    467e:	e8 6d fd ff ff       	call   43f0 <__cxa_end_catch@plt>
    4683:	e9 1a 7f 00 00       	jmp    c5a2 <ML::ConvolutionalLayer::computeNaive(ML::LayerData const&, std::__cxx11::basic_string<char, std::char_traits<char>, std::allocator<char> > const&) const+0x10f2>
    4688:	c5 f8 77             	vzeroupper
    468b:	e8 80 fa ff ff       	call   4110 <__cxa_begin_catch@plt>
    4690:	e8 5b fd ff ff       	call   43f0 <__cxa_end_catch@plt>
    4695:	e9 1d 80 00 00       	jmp    c6b7 <ML::ConvolutionalLayer::computeNaive(ML::LayerData const&, std::__cxx11::basic_string<char, std::char_traits<char>, std::allocator<char> > const&) const+0x1207>
    469a:	c5 f8 77             	vzeroupper
    469d:	e8 6e fa ff ff       	call   4110 <__cxa_begin_catch@plt>
    46a2:	e8 49 fd ff ff       	call   43f0 <__cxa_end_catch@plt>
    46a7:	e9 84 7f 00 00       	jmp    c630 <ML::ConvolutionalLayer::computeNaive(ML::LayerData const&, std::__cxx11::basic_string<char, std::char_traits<char>, std::allocator<char> > const&) const+0x1180>
    46ac:	4c 89 ff             	mov    %r15,%rdi
    46af:	c5 f8 77             	vzeroupper
    46b2:	e8 e9 fc ff ff       	call   43a0 <std::basic_filebuf<char, std::char_traits<char> >::~basic_filebuf()@plt>
    46b7:	48 8b 43 e8          	mov    -0x18(%rbx),%rax
    46bb:	48 8b 3d 3e d3 02 00 	mov    0x2d33e(%rip),%rdi        # 31a00 <VTT for std::basic_ofstream<char, std::char_traits<char> >@GLIBCXX_3.4+0x10>
    46c2:	48 89 9c 24 60 05 00 	mov    %rbx,0x560(%rsp)
    46c9:	00 
    46ca:	4c 89 e3             	mov    %r12,%rbx
    46cd:	48 89 bc 04 60 05 00 	mov    %rdi,0x560(%rsp,%rax,1)
    46d4:	00 
    46d5:	48 8b bc 24 b8 00 00 	mov    0xb8(%rsp),%rdi
    46dc:	00 
    46dd:	48 8d 05 2c d2 02 00 	lea    0x2d22c(%rip),%rax        # 31910 <vtable for std::basic_ios<char, std::char_traits<char> >@GLIBCXX_3.4+0x10>
    46e4:	48 89 84 24 58 06 00 	mov    %rax,0x658(%rsp)
    46eb:	00 
    46ec:	e8 ef f9 ff ff       	call   40e0 <std::ios_base::~ios_base()@plt>
    46f1:	48 8b bc 24 40 01 00 	mov    0x140(%rsp),%rdi
    46f8:	00 
    46f9:	4c 39 ef             	cmp    %r13,%rdi
    46fc:	0f 84 7f fe ff ff    	je     4581 <ML::ConvolutionalLayer::computeNaive(ML::LayerData const&, std::__cxx11::basic_string<char, std::char_traits<char>, std::allocator<char> > const&) const [clone .cold]+0xb>
    4702:	e8 49 fb ff ff       	call   4250 <operator delete(void*)@plt>
    4707:	e9 75 fe ff ff       	jmp    4581 <ML::ConvolutionalLayer::computeNaive(ML::LayerData const&, std::__cxx11::basic_string<char, std::char_traits<char>, std::allocator<char> > const&) const [clone .cold]+0xb>
    470c:	48 8b bc 24 40 01 00 	mov    0x140(%rsp),%rdi
    4713:	00 
    4714:	4c 39 ef             	cmp    %r13,%rdi
    4717:	74 0d                	je     4726 <ML::ConvolutionalLayer::computeNaive(ML::LayerData const&, std::__cxx11::basic_string<char, std::char_traits<char>, std::allocator<char> > const&) const [clone .cold]+0x1b0>
    4719:	c5 f8 77             	vzeroupper
    471c:	e8 2f fb ff ff       	call   4250 <operator delete(void*)@plt>
    4721:	e9 5b fe ff ff       	jmp    4581 <ML::ConvolutionalLayer::computeNaive(ML::LayerData const&, std::__cxx11::basic_string<char, std::char_traits<char>, std::allocator<char> > const&) const [clone .cold]+0xb>
    4726:	c5 f8 77             	vzeroupper
    4729:	e9 53 fe ff ff       	jmp    4581 <ML::ConvolutionalLayer::computeNaive(ML::LayerData const&, std::__cxx11::basic_string<char, std::char_traits<char>, std::allocator<char> > const&) const [clone .cold]+0xb>
    472e:	48 8b bc 24 60 05 00 	mov    0x560(%rsp),%rdi
    4735:	00 
    4736:	48 8b 84 24 f0 00 00 	mov    0xf0(%rsp),%rax
    473d:	00 
    473e:	48 39 c7             	cmp    %rax,%rdi
    4741:	74 0d                	je     4750 <ML::ConvolutionalLayer::computeNaive(ML::LayerData const&, std::__cxx11::basic_string<char, std::char_traits<char>, std::allocator<char> > const&) const [clone .cold]+0x1da>
    4743:	c5 f8 77             	vzeroupper
    4746:	e8 05 fb ff ff       	call   4250 <operator delete(void*)@plt>
    474b:	e9 3e fe ff ff       	jmp    458e <ML::ConvolutionalLayer::computeNaive(ML::LayerData const&, std::__cxx11::basic_string<char, std::char_traits<char>, std::allocator<char> > const&) const [clone .cold]+0x18>
    4750:	c5 f8 77             	vzeroupper
    4753:	e9 36 fe ff ff       	jmp    458e <ML::ConvolutionalLayer::computeNaive(ML::LayerData const&, std::__cxx11::basic_string<char, std::char_traits<char>, std::allocator<char> > const&) const [clone .cold]+0x18>
    4758:	48 8b bc 24 d0 00 00 	mov    0xd0(%rsp),%rdi
    475f:	00 
    4760:	c5 f8 77             	vzeroupper
    4763:	e8 38 fc ff ff       	call   43a0 <std::basic_filebuf<char, std::char_traits<char> >::~basic_filebuf()@plt>
    4768:	48 8b 43 e8          	mov    -0x18(%rbx),%rax
    476c:	48 8b 3d 8d d2 02 00 	mov    0x2d28d(%rip),%rdi        # 31a00 <VTT for std::basic_ofstream<char, std::char_traits<char> >@GLIBCXX_3.4+0x10>
    4773:	48 89 9c 24 60 03 00 	mov    %rbx,0x360(%rsp)
    477a:	00 
    477b:	4c 89 e3             	mov    %r12,%rbx
    477e:	48 89 bc 04 60 03 00 	mov    %rdi,0x360(%rsp,%rax,1)
    4785:	00 
    4786:	48 8b bc 24 c0 00 00 	mov    0xc0(%rsp),%rdi
    478d:	00 
    478e:	48 8d 05 7b d1 02 00 	lea    0x2d17b(%rip),%rax        # 31910 <vtable for std::basic_ios<char, std::char_traits<char> >@GLIBCXX_3.4+0x10>
    4795:	48 89 84 24 58 04 00 	mov    %rax,0x458(%rsp)
    479c:	00 
    479d:	e8 3e f9 ff ff       	call   40e0 <std::ios_base::~ios_base()@plt>
    47a2:	48 8b bc 24 60 05 00 	mov    0x560(%rsp),%rdi
    47a9:	00 
    47aa:	48 8b 84 24 f0 00 00 	mov    0xf0(%rsp),%rax
    47b1:	00 
    47b2:	48 39 c7             	cmp    %rax,%rdi
    47b5:	0f 84 d3 fd ff ff    	je     458e <ML::ConvolutionalLayer::computeNaive(ML::LayerData const&, std::__cxx11::basic_string<char, std::char_traits<char>, std::allocator<char> > const&) const [clone .cold]+0x18>
    47bb:	e8 90 fa ff ff       	call   4250 <operator delete(void*)@plt>
    47c0:	e9 c9 fd ff ff       	jmp    458e <ML::ConvolutionalLayer::computeNaive(ML::LayerData const&, std::__cxx11::basic_string<char, std::char_traits<char>, std::allocator<char> > const&) const [clone .cold]+0x18>
    47c5:	90                   	nop

00000000000047c6 <ML::ConvolutionalLayer::computeNaive(ML::LayerData const&) const [clone .cold]>:
    47c6:	48 8b 3c 24          	mov    (%rsp),%rdi
    47ca:	48 39 df             	cmp    %rbx,%rdi
    47cd:	74 10                	je     47df <ML::ConvolutionalLayer::computeNaive(ML::LayerData const&) const [clone .cold]+0x19>
    47cf:	c5 f8 77             	vzeroupper
    47d2:	e8 79 fa ff ff       	call   4250 <operator delete(void*)@plt>
    47d7:	48 89 ef             	mov    %rbp,%rdi
    47da:	e8 81 fc ff ff       	call   4460 <_Unwind_Resume@plt>
    47df:	c5 f8 77             	vzeroupper
    47e2:	eb f3                	jmp    47d7 <ML::ConvolutionalLayer::computeNaive(ML::LayerData const&) const [clone .cold]+0x11>

00000000000047e4 <ML::FlattenLayer::FlattenLayer(ML::LayerParams const&, ML::LayerParams const&) [clone .cold]>:
    47e4:	48 8b 7c 24 58       	mov    0x58(%rsp),%rdi
    47e9:	48 85 ff             	test   %rdi,%rdi
    47ec:	0f 84 a0 00 00 00    	je     4892 <ML::FlattenLayer::FlattenLayer(ML::LayerParams const&, ML::LayerParams const&) [clone .cold]+0xae>
    47f2:	c5 f8 77             	vzeroupper
    47f5:	e8 56 fa ff ff       	call   4250 <operator delete(void*)@plt>
    47fa:	eb 17                	jmp    4813 <ML::FlattenLayer::FlattenLayer(ML::LayerParams const&, ML::LayerParams const&) [clone .cold]+0x2f>
    47fc:	48 8b 7c 24 18       	mov    0x18(%rsp),%rdi
    4801:	48 85 ff             	test   %rdi,%rdi
    4804:	75 3a                	jne    4840 <ML::FlattenLayer::FlattenLayer(ML::LayerParams const&, ML::LayerParams const&) [clone .cold]+0x5c>
    4806:	c5 f8 77             	vzeroupper
    4809:	48 8d 7c 24 50       	lea    0x50(%rsp),%rdi
    480e:	e8 9d ad 00 00       	call   f5b0 <ML::LayerParams::~LayerParams()>
    4813:	48 89 df             	mov    %rbx,%rdi
    4816:	e8 45 fc ff ff       	call   4460 <_Unwind_Resume@plt>
    481b:	48 8b 7b 10          	mov    0x10(%rbx),%rdi
    481f:	48 85 ff             	test   %rdi,%rdi
    4822:	75 12                	jne    4836 <ML::FlattenLayer::FlattenLayer(ML::LayerParams const&, ML::LayerParams const&) [clone .cold]+0x52>
    4824:	c5 f8 77             	vzeroupper
    4827:	48 89 eb             	mov    %rbp,%rbx
    482a:	48 8d 7c 24 10       	lea    0x10(%rsp),%rdi
    482f:	e8 7c ad 00 00       	call   f5b0 <ML::LayerParams::~LayerParams()>
    4834:	eb d3                	jmp    4809 <ML::FlattenLayer::FlattenLayer(ML::LayerParams const&, ML::LayerParams const&) [clone .cold]+0x25>
    4836:	c5 f8 77             	vzeroupper
    4839:	e8 12 fa ff ff       	call   4250 <operator delete(void*)@plt>
    483e:	eb e7                	jmp    4827 <ML::FlattenLayer::FlattenLayer(ML::LayerParams const&, ML::LayerParams const&) [clone .cold]+0x43>
    4840:	c5 f8 77             	vzeroupper
    4843:	e8 08 fa ff ff       	call   4250 <operator delete(void*)@plt>
    4848:	eb bf                	jmp    4809 <ML::FlattenLayer::FlattenLayer(ML::LayerParams const&, ML::LayerParams const&) [clone .cold]+0x25>
    484a:	48 8b bb 90 00 00 00 	mov    0x90(%rbx),%rdi
    4851:	48 85 ff             	test   %rdi,%rdi
    4854:	74 1f                	je     4875 <ML::FlattenLayer::FlattenLayer(ML::LayerParams const&, ML::LayerParams const&) [clone .cold]+0x91>
    4856:	c5 f8 77             	vzeroupper
    4859:	e8 f2 f9 ff ff       	call   4250 <operator delete(void*)@plt>
    485e:	48 8d 7b 48          	lea    0x48(%rbx),%rdi
    4862:	e8 49 ad 00 00       	call   f5b0 <ML::LayerParams::~LayerParams()>
    4867:	48 8d 7b 08          	lea    0x8(%rbx),%rdi
    486b:	48 89 eb             	mov    %rbp,%rbx
    486e:	e8 3d ad 00 00       	call   f5b0 <ML::LayerParams::~LayerParams()>
    4873:	eb b5                	jmp    482a <ML::FlattenLayer::FlattenLayer(ML::LayerParams const&, ML::LayerParams const&) [clone .cold]+0x46>
    4875:	c5 f8 77             	vzeroupper
    4878:	eb e4                	jmp    485e <ML::FlattenLayer::FlattenLayer(ML::LayerParams const&, ML::LayerParams const&) [clone .cold]+0x7a>
    487a:	48 8b 7b 50          	mov    0x50(%rbx),%rdi
    487e:	48 85 ff             	test   %rdi,%rdi
    4881:	74 0a                	je     488d <ML::FlattenLayer::FlattenLayer(ML::LayerParams const&, ML::LayerParams const&) [clone .cold]+0xa9>
    4883:	c5 f8 77             	vzeroupper
    4886:	e8 c5 f9 ff ff       	call   4250 <operator delete(void*)@plt>
    488b:	eb da                	jmp    4867 <ML::FlattenLayer::FlattenLayer(ML::LayerParams const&, ML::LayerParams const&) [clone .cold]+0x83>
    488d:	c5 f8 77             	vzeroupper
    4890:	eb d5                	jmp    4867 <ML::FlattenLayer::FlattenLayer(ML::LayerParams const&, ML::LayerParams const&) [clone .cold]+0x83>
    4892:	c5 f8 77             	vzeroupper
    4895:	e9 79 ff ff ff       	jmp    4813 <ML::FlattenLayer::FlattenLayer(ML::LayerParams const&, ML::LayerParams const&) [clone .cold]+0x2f>

000000000000489a <ML::LayerParams::isCompatible(ML::LayerParams const&) const [clone .cold]>:
    489a:	bf 10 00 00 00       	mov    $0x10,%edi
    489f:	e8 ac f8 ff ff       	call   4150 <__cxa_allocate_exception@plt>
    48a4:	48 8d 35 9d 59 02 00 	lea    0x2599d(%rip),%rsi        # 2a248 <typeinfo name for ML::FlattenLayer+0x18>
    48ab:	48 89 c7             	mov    %rax,%rdi
    48ae:	48 89 c3             	mov    %rax,%rbx
    48b1:	e8 4a f8 ff ff       	call   4100 <std::runtime_error::runtime_error(char const*)@plt>
    48b6:	48 8b 15 eb d6 02 00 	mov    0x2d6eb(%rip),%rdx        # 31fa8 <std::runtime_error::~runtime_error()@GLIBCXX_3.4>
    48bd:	48 8d 35 1c d3 02 00 	lea    0x2d31c(%rip),%rsi        # 31be0 <typeinfo for std::runtime_error@GLIBCXX_3.4>
    48c4:	48 89 df             	mov    %rbx,%rdi
    48c7:	e8 74 fb ff ff       	call   4440 <__cxa_throw@plt>
    48cc:	bf 10 00 00 00       	mov    $0x10,%edi
    48d1:	e8 7a f8 ff ff       	call   4150 <__cxa_allocate_exception@plt>
    48d6:	48 8d 35 bb 59 02 00 	lea    0x259bb(%rip),%rsi        # 2a298 <typeinfo name for ML::FlattenLayer+0x68>
    48dd:	48 89 c7             	mov    %rax,%rdi
    48e0:	48 89 c3             	mov    %rax,%rbx
    48e3:	e8 18 f8 ff ff       	call   4100 <std::runtime_error::runtime_error(char const*)@plt>
    48e8:	48 8b 15 b9 d6 02 00 	mov    0x2d6b9(%rip),%rdx        # 31fa8 <std::runtime_error::~runtime_error()@GLIBCXX_3.4>
    48ef:	48 8d 35 ea d2 02 00 	lea    0x2d2ea(%rip),%rsi        # 31be0 <typeinfo for std::runtime_error@GLIBCXX_3.4>
    48f6:	48 89 df             	mov    %rbx,%rdi
    48f9:	e8 42 fb ff ff       	call   4440 <__cxa_throw@plt>
    48fe:	bf 10 00 00 00       	mov    $0x10,%edi
    4903:	e8 48 f8 ff ff       	call   4150 <__cxa_allocate_exception@plt>
    4908:	48 8d 35 61 59 02 00 	lea    0x25961(%rip),%rsi        # 2a270 <typeinfo name for ML::FlattenLayer+0x40>
    490f:	48 89 c7             	mov    %rax,%rdi
    4912:	48 89 c3             	mov    %rax,%rbx
    4915:	e8 e6 f7 ff ff       	call   4100 <std::runtime_error::runtime_error(char const*)@plt>
    491a:	48 8b 15 87 d6 02 00 	mov    0x2d687(%rip),%rdx        # 31fa8 <std::runtime_error::~runtime_error()@GLIBCXX_3.4>
    4921:	48 8d 35 b8 d2 02 00 	lea    0x2d2b8(%rip),%rsi        # 31be0 <typeinfo for std::runtime_error@GLIBCXX_3.4>
    4928:	48 89 df             	mov    %rbx,%rdi
    492b:	e8 10 fb ff ff       	call   4440 <__cxa_throw@plt>
    4930:	48 89 c5             	mov    %rax,%rbp
    4933:	48 89 df             	mov    %rbx,%rdi
    4936:	c5 f8 77             	vzeroupper
    4939:	e8 a2 f8 ff ff       	call   41e0 <__cxa_free_exception@plt>
    493e:	48 89 ef             	mov    %rbp,%rdi
    4941:	e8 1a fb ff ff       	call   4460 <_Unwind_Resume@plt>
    4946:	48 89 c5             	mov    %rax,%rbp
    4949:	48 89 df             	mov    %rbx,%rdi
    494c:	c5 f8 77             	vzeroupper
    494f:	e8 8c f8 ff ff       	call   41e0 <__cxa_free_exception@plt>
    4954:	48 89 ef             	mov    %rbp,%rdi
    4957:	e8 04 fb ff ff       	call   4460 <_Unwind_Resume@plt>
    495c:	48 89 c5             	mov    %rax,%rbp
    495f:	48 89 df             	mov    %rbx,%rdi
    4962:	c5 f8 77             	vzeroupper
    4965:	e8 76 f8 ff ff       	call   41e0 <__cxa_free_exception@plt>
    496a:	48 89 ef             	mov    %rbp,%rdi
    496d:	e8 ee fa ff ff       	call   4460 <_Unwind_Resume@plt>

0000000000004972 <ML::Layer::checkDataInputCompatibility(ML::LayerData const&) const [clone .cold]>:
    4972:	bf 10 00 00 00       	mov    $0x10,%edi
    4977:	e8 d4 f7 ff ff       	call   4150 <__cxa_allocate_exception@plt>
    497c:	48 8d 35 c5 58 02 00 	lea    0x258c5(%rip),%rsi        # 2a248 <typeinfo name for ML::FlattenLayer+0x18>
    4983:	48 89 c7             	mov    %rax,%rdi
    4986:	48 89 c3             	mov    %rax,%rbx
    4989:	e8 72 f7 ff ff       	call   4100 <std::runtime_error::runtime_error(char const*)@plt>
    498e:	48 8b 15 13 d6 02 00 	mov    0x2d613(%rip),%rdx        # 31fa8 <std::runtime_error::~runtime_error()@GLIBCXX_3.4>
    4995:	48 8d 35 44 d2 02 00 	lea    0x2d244(%rip),%rsi        # 31be0 <typeinfo for std::runtime_error@GLIBCXX_3.4>
    499c:	48 89 df             	mov    %rbx,%rdi
    499f:	e8 9c fa ff ff       	call   4440 <__cxa_throw@plt>
    49a4:	bf 10 00 00 00       	mov    $0x10,%edi
    49a9:	e8 a2 f7 ff ff       	call   4150 <__cxa_allocate_exception@plt>
    49ae:	48 8d 35 e3 58 02 00 	lea    0x258e3(%rip),%rsi        # 2a298 <typeinfo name for ML::FlattenLayer+0x68>
    49b5:	48 89 c7             	mov    %rax,%rdi
    49b8:	48 89 c3             	mov    %rax,%rbx
    49bb:	e8 40 f7 ff ff       	call   4100 <std::runtime_error::runtime_error(char const*)@plt>
    49c0:	48 8b 15 e1 d5 02 00 	mov    0x2d5e1(%rip),%rdx        # 31fa8 <std::runtime_error::~runtime_error()@GLIBCXX_3.4>
    49c7:	48 8d 35 12 d2 02 00 	lea    0x2d212(%rip),%rsi        # 31be0 <typeinfo for std::runtime_error@GLIBCXX_3.4>
    49ce:	48 89 df             	mov    %rbx,%rdi
    49d1:	e8 6a fa ff ff       	call   4440 <__cxa_throw@plt>
    49d6:	bf 10 00 00 00       	mov    $0x10,%edi
    49db:	e8 70 f7 ff ff       	call   4150 <__cxa_allocate_exception@plt>
    49e0:	48 8d 35 89 58 02 00 	lea    0x25889(%rip),%rsi        # 2a270 <typeinfo name for ML::FlattenLayer+0x40>
    49e7:	48 89 c7             	mov    %rax,%rdi
    49ea:	48 89 c3             	mov    %rax,%rbx
    49ed:	e8 0e f7 ff ff       	call   4100 <std::runtime_error::runtime_error(char const*)@plt>
    49f2:	48 8b 15 af d5 02 00 	mov    0x2d5af(%rip),%rdx        # 31fa8 <std::runtime_error::~runtime_error()@GLIBCXX_3.4>
    49f9:	48 8d 35 e0 d1 02 00 	lea    0x2d1e0(%rip),%rsi        # 31be0 <typeinfo for std::runtime_error@GLIBCXX_3.4>
    4a00:	48 89 df             	mov    %rbx,%rdi
    4a03:	e8 38 fa ff ff       	call   4440 <__cxa_throw@plt>
    4a08:	48 89 c5             	mov    %rax,%rbp
    4a0b:	48 89 df             	mov    %rbx,%rdi
    4a0e:	c5 f8 77             	vzeroupper
    4a11:	e8 ca f7 ff ff       	call   41e0 <__cxa_free_exception@plt>
    4a16:	48 89 ef             	mov    %rbp,%rdi
    4a19:	e8 42 fa ff ff       	call   4460 <_Unwind_Resume@plt>
    4a1e:	48 89 c5             	mov    %rax,%rbp
    4a21:	48 89 df             	mov    %rbx,%rdi
    4a24:	c5 f8 77             	vzeroupper
    4a27:	e8 b4 f7 ff ff       	call   41e0 <__cxa_free_exception@plt>
    4a2c:	48 89 ef             	mov    %rbp,%rdi
    4a2f:	e8 2c fa ff ff       	call   4460 <_Unwind_Resume@plt>
    4a34:	48 89 c5             	mov    %rax,%rbp
    4a37:	48 89 df             	mov    %rbx,%rdi
    4a3a:	c5 f8 77             	vzeroupper
    4a3d:	e8 9e f7 ff ff       	call   41e0 <__cxa_free_exception@plt>
    4a42:	48 89 ef             	mov    %rbp,%rdi
    4a45:	e8 16 fa ff ff       	call   4460 <_Unwind_Resume@plt>

0000000000004a4a <ML::MaxPoolingLayer::MaxPoolingLayer(ML::LayerParams const&, ML::LayerParams const&) [clone .cold]>:
    4a4a:	48 8b 7c 24 58       	mov    0x58(%rsp),%rdi
    4a4f:	48 85 ff             	test   %rdi,%rdi
    4a52:	0f 84 a0 00 00 00    	je     4af8 <ML::MaxPoolingLayer::MaxPoolingLayer(ML::LayerParams const&, ML::LayerParams const&) [clone .cold]+0xae>
    4a58:	c5 f8 77             	vzeroupper
    4a5b:	e8 f0 f7 ff ff       	call   4250 <operator delete(void*)@plt>
    4a60:	eb 17                	jmp    4a79 <ML::MaxPoolingLayer::MaxPoolingLayer(ML::LayerParams const&, ML::LayerParams const&) [clone .cold]+0x2f>
    4a62:	48 8b 7c 24 18       	mov    0x18(%rsp),%rdi
    4a67:	48 85 ff             	test   %rdi,%rdi
    4a6a:	75 3a                	jne    4aa6 <ML::MaxPoolingLayer::MaxPoolingLayer(ML::LayerParams const&, ML::LayerParams const&) [clone .cold]+0x5c>
    4a6c:	c5 f8 77             	vzeroupper
    4a6f:	48 8d 7c 24 50       	lea    0x50(%rsp),%rdi
    4a74:	e8 37 ab 00 00       	call   f5b0 <ML::LayerParams::~LayerParams()>
    4a79:	48 89 df             	mov    %rbx,%rdi
    4a7c:	e8 df f9 ff ff       	call   4460 <_Unwind_Resume@plt>
    4a81:	48 8b 7b 10          	mov    0x10(%rbx),%rdi
    4a85:	48 85 ff             	test   %rdi,%rdi
    4a88:	75 12                	jne    4a9c <ML::MaxPoolingLayer::MaxPoolingLayer(ML::LayerParams const&, ML::LayerParams const&) [clone .cold]+0x52>
    4a8a:	c5 f8 77             	vzeroupper
    4a8d:	48 89 eb             	mov    %rbp,%rbx
    4a90:	48 8d 7c 24 10       	lea    0x10(%rsp),%rdi
    4a95:	e8 16 ab 00 00       	call   f5b0 <ML::LayerParams::~LayerParams()>
    4a9a:	eb d3                	jmp    4a6f <ML::MaxPoolingLayer::MaxPoolingLayer(ML::LayerParams const&, ML::LayerParams const&) [clone .cold]+0x25>
    4a9c:	c5 f8 77             	vzeroupper
    4a9f:	e8 ac f7 ff ff       	call   4250 <operator delete(void*)@plt>
    4aa4:	eb e7                	jmp    4a8d <ML::MaxPoolingLayer::MaxPoolingLayer(ML::LayerParams const&, ML::LayerParams const&) [clone .cold]+0x43>
    4aa6:	c5 f8 77             	vzeroupper
    4aa9:	e8 a2 f7 ff ff       	call   4250 <operator delete(void*)@plt>
    4aae:	eb bf                	jmp    4a6f <ML::MaxPoolingLayer::MaxPoolingLayer(ML::LayerParams const&, ML::LayerParams const&) [clone .cold]+0x25>
    4ab0:	48 8b bb 90 00 00 00 	mov    0x90(%rbx),%rdi
    4ab7:	48 85 ff             	test   %rdi,%rdi
    4aba:	74 1f                	je     4adb <ML::MaxPoolingLayer::MaxPoolingLayer(ML::LayerParams const&, ML::LayerParams const&) [clone .cold]+0x91>
    4abc:	c5 f8 77             	vzeroupper
    4abf:	e8 8c f7 ff ff       	call   4250 <operator delete(void*)@plt>
    4ac4:	48 8d 7b 48          	lea    0x48(%rbx),%rdi
    4ac8:	e8 e3 aa 00 00       	call   f5b0 <ML::LayerParams::~LayerParams()>
    4acd:	48 8d 7b 08          	lea    0x8(%rbx),%rdi
    4ad1:	48 89 eb             	mov    %rbp,%rbx
    4ad4:	e8 d7 aa 00 00       	call   f5b0 <ML::LayerParams::~LayerParams()>
    4ad9:	eb b5                	jmp    4a90 <ML::MaxPoolingLayer::MaxPoolingLayer(ML::LayerParams const&, ML::LayerParams const&) [clone .cold]+0x46>
    4adb:	c5 f8 77             	vzeroupper
    4ade:	eb e4                	jmp    4ac4 <ML::MaxPoolingLayer::MaxPoolingLayer(ML::LayerParams const&, ML::LayerParams const&) [clone .cold]+0x7a>
    4ae0:	48 8b 7b 50          	mov    0x50(%rbx),%rdi
    4ae4:	48 85 ff             	test   %rdi,%rdi
    4ae7:	74 0a                	je     4af3 <ML::MaxPoolingLayer::MaxPoolingLayer(ML::LayerParams const&, ML::LayerParams const&) [clone .cold]+0xa9>
    4ae9:	c5 f8 77             	vzeroupper
    4aec:	e8 5f f7 ff ff       	call   4250 <operator delete(void*)@plt>
    4af1:	eb da                	jmp    4acd <ML::MaxPoolingLayer::MaxPoolingLayer(ML::LayerParams const&, ML::LayerParams const&) [clone .cold]+0x83>
    4af3:	c5 f8 77             	vzeroupper
    4af6:	eb d5                	jmp    4acd <ML::MaxPoolingLayer::MaxPoolingLayer(ML::LayerParams const&, ML::LayerParams const&) [clone .cold]+0x83>
    4af8:	c5 f8 77             	vzeroupper
    4afb:	e9 79 ff ff ff       	jmp    4a79 <ML::MaxPoolingLayer::MaxPoolingLayer(ML::LayerParams const&, ML::LayerParams const&) [clone .cold]+0x2f>

0000000000004b00 <ML::SoftmaxLayer::SoftmaxLayer(ML::LayerParams const&, ML::LayerParams const&) [clone .cold]>:
    4b00:	48 8b 7c 24 58       	mov    0x58(%rsp),%rdi
    4b05:	48 85 ff             	test   %rdi,%rdi
    4b08:	0f 84 a0 00 00 00    	je     4bae <ML::SoftmaxLayer::SoftmaxLayer(ML::LayerParams const&, ML::LayerParams const&) [clone .cold]+0xae>
    4b0e:	c5 f8 77             	vzeroupper
    4b11:	e8 3a f7 ff ff       	call   4250 <operator delete(void*)@plt>
    4b16:	eb 17                	jmp    4b2f <ML::SoftmaxLayer::SoftmaxLayer(ML::LayerParams const&, ML::LayerParams const&) [clone .cold]+0x2f>
    4b18:	48 8b 7c 24 18       	mov    0x18(%rsp),%rdi
    4b1d:	48 85 ff             	test   %rdi,%rdi
    4b20:	75 3a                	jne    4b5c <ML::SoftmaxLayer::SoftmaxLayer(ML::LayerParams const&, ML::LayerParams const&) [clone .cold]+0x5c>
    4b22:	c5 f8 77             	vzeroupper
    4b25:	48 8d 7c 24 50       	lea    0x50(%rsp),%rdi
    4b2a:	e8 81 aa 00 00       	call   f5b0 <ML::LayerParams::~LayerParams()>
    4b2f:	48 89 df             	mov    %rbx,%rdi
    4b32:	e8 29 f9 ff ff       	call   4460 <_Unwind_Resume@plt>
    4b37:	48 8b 7b 10          	mov    0x10(%rbx),%rdi
    4b3b:	48 85 ff             	test   %rdi,%rdi
    4b3e:	75 12                	jne    4b52 <ML::SoftmaxLayer::SoftmaxLayer(ML::LayerParams const&, ML::LayerParams const&) [clone .cold]+0x52>
    4b40:	c5 f8 77             	vzeroupper
    4b43:	48 89 eb             	mov    %rbp,%rbx
    4b46:	48 8d 7c 24 10       	lea    0x10(%rsp),%rdi
    4b4b:	e8 60 aa 00 00       	call   f5b0 <ML::LayerParams::~LayerParams()>
    4b50:	eb d3                	jmp    4b25 <ML::SoftmaxLayer::SoftmaxLayer(ML::LayerParams const&, ML::LayerParams const&) [clone .cold]+0x25>
    4b52:	c5 f8 77             	vzeroupper
    4b55:	e8 f6 f6 ff ff       	call   4250 <operator delete(void*)@plt>
    4b5a:	eb e7                	jmp    4b43 <ML::SoftmaxLayer::SoftmaxLayer(ML::LayerParams const&, ML::LayerParams const&) [clone .cold]+0x43>
    4b5c:	c5 f8 77             	vzeroupper
    4b5f:	e8 ec f6 ff ff       	call   4250 <operator delete(void*)@plt>
    4b64:	eb bf                	jmp    4b25 <ML::SoftmaxLayer::SoftmaxLayer(ML::LayerParams const&, ML::LayerParams const&) [clone .cold]+0x25>
    4b66:	48 8b bb 90 00 00 00 	mov    0x90(%rbx),%rdi
    4b6d:	48 85 ff             	test   %rdi,%rdi
    4b70:	74 1f                	je     4b91 <ML::SoftmaxLayer::SoftmaxLayer(ML::LayerParams const&, ML::LayerParams const&) [clone .cold]+0x91>
    4b72:	c5 f8 77             	vzeroupper
    4b75:	e8 d6 f6 ff ff       	call   4250 <operator delete(void*)@plt>
    4b7a:	48 8d 7b 48          	lea    0x48(%rbx),%rdi
    4b7e:	e8 2d aa 00 00       	call   f5b0 <ML::LayerParams::~LayerParams()>
    4b83:	48 8d 7b 08          	lea    0x8(%rbx),%rdi
    4b87:	48 89 eb             	mov    %rbp,%rbx
    4b8a:	e8 21 aa 00 00       	call   f5b0 <ML::LayerParams::~LayerParams()>
    4b8f:	eb b5                	jmp    4b46 <ML::SoftmaxLayer::SoftmaxLayer(ML::LayerParams const&, ML::LayerParams const&) [clone .cold]+0x46>
    4b91:	c5 f8 77             	vzeroupper
    4b94:	eb e4                	jmp    4b7a <ML::SoftmaxLayer::SoftmaxLayer(ML::LayerParams const&, ML::LayerParams const&) [clone .cold]+0x7a>
    4b96:	48 8b 7b 50          	mov    0x50(%rbx),%rdi
    4b9a:	48 85 ff             	test   %rdi,%rdi
    4b9d:	74 0a                	je     4ba9 <ML::SoftmaxLayer::SoftmaxLayer(ML::LayerParams const&, ML::LayerParams const&) [clone .cold]+0xa9>
    4b9f:	c5 f8 77             	vzeroupper
    4ba2:	e8 a9 f6 ff ff       	call   4250 <operator delete(void*)@plt>
    4ba7:	eb da                	jmp    4b83 <ML::SoftmaxLayer::SoftmaxLayer(ML::LayerParams const&, ML::LayerParams const&) [clone .cold]+0x83>
    4ba9:	c5 f8 77             	vzeroupper
    4bac:	eb d5                	jmp    4b83 <ML::SoftmaxLayer::SoftmaxLayer(ML::LayerParams const&, ML::LayerParams const&) [clone .cold]+0x83>
    4bae:	c5 f8 77             	vzeroupper
    4bb1:	e9 79 ff ff ff       	jmp    4b2f <ML::SoftmaxLayer::SoftmaxLayer(ML::LayerParams const&, ML::LayerParams const&) [clone .cold]+0x2f>

0000000000004bb6 <ML::LayerData::allocData() [clone .part.0] [clone .cold]>:
    4bb6:	e8 85 f7 ff ff       	call   4340 <__cxa_throw_bad_array_new_length@plt>
    4bbb:	90                   	nop

0000000000004bbc <std::vector<unsigned long, std::allocator<unsigned long> >::vector(std::initializer_list<unsigned long>, std::allocator<unsigned long> const&) [clone .constprop.3] [clone .cold]>:
    4bbc:	48 8b 3b             	mov    (%rbx),%rdi
    4bbf:	48 85 ff             	test   %rdi,%rdi
    4bc2:	74 10                	je     4bd4 <std::vector<unsigned long, std::allocator<unsigned long> >::vector(std::initializer_list<unsigned long>, std::allocator<unsigned long> const&) [clone .constprop.3] [clone .cold]+0x18>
    4bc4:	c5 f8 77             	vzeroupper
    4bc7:	e8 84 f6 ff ff       	call   4250 <operator delete(void*)@plt>
    4bcc:	48 89 ef             	mov    %rbp,%rdi
    4bcf:	e8 8c f8 ff ff       	call   4460 <_Unwind_Resume@plt>
    4bd4:	c5 f8 77             	vzeroupper
    4bd7:	eb f3                	jmp    4bcc <std::vector<unsigned long, std::allocator<unsigned long> >::vector(std::initializer_list<unsigned long>, std::allocator<unsigned long> const&) [clone .constprop.3] [clone .cold]+0x10>

0000000000004bd9 <std::basic_ostream<char, std::char_traits<char> >& std::operator<< <std::char_traits<char> >(std::basic_ostream<char, std::char_traits<char> >&, char) [clone .isra.0]>:
    4bd9:	48 83 ec 18          	sub    $0x18,%rsp
    4bdd:	48 8b 07             	mov    (%rdi),%rax
    4be0:	40 88 74 24 0c       	mov    %sil,0xc(%rsp)
    4be5:	48 8b 40 e8          	mov    -0x18(%rax),%rax
    4be9:	48 83 7c 07 10 00    	cmpq   $0x0,0x10(%rdi,%rax,1)
    4bef:	74 11                	je     4c02 <std::basic_ostream<char, std::char_traits<char> >& std::operator<< <std::char_traits<char> >(std::basic_ostream<char, std::char_traits<char> >&, char) [clone .isra.0]+0x29>
    4bf1:	48 8d 74 24 0c       	lea    0xc(%rsp),%rsi
    4bf6:	ba 01 00 00 00       	mov    $0x1,%edx
    4bfb:	e8 a0 f6 ff ff       	call   42a0 <std::basic_ostream<char, std::char_traits<char> >& std::__ostream_insert<char, std::char_traits<char> >(std::basic_ostream<char, std::char_traits<char> >&, char const*, long)@plt>
    4c00:	eb 0a                	jmp    4c0c <std::basic_ostream<char, std::char_traits<char> >& std::operator<< <std::char_traits<char> >(std::basic_ostream<char, std::char_traits<char> >&, char) [clone .isra.0]+0x33>
    4c02:	0f be 74 24 0c       	movsbl 0xc(%rsp),%esi
    4c07:	e8 34 f4 ff ff       	call   4040 <std::ostream::put(char)@plt>
    4c0c:	48 83 c4 18          	add    $0x18,%rsp
    4c10:	c3                   	ret
    4c11:	90                   	nop

0000000000004c12 <std::vector<unsigned long, std::allocator<unsigned long> >::vector(std::initializer_list<unsigned long>, std::allocator<unsigned long> const&) [clone .constprop.0] [clone .cold]>:
    4c12:	48 8b 3b             	mov    (%rbx),%rdi
    4c15:	48 85 ff             	test   %rdi,%rdi
    4c18:	74 10                	je     4c2a <std::vector<unsigned long, std::allocator<unsigned long> >::vector(std::initializer_list<unsigned long>, std::allocator<unsigned long> const&) [clone .constprop.0] [clone .cold]+0x18>
    4c1a:	c5 f8 77             	vzeroupper
    4c1d:	e8 2e f6 ff ff       	call   4250 <operator delete(void*)@plt>
    4c22:	48 89 ef             	mov    %rbp,%rdi
    4c25:	e8 36 f8 ff ff       	call   4460 <_Unwind_Resume@plt>
    4c2a:	c5 f8 77             	vzeroupper
    4c2d:	eb f3                	jmp    4c22 <std::vector<unsigned long, std::allocator<unsigned long> >::vector(std::initializer_list<unsigned long>, std::allocator<unsigned long> const&) [clone .constprop.0] [clone .cold]+0x10>
    4c2f:	90                   	nop

0000000000004c30 <std::vector<unsigned long, std::allocator<unsigned long> >::vector(std::initializer_list<unsigned long>, std::allocator<unsigned long> const&) [clone .constprop.1] [clone .cold]>:
    4c30:	48 8b 3b             	mov    (%rbx),%rdi
    4c33:	48 85 ff             	test   %rdi,%rdi
    4c36:	74 10                	je     4c48 <std::vector<unsigned long, std::allocator<unsigned long> >::vector(std::initializer_list<unsigned long>, std::allocator<unsigned long> const&) [clone .constprop.1] [clone .cold]+0x18>
    4c38:	c5 f8 77             	vzeroupper
    4c3b:	e8 10 f6 ff ff       	call   4250 <operator delete(void*)@plt>
    4c40:	48 89 ef             	mov    %rbp,%rdi
    4c43:	e8 18 f8 ff ff       	call   4460 <_Unwind_Resume@plt>
    4c48:	c5 f8 77             	vzeroupper
    4c4b:	eb f3                	jmp    4c40 <std::vector<unsigned long, std::allocator<unsigned long> >::vector(std::initializer_list<unsigned long>, std::allocator<unsigned long> const&) [clone .constprop.1] [clone .cold]+0x10>
    4c4d:	90                   	nop

0000000000004c4e <std::vector<unsigned long, std::allocator<unsigned long> >::vector(std::initializer_list<unsigned long>, std::allocator<unsigned long> const&) [clone .constprop.2] [clone .cold]>:
    4c4e:	48 8b 3b             	mov    (%rbx),%rdi
    4c51:	48 85 ff             	test   %rdi,%rdi
    4c54:	74 10                	je     4c66 <std::vector<unsigned long, std::allocator<unsigned long> >::vector(std::initializer_list<unsigned long>, std::allocator<unsigned long> const&) [clone .constprop.2] [clone .cold]+0x18>
    4c56:	c5 f8 77             	vzeroupper
    4c59:	e8 f2 f5 ff ff       	call   4250 <operator delete(void*)@plt>
    4c5e:	48 89 ef             	mov    %rbp,%rdi
    4c61:	e8 fa f7 ff ff       	call   4460 <_Unwind_Resume@plt>
    4c66:	c5 f8 77             	vzeroupper
    4c69:	eb f3                	jmp    4c5e <std::vector<unsigned long, std::allocator<unsigned long> >::vector(std::initializer_list<unsigned long>, std::allocator<unsigned long> const&) [clone .constprop.2] [clone .cold]+0x10>
    4c6b:	90                   	nop

0000000000004c6c <ML::LayerParams::LayerParams(unsigned long, std::vector<unsigned long, std::allocator<unsigned long> >, ML::Path) [clone .constprop.1] [clone .cold]>:
    4c6c:	48 8b 7b 08          	mov    0x8(%rbx),%rdi
    4c70:	48 85 ff             	test   %rdi,%rdi
    4c73:	74 10                	je     4c85 <ML::LayerParams::LayerParams(unsigned long, std::vector<unsigned long, std::allocator<unsigned long> >, ML::Path) [clone .constprop.1] [clone .cold]+0x19>
    4c75:	c5 f8 77             	vzeroupper
    4c78:	e8 d3 f5 ff ff       	call   4250 <operator delete(void*)@plt>
    4c7d:	48 89 ef             	mov    %rbp,%rdi
    4c80:	e8 db f7 ff ff       	call   4460 <_Unwind_Resume@plt>
    4c85:	c5 f8 77             	vzeroupper
    4c88:	eb f3                	jmp    4c7d <ML::LayerParams::LayerParams(unsigned long, std::vector<unsigned long, std::allocator<unsigned long> >, ML::Path) [clone .constprop.1] [clone .cold]+0x11>

0000000000004c8a <ML::LayerParams::LayerParams(unsigned long, std::vector<unsigned long, std::allocator<unsigned long> >, ML::Path) [clone .constprop.2] [clone .cold]>:
    4c8a:	48 8b 7b 08          	mov    0x8(%rbx),%rdi
    4c8e:	48 85 ff             	test   %rdi,%rdi
    4c91:	74 10                	je     4ca3 <ML::LayerParams::LayerParams(unsigned long, std::vector<unsigned long, std::allocator<unsigned long> >, ML::Path) [clone .constprop.2] [clone .cold]+0x19>
    4c93:	c5 f8 77             	vzeroupper
    4c96:	e8 b5 f5 ff ff       	call   4250 <operator delete(void*)@plt>
    4c9b:	48 89 ef             	mov    %rbp,%rdi
    4c9e:	e8 bd f7 ff ff       	call   4460 <_Unwind_Resume@plt>
    4ca3:	c5 f8 77             	vzeroupper
    4ca6:	eb f3                	jmp    4c9b <ML::LayerParams::LayerParams(unsigned long, std::vector<unsigned long, std::allocator<unsigned long> >, ML::Path) [clone .constprop.2] [clone .cold]+0x11>

0000000000004ca8 <ML::LayerParams::LayerParams(unsigned long, std::vector<unsigned long, std::allocator<unsigned long> >, ML::Path) [clone .constprop.0] [clone .cold]>:
    4ca8:	48 8b 7b 08          	mov    0x8(%rbx),%rdi
    4cac:	48 85 ff             	test   %rdi,%rdi
    4caf:	74 10                	je     4cc1 <ML::LayerParams::LayerParams(unsigned long, std::vector<unsigned long, std::allocator<unsigned long> >, ML::Path) [clone .constprop.0] [clone .cold]+0x19>
    4cb1:	c5 f8 77             	vzeroupper
    4cb4:	e8 97 f5 ff ff       	call   4250 <operator delete(void*)@plt>
    4cb9:	48 89 ef             	mov    %rbp,%rdi
    4cbc:	e8 9f f7 ff ff       	call   4460 <_Unwind_Resume@plt>
    4cc1:	c5 f8 77             	vzeroupper
    4cc4:	eb f3                	jmp    4cb9 <ML::LayerParams::LayerParams(unsigned long, std::vector<unsigned long, std::allocator<unsigned long> >, ML::Path) [clone .constprop.0] [clone .cold]+0x11>

0000000000004cc6 <ML::LayerParams::LayerParams(unsigned long, std::vector<unsigned long, std::allocator<unsigned long> >) [clone .constprop.0] [clone .cold]>:
    4cc6:	4d 85 ed             	test   %r13,%r13
    4cc9:	74 22                	je     4ced <ML::LayerParams::LayerParams(unsigned long, std::vector<unsigned long, std::allocator<unsigned long> >) [clone .constprop.0] [clone .cold]+0x27>
    4ccb:	4c 89 ef             	mov    %r13,%rdi
    4cce:	c5 f8 77             	vzeroupper
    4cd1:	e8 7a f5 ff ff       	call   4250 <operator delete(void*)@plt>
    4cd6:	48 8b 7c 24 20       	mov    0x20(%rsp),%rdi
    4cdb:	4c 39 e7             	cmp    %r12,%rdi
    4cde:	74 05                	je     4ce5 <ML::LayerParams::LayerParams(unsigned long, std::vector<unsigned long, std::allocator<unsigned long> >) [clone .constprop.0] [clone .cold]+0x1f>
    4ce0:	e8 6b f5 ff ff       	call   4250 <operator delete(void*)@plt>
    4ce5:	48 89 df             	mov    %rbx,%rdi
    4ce8:	e8 73 f7 ff ff       	call   4460 <_Unwind_Resume@plt>
    4ced:	c5 f8 77             	vzeroupper
    4cf0:	eb e4                	jmp    4cd6 <ML::LayerParams::LayerParams(unsigned long, std::vector<unsigned long, std::allocator<unsigned long> >) [clone .constprop.0] [clone .cold]+0x10>

0000000000004cf2 <ML::LayerParams::LayerParams(unsigned long, std::vector<unsigned long, std::allocator<unsigned long> >) [clone .constprop.1] [clone .cold]>:
    4cf2:	4d 85 ed             	test   %r13,%r13
    4cf5:	74 22                	je     4d19 <ML::LayerParams::LayerParams(unsigned long, std::vector<unsigned long, std::allocator<unsigned long> >) [clone .constprop.1] [clone .cold]+0x27>
    4cf7:	4c 89 ef             	mov    %r13,%rdi
    4cfa:	c5 f8 77             	vzeroupper
    4cfd:	e8 4e f5 ff ff       	call   4250 <operator delete(void*)@plt>
    4d02:	48 8b 7c 24 20       	mov    0x20(%rsp),%rdi
    4d07:	4c 39 e7             	cmp    %r12,%rdi
    4d0a:	74 05                	je     4d11 <ML::LayerParams::LayerParams(unsigned long, std::vector<unsigned long, std::allocator<unsigned long> >) [clone .constprop.1] [clone .cold]+0x1f>
    4d0c:	e8 3f f5 ff ff       	call   4250 <operator delete(void*)@plt>
    4d11:	48 89 df             	mov    %rbx,%rdi
    4d14:	e8 47 f7 ff ff       	call   4460 <_Unwind_Resume@plt>
    4d19:	c5 f8 77             	vzeroupper
    4d1c:	eb e4                	jmp    4d02 <ML::LayerParams::LayerParams(unsigned long, std::vector<unsigned long, std::allocator<unsigned long> >) [clone .constprop.1] [clone .cold]+0x10>

0000000000004d1e <ML::getLayerInputPath(ML::Path const&, int) [clone .cold]>:
    4d1e:	48 8b 7c 24 50       	mov    0x50(%rsp),%rdi
    4d23:	4c 39 ef             	cmp    %r13,%rdi
    4d26:	74 4d                	je     4d75 <ML::getLayerInputPath(ML::Path const&, int) [clone .cold]+0x57>
    4d28:	c5 f8 77             	vzeroupper
    4d2b:	e8 20 f5 ff ff       	call   4250 <operator delete(void*)@plt>
    4d30:	48 8b 7c 24 10       	mov    0x10(%rsp),%rdi
    4d35:	4c 39 ff             	cmp    %r15,%rdi
    4d38:	74 05                	je     4d3f <ML::getLayerInputPath(ML::Path const&, int) [clone .cold]+0x21>
    4d3a:	e8 11 f5 ff ff       	call   4250 <operator delete(void*)@plt>
    4d3f:	48 89 df             	mov    %rbx,%rdi
    4d42:	e8 19 f7 ff ff       	call   4460 <_Unwind_Resume@plt>
    4d47:	48 8b 7c 24 50       	mov    0x50(%rsp),%rdi
    4d4c:	4c 39 ef             	cmp    %r13,%rdi
    4d4f:	74 29                	je     4d7a <ML::getLayerInputPath(ML::Path const&, int) [clone .cold]+0x5c>
    4d51:	c5 f8 77             	vzeroupper
    4d54:	e8 f7 f4 ff ff       	call   4250 <operator delete(void*)@plt>
    4d59:	48 8b 7c 24 30       	mov    0x30(%rsp),%rdi
    4d5e:	48 8d 44 24 40       	lea    0x40(%rsp),%rax
    4d63:	48 39 c7             	cmp    %rax,%rdi
    4d66:	74 05                	je     4d6d <ML::getLayerInputPath(ML::Path const&, int) [clone .cold]+0x4f>
    4d68:	e8 e3 f4 ff ff       	call   4250 <operator delete(void*)@plt>
    4d6d:	48 89 df             	mov    %rbx,%rdi
    4d70:	e8 eb f6 ff ff       	call   4460 <_Unwind_Resume@plt>
    4d75:	c5 f8 77             	vzeroupper
    4d78:	eb b6                	jmp    4d30 <ML::getLayerInputPath(ML::Path const&, int) [clone .cold]+0x12>
    4d7a:	c5 f8 77             	vzeroupper
    4d7d:	eb da                	jmp    4d59 <ML::getLayerInputPath(ML::Path const&, int) [clone .cold]+0x3b>

0000000000004d7f <ML::build4QModel() [clone .cold]>:
    4d7f:	4c 89 f7             	mov    %r14,%rdi
    4d82:	c5 f8 77             	vzeroupper
    4d85:	e8 c6 f4 ff ff       	call   4250 <operator delete(void*)@plt>
    4d8a:	4c 89 e7             	mov    %r12,%rdi
    4d8d:	e8 1e a8 00 00       	call   f5b0 <ML::LayerParams::~LayerParams()>
    4d92:	48 8b bc 24 e0 01 00 	mov    0x1e0(%rsp),%rdi
    4d99:	00 
    4d9a:	48 85 ff             	test   %rdi,%rdi
    4d9d:	74 05                	je     4da4 <ML::build4QModel() [clone .cold]+0x25>
    4d9f:	e8 ac f4 ff ff       	call   4250 <operator delete(void*)@plt>
    4da4:	4c 89 ef             	mov    %r13,%rdi
    4da7:	e8 04 a8 00 00       	call   f5b0 <ML::LayerParams::~LayerParams()>
    4dac:	48 8b bc 24 20 02 00 	mov    0x220(%rsp),%rdi
    4db3:	00 
    4db4:	48 85 ff             	test   %rdi,%rdi
    4db7:	74 05                	je     4dbe <ML::build4QModel() [clone .cold]+0x3f>
    4db9:	e8 92 f4 ff ff       	call   4250 <operator delete(void*)@plt>
    4dbe:	48 8b bc 24 90 00 00 	mov    0x90(%rsp),%rdi
    4dc5:	00 
    4dc6:	e8 d5 29 02 00       	call   277a0 <std::vector<std::unique_ptr<ML::Layer, std::default_delete<ML::Layer> >, std::allocator<std::unique_ptr<ML::Layer, std::default_delete<ML::Layer> > > >::~vector()>
    4dcb:	48 89 df             	mov    %rbx,%rdi
    4dce:	e8 8d f6 ff ff       	call   4460 <_Unwind_Resume@plt>
    4dd3:	4c 89 f7             	mov    %r14,%rdi
    4dd6:	c5 f8 77             	vzeroupper
    4dd9:	4d 89 fe             	mov    %r15,%r14
    4ddc:	e8 cf a7 00 00       	call   f5b0 <ML::LayerParams::~LayerParams()>
    4de1:	48 8b bc 24 e0 00 00 	mov    0xe0(%rsp),%rdi
    4de8:	00 
    4de9:	48 85 ff             	test   %rdi,%rdi
    4dec:	74 05                	je     4df3 <ML::build4QModel() [clone .cold]+0x74>
    4dee:	e8 5d f4 ff ff       	call   4250 <operator delete(void*)@plt>
    4df3:	48 89 df             	mov    %rbx,%rdi
    4df6:	4c 89 f3             	mov    %r14,%rbx
    4df9:	e8 b2 a7 00 00       	call   f5b0 <ML::LayerParams::~LayerParams()>
    4dfe:	48 8b bc 24 20 01 00 	mov    0x120(%rsp),%rdi
    4e05:	00 
    4e06:	48 85 ff             	test   %rdi,%rdi
    4e09:	74 05                	je     4e10 <ML::build4QModel() [clone .cold]+0x91>
    4e0b:	e8 40 f4 ff ff       	call   4250 <operator delete(void*)@plt>
    4e10:	4c 89 e7             	mov    %r12,%rdi
    4e13:	e8 98 a7 00 00       	call   f5b0 <ML::LayerParams::~LayerParams()>
    4e18:	48 8b bc 24 a0 01 00 	mov    0x1a0(%rsp),%rdi
    4e1f:	00 
    4e20:	48 8b 44 24 60       	mov    0x60(%rsp),%rax
    4e25:	48 39 c7             	cmp    %rax,%rdi
    4e28:	74 05                	je     4e2f <ML::build4QModel() [clone .cold]+0xb0>
    4e2a:	e8 21 f4 ff ff       	call   4250 <operator delete(void*)@plt>
    4e2f:	48 8b bc 24 40 01 00 	mov    0x140(%rsp),%rdi
    4e36:	00 
    4e37:	48 85 ff             	test   %rdi,%rdi
    4e3a:	0f 85 6c 04 00 00    	jne    52ac <ML::build4QModel() [clone .cold]+0x52d>
    4e40:	4c 89 ef             	mov    %r13,%rdi
    4e43:	e8 68 a7 00 00       	call   f5b0 <ML::LayerParams::~LayerParams()>
    4e48:	48 8b bc 24 c0 01 00 	mov    0x1c0(%rsp),%rdi
    4e4f:	00 
    4e50:	48 8b 44 24 58       	mov    0x58(%rsp),%rax
    4e55:	48 39 c7             	cmp    %rax,%rdi
    4e58:	74 05                	je     4e5f <ML::build4QModel() [clone .cold]+0xe0>
    4e5a:	e8 f1 f3 ff ff       	call   4250 <operator delete(void*)@plt>
    4e5f:	48 8b bc 24 60 01 00 	mov    0x160(%rsp),%rdi
    4e66:	00 
    4e67:	48 85 ff             	test   %rdi,%rdi
    4e6a:	0f 85 49 ff ff ff    	jne    4db9 <ML::build4QModel() [clone .cold]+0x3a>
    4e70:	e9 49 ff ff ff       	jmp    4dbe <ML::build4QModel() [clone .cold]+0x3f>
    4e75:	4c 89 f7             	mov    %r14,%rdi
    4e78:	c5 f8 77             	vzeroupper
    4e7b:	4d 89 fe             	mov    %r15,%r14
    4e7e:	e8 2d a7 00 00       	call   f5b0 <ML::LayerParams::~LayerParams()>
    4e83:	48 8b bc 24 e0 00 00 	mov    0xe0(%rsp),%rdi
    4e8a:	00 
    4e8b:	48 85 ff             	test   %rdi,%rdi
    4e8e:	74 05                	je     4e95 <ML::build4QModel() [clone .cold]+0x116>
    4e90:	e8 bb f3 ff ff       	call   4250 <operator delete(void*)@plt>
    4e95:	48 89 df             	mov    %rbx,%rdi
    4e98:	4c 89 f3             	mov    %r14,%rbx
    4e9b:	e8 10 a7 00 00       	call   f5b0 <ML::LayerParams::~LayerParams()>
    4ea0:	48 8b bc 24 20 01 00 	mov    0x120(%rsp),%rdi
    4ea7:	00 
    4ea8:	48 85 ff             	test   %rdi,%rdi
    4eab:	74 05                	je     4eb2 <ML::build4QModel() [clone .cold]+0x133>
    4ead:	e8 9e f3 ff ff       	call   4250 <operator delete(void*)@plt>
    4eb2:	4c 89 e7             	mov    %r12,%rdi
    4eb5:	e8 f6 a6 00 00       	call   f5b0 <ML::LayerParams::~LayerParams()>
    4eba:	48 8b bc 24 a0 01 00 	mov    0x1a0(%rsp),%rdi
    4ec1:	00 
    4ec2:	48 8d 84 24 b0 01 00 	lea    0x1b0(%rsp),%rax
    4ec9:	00 
    4eca:	48 39 c7             	cmp    %rax,%rdi
    4ecd:	74 05                	je     4ed4 <ML::build4QModel() [clone .cold]+0x155>
    4ecf:	e8 7c f3 ff ff       	call   4250 <operator delete(void*)@plt>
    4ed4:	48 8b bc 24 40 01 00 	mov    0x140(%rsp),%rdi
    4edb:	00 
    4edc:	48 85 ff             	test   %rdi,%rdi
    4edf:	74 05                	je     4ee6 <ML::build4QModel() [clone .cold]+0x167>
    4ee1:	e8 6a f3 ff ff       	call   4250 <operator delete(void*)@plt>
    4ee6:	4c 89 ef             	mov    %r13,%rdi
    4ee9:	e8 c2 a6 00 00       	call   f5b0 <ML::LayerParams::~LayerParams()>
    4eee:	48 8b bc 24 c0 01 00 	mov    0x1c0(%rsp),%rdi
    4ef5:	00 
    4ef6:	48 8d 84 24 d0 01 00 	lea    0x1d0(%rsp),%rax
    4efd:	00 
    4efe:	48 39 c7             	cmp    %rax,%rdi
    4f01:	0f 84 58 ff ff ff    	je     4e5f <ML::build4QModel() [clone .cold]+0xe0>
    4f07:	e8 44 f3 ff ff       	call   4250 <operator delete(void*)@plt>
    4f0c:	e9 4e ff ff ff       	jmp    4e5f <ML::build4QModel() [clone .cold]+0xe0>
    4f11:	48 8b 7c 24 30       	mov    0x30(%rsp),%rdi
    4f16:	c5 f8 77             	vzeroupper
    4f19:	e8 32 f3 ff ff       	call   4250 <operator delete(void*)@plt>
    4f1e:	4c 89 e7             	mov    %r12,%rdi
    4f21:	e8 8a a6 00 00       	call   f5b0 <ML::LayerParams::~LayerParams()>
    4f26:	48 8b bc 24 e0 01 00 	mov    0x1e0(%rsp),%rdi
    4f2d:	00 
    4f2e:	48 85 ff             	test   %rdi,%rdi
    4f31:	74 05                	je     4f38 <ML::build4QModel() [clone .cold]+0x1b9>
    4f33:	e8 18 f3 ff ff       	call   4250 <operator delete(void*)@plt>
    4f38:	4c 89 ef             	mov    %r13,%rdi
    4f3b:	e8 70 a6 00 00       	call   f5b0 <ML::LayerParams::~LayerParams()>
    4f40:	e9 67 fe ff ff       	jmp    4dac <ML::build4QModel() [clone .cold]+0x2d>
    4f45:	4c 89 f7             	mov    %r14,%rdi
    4f48:	c5 f8 77             	vzeroupper
    4f4b:	4d 89 fe             	mov    %r15,%r14
    4f4e:	e8 5d a6 00 00       	call   f5b0 <ML::LayerParams::~LayerParams()>
    4f53:	48 8b bc 24 20 01 00 	mov    0x120(%rsp),%rdi
    4f5a:	00 
    4f5b:	48 85 ff             	test   %rdi,%rdi
    4f5e:	74 05                	je     4f65 <ML::build4QModel() [clone .cold]+0x1e6>
    4f60:	e8 eb f2 ff ff       	call   4250 <operator delete(void*)@plt>
    4f65:	48 89 df             	mov    %rbx,%rdi
    4f68:	4c 89 f3             	mov    %r14,%rbx
    4f6b:	e8 40 a6 00 00       	call   f5b0 <ML::LayerParams::~LayerParams()>
    4f70:	48 8b bc 24 40 01 00 	mov    0x140(%rsp),%rdi
    4f77:	00 
    4f78:	48 85 ff             	test   %rdi,%rdi
    4f7b:	74 05                	je     4f82 <ML::build4QModel() [clone .cold]+0x203>
    4f7d:	e8 ce f2 ff ff       	call   4250 <operator delete(void*)@plt>
    4f82:	4c 89 e7             	mov    %r12,%rdi
    4f85:	e8 26 a6 00 00       	call   f5b0 <ML::LayerParams::~LayerParams()>
    4f8a:	48 8b bc 24 a0 01 00 	mov    0x1a0(%rsp),%rdi
    4f91:	00 
    4f92:	48 8b 44 24 60       	mov    0x60(%rsp),%rax
    4f97:	48 39 c7             	cmp    %rax,%rdi
    4f9a:	74 05                	je     4fa1 <ML::build4QModel() [clone .cold]+0x222>
    4f9c:	e8 af f2 ff ff       	call   4250 <operator delete(void*)@plt>
    4fa1:	48 8b bc 24 60 01 00 	mov    0x160(%rsp),%rdi
    4fa8:	00 
    4fa9:	48 85 ff             	test   %rdi,%rdi
    4fac:	75 35                	jne    4fe3 <ML::build4QModel() [clone .cold]+0x264>
    4fae:	4c 89 ef             	mov    %r13,%rdi
    4fb1:	e8 fa a5 00 00       	call   f5b0 <ML::LayerParams::~LayerParams()>
    4fb6:	48 8b bc 24 c0 01 00 	mov    0x1c0(%rsp),%rdi
    4fbd:	00 
    4fbe:	48 8b 44 24 58       	mov    0x58(%rsp),%rax
    4fc3:	48 39 c7             	cmp    %rax,%rdi
    4fc6:	74 05                	je     4fcd <ML::build4QModel() [clone .cold]+0x24e>
    4fc8:	e8 83 f2 ff ff       	call   4250 <operator delete(void*)@plt>
    4fcd:	48 8b bc 24 80 01 00 	mov    0x180(%rsp),%rdi
    4fd4:	00 
    4fd5:	48 85 ff             	test   %rdi,%rdi
    4fd8:	0f 85 db fd ff ff    	jne    4db9 <ML::build4QModel() [clone .cold]+0x3a>
    4fde:	e9 db fd ff ff       	jmp    4dbe <ML::build4QModel() [clone .cold]+0x3f>
    4fe3:	e8 68 f2 ff ff       	call   4250 <operator delete(void*)@plt>
    4fe8:	eb c4                	jmp    4fae <ML::build4QModel() [clone .cold]+0x22f>
    4fea:	4c 89 f7             	mov    %r14,%rdi
    4fed:	c5 f8 77             	vzeroupper
    4ff0:	4d 89 fe             	mov    %r15,%r14
    4ff3:	e8 b8 a5 00 00       	call   f5b0 <ML::LayerParams::~LayerParams()>
    4ff8:	48 8b bc 24 20 01 00 	mov    0x120(%rsp),%rdi
    4fff:	00 
    5000:	48 85 ff             	test   %rdi,%rdi
    5003:	74 05                	je     500a <ML::build4QModel() [clone .cold]+0x28b>
    5005:	e8 46 f2 ff ff       	call   4250 <operator delete(void*)@plt>
    500a:	48 89 df             	mov    %rbx,%rdi
    500d:	4c 89 f3             	mov    %r14,%rbx
    5010:	e8 9b a5 00 00       	call   f5b0 <ML::LayerParams::~LayerParams()>
    5015:	48 8b bc 24 40 01 00 	mov    0x140(%rsp),%rdi
    501c:	00 
    501d:	48 85 ff             	test   %rdi,%rdi
    5020:	0f 85 7a 01 00 00    	jne    51a0 <ML::build4QModel() [clone .cold]+0x421>
    5026:	4c 89 e7             	mov    %r12,%rdi
    5029:	e8 82 a5 00 00       	call   f5b0 <ML::LayerParams::~LayerParams()>
    502e:	48 8b bc 24 a0 01 00 	mov    0x1a0(%rsp),%rdi
    5035:	00 
    5036:	48 8b 44 24 60       	mov    0x60(%rsp),%rax
    503b:	48 39 c7             	cmp    %rax,%rdi
    503e:	74 05                	je     5045 <ML::build4QModel() [clone .cold]+0x2c6>
    5040:	e8 0b f2 ff ff       	call   4250 <operator delete(void*)@plt>
    5045:	48 8b bc 24 60 01 00 	mov    0x160(%rsp),%rdi
    504c:	00 
    504d:	48 85 ff             	test   %rdi,%rdi
    5050:	0f 85 62 01 00 00    	jne    51b8 <ML::build4QModel() [clone .cold]+0x439>
    5056:	4c 89 ef             	mov    %r13,%rdi
    5059:	e8 52 a5 00 00       	call   f5b0 <ML::LayerParams::~LayerParams()>
    505e:	48 8b bc 24 c0 01 00 	mov    0x1c0(%rsp),%rdi
    5065:	00 
    5066:	48 8b 44 24 58       	mov    0x58(%rsp),%rax
    506b:	48 39 c7             	cmp    %rax,%rdi
    506e:	0f 84 59 ff ff ff    	je     4fcd <ML::build4QModel() [clone .cold]+0x24e>
    5074:	e8 d7 f1 ff ff       	call   4250 <operator delete(void*)@plt>
    5079:	e9 4f ff ff ff       	jmp    4fcd <ML::build4QModel() [clone .cold]+0x24e>
    507e:	4c 89 f7             	mov    %r14,%rdi
    5081:	c5 f8 77             	vzeroupper
    5084:	4d 89 fe             	mov    %r15,%r14
    5087:	e8 24 a5 00 00       	call   f5b0 <ML::LayerParams::~LayerParams()>
    508c:	48 8b bc 24 e0 00 00 	mov    0xe0(%rsp),%rdi
    5093:	00 
    5094:	48 85 ff             	test   %rdi,%rdi
    5097:	74 05                	je     509e <ML::build4QModel() [clone .cold]+0x31f>
    5099:	e8 b2 f1 ff ff       	call   4250 <operator delete(void*)@plt>
    509e:	48 89 df             	mov    %rbx,%rdi
    50a1:	4c 89 f3             	mov    %r14,%rbx
    50a4:	e8 07 a5 00 00       	call   f5b0 <ML::LayerParams::~LayerParams()>
    50a9:	48 8b bc 24 20 01 00 	mov    0x120(%rsp),%rdi
    50b0:	00 
    50b1:	48 85 ff             	test   %rdi,%rdi
    50b4:	74 05                	je     50bb <ML::build4QModel() [clone .cold]+0x33c>
    50b6:	e8 95 f1 ff ff       	call   4250 <operator delete(void*)@plt>
    50bb:	4c 89 e7             	mov    %r12,%rdi
    50be:	e8 ed a4 00 00       	call   f5b0 <ML::LayerParams::~LayerParams()>
    50c3:	48 8b bc 24 a0 01 00 	mov    0x1a0(%rsp),%rdi
    50ca:	00 
    50cb:	48 8b 44 24 60       	mov    0x60(%rsp),%rax
    50d0:	48 39 c7             	cmp    %rax,%rdi
    50d3:	74 05                	je     50da <ML::build4QModel() [clone .cold]+0x35b>
    50d5:	e8 76 f1 ff ff       	call   4250 <operator delete(void*)@plt>
    50da:	48 8b bc 24 40 01 00 	mov    0x140(%rsp),%rdi
    50e1:	00 
    50e2:	48 85 ff             	test   %rdi,%rdi
    50e5:	74 05                	je     50ec <ML::build4QModel() [clone .cold]+0x36d>
    50e7:	e8 64 f1 ff ff       	call   4250 <operator delete(void*)@plt>
    50ec:	4c 89 ef             	mov    %r13,%rdi
    50ef:	e8 bc a4 00 00       	call   f5b0 <ML::LayerParams::~LayerParams()>
    50f4:	48 8b bc 24 c0 01 00 	mov    0x1c0(%rsp),%rdi
    50fb:	00 
    50fc:	48 8b 44 24 58       	mov    0x58(%rsp),%rax
    5101:	48 39 c7             	cmp    %rax,%rdi
    5104:	0f 84 55 fd ff ff    	je     4e5f <ML::build4QModel() [clone .cold]+0xe0>
    510a:	e8 41 f1 ff ff       	call   4250 <operator delete(void*)@plt>
    510f:	e9 4b fd ff ff       	jmp    4e5f <ML::build4QModel() [clone .cold]+0xe0>
    5114:	4c 89 f7             	mov    %r14,%rdi
    5117:	c5 f8 77             	vzeroupper
    511a:	4d 89 fe             	mov    %r15,%r14
    511d:	e8 8e a4 00 00       	call   f5b0 <ML::LayerParams::~LayerParams()>
    5122:	48 8b bc 24 e0 00 00 	mov    0xe0(%rsp),%rdi
    5129:	00 
    512a:	48 85 ff             	test   %rdi,%rdi
    512d:	74 05                	je     5134 <ML::build4QModel() [clone .cold]+0x3b5>
    512f:	e8 1c f1 ff ff       	call   4250 <operator delete(void*)@plt>
    5134:	48 89 df             	mov    %rbx,%rdi
    5137:	4c 89 f3             	mov    %r14,%rbx
    513a:	e8 71 a4 00 00       	call   f5b0 <ML::LayerParams::~LayerParams()>
    513f:	48 8b bc 24 20 01 00 	mov    0x120(%rsp),%rdi
    5146:	00 
    5147:	48 85 ff             	test   %rdi,%rdi
    514a:	75 5e                	jne    51aa <ML::build4QModel() [clone .cold]+0x42b>
    514c:	4c 89 e7             	mov    %r12,%rdi
    514f:	e8 5c a4 00 00       	call   f5b0 <ML::LayerParams::~LayerParams()>
    5154:	48 8b bc 24 a0 01 00 	mov    0x1a0(%rsp),%rdi
    515b:	00 
    515c:	48 8b 44 24 60       	mov    0x60(%rsp),%rax
    5161:	48 39 c7             	cmp    %rax,%rdi
    5164:	74 05                	je     516b <ML::build4QModel() [clone .cold]+0x3ec>
    5166:	e8 e5 f0 ff ff       	call   4250 <operator delete(void*)@plt>
    516b:	48 8b bc 24 40 01 00 	mov    0x140(%rsp),%rdi
    5172:	00 
    5173:	48 85 ff             	test   %rdi,%rdi
    5176:	75 39                	jne    51b1 <ML::build4QModel() [clone .cold]+0x432>
    5178:	4c 89 ef             	mov    %r13,%rdi
    517b:	e8 30 a4 00 00       	call   f5b0 <ML::LayerParams::~LayerParams()>
    5180:	48 8b bc 24 c0 01 00 	mov    0x1c0(%rsp),%rdi
    5187:	00 
    5188:	48 8b 44 24 58       	mov    0x58(%rsp),%rax
    518d:	48 39 c7             	cmp    %rax,%rdi
    5190:	0f 84 c9 fc ff ff    	je     4e5f <ML::build4QModel() [clone .cold]+0xe0>
    5196:	e8 b5 f0 ff ff       	call   4250 <operator delete(void*)@plt>
    519b:	e9 bf fc ff ff       	jmp    4e5f <ML::build4QModel() [clone .cold]+0xe0>
    51a0:	e8 ab f0 ff ff       	call   4250 <operator delete(void*)@plt>
    51a5:	e9 7c fe ff ff       	jmp    5026 <ML::build4QModel() [clone .cold]+0x2a7>
    51aa:	e8 a1 f0 ff ff       	call   4250 <operator delete(void*)@plt>
    51af:	eb 9b                	jmp    514c <ML::build4QModel() [clone .cold]+0x3cd>
    51b1:	e8 9a f0 ff ff       	call   4250 <operator delete(void*)@plt>
    51b6:	eb c0                	jmp    5178 <ML::build4QModel() [clone .cold]+0x3f9>
    51b8:	e8 93 f0 ff ff       	call   4250 <operator delete(void*)@plt>
    51bd:	e9 94 fe ff ff       	jmp    5056 <ML::build4QModel() [clone .cold]+0x2d7>
    51c2:	4c 89 e7             	mov    %r12,%rdi
    51c5:	c5 f8 77             	vzeroupper
    51c8:	e8 e3 a3 00 00       	call   f5b0 <ML::LayerParams::~LayerParams()>
    51cd:	48 8b bc 24 c0 01 00 	mov    0x1c0(%rsp),%rdi
    51d4:	00 
    51d5:	48 85 ff             	test   %rdi,%rdi
    51d8:	74 05                	je     51df <ML::build4QModel() [clone .cold]+0x460>
    51da:	e8 71 f0 ff ff       	call   4250 <operator delete(void*)@plt>
    51df:	4c 89 ef             	mov    %r13,%rdi
    51e2:	e8 c9 a3 00 00       	call   f5b0 <ML::LayerParams::~LayerParams()>
    51e7:	e9 c0 fb ff ff       	jmp    4dac <ML::build4QModel() [clone .cold]+0x2d>
    51ec:	4c 89 e7             	mov    %r12,%rdi
    51ef:	c5 f8 77             	vzeroupper
    51f2:	e8 b9 a3 00 00       	call   f5b0 <ML::LayerParams::~LayerParams()>
    51f7:	48 8b bc 24 c0 01 00 	mov    0x1c0(%rsp),%rdi
    51fe:	00 
    51ff:	48 85 ff             	test   %rdi,%rdi
    5202:	74 05                	je     5209 <ML::build4QModel() [clone .cold]+0x48a>
    5204:	e8 47 f0 ff ff       	call   4250 <operator delete(void*)@plt>
    5209:	4c 89 ef             	mov    %r13,%rdi
    520c:	e8 9f a3 00 00       	call   f5b0 <ML::LayerParams::~LayerParams()>
    5211:	e9 96 fb ff ff       	jmp    4dac <ML::build4QModel() [clone .cold]+0x2d>
    5216:	4c 89 f7             	mov    %r14,%rdi
    5219:	c5 f8 77             	vzeroupper
    521c:	4d 89 fe             	mov    %r15,%r14
    521f:	e8 8c a3 00 00       	call   f5b0 <ML::LayerParams::~LayerParams()>
    5224:	48 8b bc 24 e0 00 00 	mov    0xe0(%rsp),%rdi
    522b:	00 
    522c:	48 85 ff             	test   %rdi,%rdi
    522f:	74 05                	je     5236 <ML::build4QModel() [clone .cold]+0x4b7>
    5231:	e8 1a f0 ff ff       	call   4250 <operator delete(void*)@plt>
    5236:	48 89 df             	mov    %rbx,%rdi
    5239:	4c 89 f3             	mov    %r14,%rbx
    523c:	e8 6f a3 00 00       	call   f5b0 <ML::LayerParams::~LayerParams()>
    5241:	48 8b bc 24 20 01 00 	mov    0x120(%rsp),%rdi
    5248:	00 
    5249:	48 85 ff             	test   %rdi,%rdi
    524c:	74 05                	je     5253 <ML::build4QModel() [clone .cold]+0x4d4>
    524e:	e8 fd ef ff ff       	call   4250 <operator delete(void*)@plt>
    5253:	4c 89 e7             	mov    %r12,%rdi
    5256:	e8 55 a3 00 00       	call   f5b0 <ML::LayerParams::~LayerParams()>
    525b:	48 8b bc 24 a0 01 00 	mov    0x1a0(%rsp),%rdi
    5262:	00 
    5263:	48 8b 44 24 60       	mov    0x60(%rsp),%rax
    5268:	48 39 c7             	cmp    %rax,%rdi
    526b:	74 05                	je     5272 <ML::build4QModel() [clone .cold]+0x4f3>
    526d:	e8 de ef ff ff       	call   4250 <operator delete(void*)@plt>
    5272:	48 8b bc 24 40 01 00 	mov    0x140(%rsp),%rdi
    5279:	00 
    527a:	48 85 ff             	test   %rdi,%rdi
    527d:	74 05                	je     5284 <ML::build4QModel() [clone .cold]+0x505>
    527f:	e8 cc ef ff ff       	call   4250 <operator delete(void*)@plt>
    5284:	4c 89 ef             	mov    %r13,%rdi
    5287:	e8 24 a3 00 00       	call   f5b0 <ML::LayerParams::~LayerParams()>
    528c:	48 8b bc 24 c0 01 00 	mov    0x1c0(%rsp),%rdi
    5293:	00 
    5294:	48 8b 44 24 58       	mov    0x58(%rsp),%rax
    5299:	48 39 c7             	cmp    %rax,%rdi
    529c:	0f 84 bd fb ff ff    	je     4e5f <ML::build4QModel() [clone .cold]+0xe0>
    52a2:	e8 a9 ef ff ff       	call   4250 <operator delete(void*)@plt>
    52a7:	e9 b3 fb ff ff       	jmp    4e5f <ML::build4QModel() [clone .cold]+0xe0>
    52ac:	e8 9f ef ff ff       	call   4250 <operator delete(void*)@plt>
    52b1:	e9 8a fb ff ff       	jmp    4e40 <ML::build4QModel() [clone .cold]+0xc1>
    52b6:	4c 89 f7             	mov    %r14,%rdi
    52b9:	c5 f8 77             	vzeroupper
    52bc:	4d 89 fe             	mov    %r15,%r14
    52bf:	e8 ec a2 00 00       	call   f5b0 <ML::LayerParams::~LayerParams()>
    52c4:	48 8b bc 24 e0 00 00 	mov    0xe0(%rsp),%rdi
    52cb:	00 
    52cc:	48 85 ff             	test   %rdi,%rdi
    52cf:	74 05                	je     52d6 <ML::build4QModel() [clone .cold]+0x557>
    52d1:	e8 7a ef ff ff       	call   4250 <operator delete(void*)@plt>
    52d6:	48 89 df             	mov    %rbx,%rdi
    52d9:	4c 89 f3             	mov    %r14,%rbx
    52dc:	e8 cf a2 00 00       	call   f5b0 <ML::LayerParams::~LayerParams()>
    52e1:	48 8b bc 24 20 01 00 	mov    0x120(%rsp),%rdi
    52e8:	00 
    52e9:	48 85 ff             	test   %rdi,%rdi
    52ec:	74 05                	je     52f3 <ML::build4QModel() [clone .cold]+0x574>
    52ee:	e8 5d ef ff ff       	call   4250 <operator delete(void*)@plt>
    52f3:	4c 89 e7             	mov    %r12,%rdi
    52f6:	e8 b5 a2 00 00       	call   f5b0 <ML::LayerParams::~LayerParams()>
    52fb:	48 8b bc 24 a0 01 00 	mov    0x1a0(%rsp),%rdi
    5302:	00 
    5303:	48 8b 44 24 60       	mov    0x60(%rsp),%rax
    5308:	48 39 c7             	cmp    %rax,%rdi
    530b:	74 05                	je     5312 <ML::build4QModel() [clone .cold]+0x593>
    530d:	e8 3e ef ff ff       	call   4250 <operator delete(void*)@plt>
    5312:	48 8b bc 24 40 01 00 	mov    0x140(%rsp),%rdi
    5319:	00 
    531a:	48 85 ff             	test   %rdi,%rdi
    531d:	74 05                	je     5324 <ML::build4QModel() [clone .cold]+0x5a5>
    531f:	e8 2c ef ff ff       	call   4250 <operator delete(void*)@plt>
    5324:	4c 89 ef             	mov    %r13,%rdi
    5327:	e8 84 a2 00 00       	call   f5b0 <ML::LayerParams::~LayerParams()>
    532c:	48 8b bc 24 c0 01 00 	mov    0x1c0(%rsp),%rdi
    5333:	00 
    5334:	48 8b 44 24 58       	mov    0x58(%rsp),%rax
    5339:	48 39 c7             	cmp    %rax,%rdi
    533c:	0f 84 1d fb ff ff    	je     4e5f <ML::build4QModel() [clone .cold]+0xe0>
    5342:	e8 09 ef ff ff       	call   4250 <operator delete(void*)@plt>
    5347:	e9 13 fb ff ff       	jmp    4e5f <ML::build4QModel() [clone .cold]+0xe0>
    534c:	4c 89 e7             	mov    %r12,%rdi
    534f:	c5 f8 77             	vzeroupper
    5352:	e8 59 a2 00 00       	call   f5b0 <ML::LayerParams::~LayerParams()>
    5357:	48 8b bc 24 c0 01 00 	mov    0x1c0(%rsp),%rdi
    535e:	00 
    535f:	48 85 ff             	test   %rdi,%rdi
    5362:	74 05                	je     5369 <ML::build4QModel() [clone .cold]+0x5ea>
    5364:	e8 e7 ee ff ff       	call   4250 <operator delete(void*)@plt>
    5369:	4c 89 ef             	mov    %r13,%rdi
    536c:	e8 3f a2 00 00       	call   f5b0 <ML::LayerParams::~LayerParams()>
    5371:	e9 36 fa ff ff       	jmp    4dac <ML::build4QModel() [clone .cold]+0x2d>

0000000000005376 <ML::build8QModel() [clone .cold]>:
    5376:	4c 89 f7             	mov    %r14,%rdi
    5379:	c5 f8 77             	vzeroupper
    537c:	e8 cf ee ff ff       	call   4250 <operator delete(void*)@plt>
    5381:	4c 89 e7             	mov    %r12,%rdi
    5384:	e8 27 a2 00 00       	call   f5b0 <ML::LayerParams::~LayerParams()>
    5389:	48 8b bc 24 e0 01 00 	mov    0x1e0(%rsp),%rdi
    5390:	00 
    5391:	48 85 ff             	test   %rdi,%rdi
    5394:	74 05                	je     539b <ML::build8QModel() [clone .cold]+0x25>
    5396:	e8 b5 ee ff ff       	call   4250 <operator delete(void*)@plt>
    539b:	4c 89 ef             	mov    %r13,%rdi
    539e:	e8 0d a2 00 00       	call   f5b0 <ML::LayerParams::~LayerParams()>
    53a3:	48 8b bc 24 20 02 00 	mov    0x220(%rsp),%rdi
    53aa:	00 
    53ab:	48 85 ff             	test   %rdi,%rdi
    53ae:	74 05                	je     53b5 <ML::build8QModel() [clone .cold]+0x3f>
    53b0:	e8 9b ee ff ff       	call   4250 <operator delete(void*)@plt>
    53b5:	48 8b bc 24 90 00 00 	mov    0x90(%rsp),%rdi
    53bc:	00 
    53bd:	e8 de 23 02 00       	call   277a0 <std::vector<std::unique_ptr<ML::Layer, std::default_delete<ML::Layer> >, std::allocator<std::unique_ptr<ML::Layer, std::default_delete<ML::Layer> > > >::~vector()>
    53c2:	48 89 df             	mov    %rbx,%rdi
    53c5:	e8 96 f0 ff ff       	call   4460 <_Unwind_Resume@plt>
    53ca:	4c 89 f7             	mov    %r14,%rdi
    53cd:	c5 f8 77             	vzeroupper
    53d0:	4d 89 fe             	mov    %r15,%r14
    53d3:	e8 d8 a1 00 00       	call   f5b0 <ML::LayerParams::~LayerParams()>
    53d8:	48 8b bc 24 e0 00 00 	mov    0xe0(%rsp),%rdi
    53df:	00 
    53e0:	48 85 ff             	test   %rdi,%rdi
    53e3:	74 05                	je     53ea <ML::build8QModel() [clone .cold]+0x74>
    53e5:	e8 66 ee ff ff       	call   4250 <operator delete(void*)@plt>
    53ea:	48 89 df             	mov    %rbx,%rdi
    53ed:	4c 89 f3             	mov    %r14,%rbx
    53f0:	e8 bb a1 00 00       	call   f5b0 <ML::LayerParams::~LayerParams()>
    53f5:	48 8b bc 24 20 01 00 	mov    0x120(%rsp),%rdi
    53fc:	00 
    53fd:	48 85 ff             	test   %rdi,%rdi
    5400:	74 05                	je     5407 <ML::build8QModel() [clone .cold]+0x91>
    5402:	e8 49 ee ff ff       	call   4250 <operator delete(void*)@plt>
    5407:	4c 89 e7             	mov    %r12,%rdi
    540a:	e8 a1 a1 00 00       	call   f5b0 <ML::LayerParams::~LayerParams()>
    540f:	48 8b bc 24 a0 01 00 	mov    0x1a0(%rsp),%rdi
    5416:	00 
    5417:	48 8b 44 24 60       	mov    0x60(%rsp),%rax
    541c:	48 39 c7             	cmp    %rax,%rdi
    541f:	74 05                	je     5426 <ML::build8QModel() [clone .cold]+0xb0>
    5421:	e8 2a ee ff ff       	call   4250 <operator delete(void*)@plt>
    5426:	48 8b bc 24 40 01 00 	mov    0x140(%rsp),%rdi
    542d:	00 
    542e:	48 85 ff             	test   %rdi,%rdi
    5431:	0f 85 6c 04 00 00    	jne    58a3 <ML::build8QModel() [clone .cold]+0x52d>
    5437:	4c 89 ef             	mov    %r13,%rdi
    543a:	e8 71 a1 00 00       	call   f5b0 <ML::LayerParams::~LayerParams()>
    543f:	48 8b bc 24 c0 01 00 	mov    0x1c0(%rsp),%rdi
    5446:	00 
    5447:	48 8b 44 24 58       	mov    0x58(%rsp),%rax
    544c:	48 39 c7             	cmp    %rax,%rdi
    544f:	74 05                	je     5456 <ML::build8QModel() [clone .cold]+0xe0>
    5451:	e8 fa ed ff ff       	call   4250 <operator delete(void*)@plt>
    5456:	48 8b bc 24 60 01 00 	mov    0x160(%rsp),%rdi
    545d:	00 
    545e:	48 85 ff             	test   %rdi,%rdi
    5461:	0f 85 49 ff ff ff    	jne    53b0 <ML::build8QModel() [clone .cold]+0x3a>
    5467:	e9 49 ff ff ff       	jmp    53b5 <ML::build8QModel() [clone .cold]+0x3f>
    546c:	4c 89 f7             	mov    %r14,%rdi
    546f:	c5 f8 77             	vzeroupper
    5472:	4d 89 fe             	mov    %r15,%r14
    5475:	e8 36 a1 00 00       	call   f5b0 <ML::LayerParams::~LayerParams()>
    547a:	48 8b bc 24 e0 00 00 	mov    0xe0(%rsp),%rdi
    5481:	00 
    5482:	48 85 ff             	test   %rdi,%rdi
    5485:	74 05                	je     548c <ML::build8QModel() [clone .cold]+0x116>
    5487:	e8 c4 ed ff ff       	call   4250 <operator delete(void*)@plt>
    548c:	48 89 df             	mov    %rbx,%rdi
    548f:	4c 89 f3             	mov    %r14,%rbx
    5492:	e8 19 a1 00 00       	call   f5b0 <ML::LayerParams::~LayerParams()>
    5497:	48 8b bc 24 20 01 00 	mov    0x120(%rsp),%rdi
    549e:	00 
    549f:	48 85 ff             	test   %rdi,%rdi
    54a2:	74 05                	je     54a9 <ML::build8QModel() [clone .cold]+0x133>
    54a4:	e8 a7 ed ff ff       	call   4250 <operator delete(void*)@plt>
    54a9:	4c 89 e7             	mov    %r12,%rdi
    54ac:	e8 ff a0 00 00       	call   f5b0 <ML::LayerParams::~LayerParams()>
    54b1:	48 8b bc 24 a0 01 00 	mov    0x1a0(%rsp),%rdi
    54b8:	00 
    54b9:	48 8d 84 24 b0 01 00 	lea    0x1b0(%rsp),%rax
    54c0:	00 
    54c1:	48 39 c7             	cmp    %rax,%rdi
    54c4:	74 05                	je     54cb <ML::build8QModel() [clone .cold]+0x155>
    54c6:	e8 85 ed ff ff       	call   4250 <operator delete(void*)@plt>
    54cb:	48 8b bc 24 40 01 00 	mov    0x140(%rsp),%rdi
    54d2:	00 
    54d3:	48 85 ff             	test   %rdi,%rdi
    54d6:	74 05                	je     54dd <ML::build8QModel() [clone .cold]+0x167>
    54d8:	e8 73 ed ff ff       	call   4250 <operator delete(void*)@plt>
    54dd:	4c 89 ef             	mov    %r13,%rdi
    54e0:	e8 cb a0 00 00       	call   f5b0 <ML::LayerParams::~LayerParams()>
    54e5:	48 8b bc 24 c0 01 00 	mov    0x1c0(%rsp),%rdi
    54ec:	00 
    54ed:	48 8d 84 24 d0 01 00 	lea    0x1d0(%rsp),%rax
    54f4:	00 
    54f5:	48 39 c7             	cmp    %rax,%rdi
    54f8:	0f 84 58 ff ff ff    	je     5456 <ML::build8QModel() [clone .cold]+0xe0>
    54fe:	e8 4d ed ff ff       	call   4250 <operator delete(void*)@plt>
    5503:	e9 4e ff ff ff       	jmp    5456 <ML::build8QModel() [clone .cold]+0xe0>
    5508:	48 8b 7c 24 30       	mov    0x30(%rsp),%rdi
    550d:	c5 f8 77             	vzeroupper
    5510:	e8 3b ed ff ff       	call   4250 <operator delete(void*)@plt>
    5515:	4c 89 e7             	mov    %r12,%rdi
    5518:	e8 93 a0 00 00       	call   f5b0 <ML::LayerParams::~LayerParams()>
    551d:	48 8b bc 24 e0 01 00 	mov    0x1e0(%rsp),%rdi
    5524:	00 
    5525:	48 85 ff             	test   %rdi,%rdi
    5528:	74 05                	je     552f <ML::build8QModel() [clone .cold]+0x1b9>
    552a:	e8 21 ed ff ff       	call   4250 <operator delete(void*)@plt>
    552f:	4c 89 ef             	mov    %r13,%rdi
    5532:	e8 79 a0 00 00       	call   f5b0 <ML::LayerParams::~LayerParams()>
    5537:	e9 67 fe ff ff       	jmp    53a3 <ML::build8QModel() [clone .cold]+0x2d>
    553c:	4c 89 f7             	mov    %r14,%rdi
    553f:	c5 f8 77             	vzeroupper
    5542:	4d 89 fe             	mov    %r15,%r14
    5545:	e8 66 a0 00 00       	call   f5b0 <ML::LayerParams::~LayerParams()>
    554a:	48 8b bc 24 20 01 00 	mov    0x120(%rsp),%rdi
    5551:	00 
    5552:	48 85 ff             	test   %rdi,%rdi
    5555:	74 05                	je     555c <ML::build8QModel() [clone .cold]+0x1e6>
    5557:	e8 f4 ec ff ff       	call   4250 <operator delete(void*)@plt>
    555c:	48 89 df             	mov    %rbx,%rdi
    555f:	4c 89 f3             	mov    %r14,%rbx
    5562:	e8 49 a0 00 00       	call   f5b0 <ML::LayerParams::~LayerParams()>
    5567:	48 8b bc 24 40 01 00 	mov    0x140(%rsp),%rdi
    556e:	00 
    556f:	48 85 ff             	test   %rdi,%rdi
    5572:	74 05                	je     5579 <ML::build8QModel() [clone .cold]+0x203>
    5574:	e8 d7 ec ff ff       	call   4250 <operator delete(void*)@plt>
    5579:	4c 89 e7             	mov    %r12,%rdi
    557c:	e8 2f a0 00 00       	call   f5b0 <ML::LayerParams::~LayerParams()>
    5581:	48 8b bc 24 a0 01 00 	mov    0x1a0(%rsp),%rdi
    5588:	00 
    5589:	48 8b 44 24 60       	mov    0x60(%rsp),%rax
    558e:	48 39 c7             	cmp    %rax,%rdi
    5591:	74 05                	je     5598 <ML::build8QModel() [clone .cold]+0x222>
    5593:	e8 b8 ec ff ff       	call   4250 <operator delete(void*)@plt>
    5598:	48 8b bc 24 60 01 00 	mov    0x160(%rsp),%rdi
    559f:	00 
    55a0:	48 85 ff             	test   %rdi,%rdi
    55a3:	75 35                	jne    55da <ML::build8QModel() [clone .cold]+0x264>
    55a5:	4c 89 ef             	mov    %r13,%rdi
    55a8:	e8 03 a0 00 00       	call   f5b0 <ML::LayerParams::~LayerParams()>
    55ad:	48 8b bc 24 c0 01 00 	mov    0x1c0(%rsp),%rdi
    55b4:	00 
    55b5:	48 8b 44 24 58       	mov    0x58(%rsp),%rax
    55ba:	48 39 c7             	cmp    %rax,%rdi
    55bd:	74 05                	je     55c4 <ML::build8QModel() [clone .cold]+0x24e>
    55bf:	e8 8c ec ff ff       	call   4250 <operator delete(void*)@plt>
    55c4:	48 8b bc 24 80 01 00 	mov    0x180(%rsp),%rdi
    55cb:	00 
    55cc:	48 85 ff             	test   %rdi,%rdi
    55cf:	0f 85 db fd ff ff    	jne    53b0 <ML::build8QModel() [clone .cold]+0x3a>
    55d5:	e9 db fd ff ff       	jmp    53b5 <ML::build8QModel() [clone .cold]+0x3f>
    55da:	e8 71 ec ff ff       	call   4250 <operator delete(void*)@plt>
    55df:	eb c4                	jmp    55a5 <ML::build8QModel() [clone .cold]+0x22f>
    55e1:	4c 89 f7             	mov    %r14,%rdi
    55e4:	c5 f8 77             	vzeroupper
    55e7:	4d 89 fe             	mov    %r15,%r14
    55ea:	e8 c1 9f 00 00       	call   f5b0 <ML::LayerParams::~LayerParams()>
    55ef:	48 8b bc 24 20 01 00 	mov    0x120(%rsp),%rdi
    55f6:	00 
    55f7:	48 85 ff             	test   %rdi,%rdi
    55fa:	74 05                	je     5601 <ML::build8QModel() [clone .cold]+0x28b>
    55fc:	e8 4f ec ff ff       	call   4250 <operator delete(void*)@plt>
    5601:	48 89 df             	mov    %rbx,%rdi
    5604:	4c 89 f3             	mov    %r14,%rbx
    5607:	e8 a4 9f 00 00       	call   f5b0 <ML::LayerParams::~LayerParams()>
    560c:	48 8b bc 24 40 01 00 	mov    0x140(%rsp),%rdi
    5613:	00 
    5614:	48 85 ff             	test   %rdi,%rdi
    5617:	0f 85 7a 01 00 00    	jne    5797 <ML::build8QModel() [clone .cold]+0x421>
    561d:	4c 89 e7             	mov    %r12,%rdi
    5620:	e8 8b 9f 00 00       	call   f5b0 <ML::LayerParams::~LayerParams()>
    5625:	48 8b bc 24 a0 01 00 	mov    0x1a0(%rsp),%rdi
    562c:	00 
    562d:	48 8b 44 24 60       	mov    0x60(%rsp),%rax
    5632:	48 39 c7             	cmp    %rax,%rdi
    5635:	74 05                	je     563c <ML::build8QModel() [clone .cold]+0x2c6>
    5637:	e8 14 ec ff ff       	call   4250 <operator delete(void*)@plt>
    563c:	48 8b bc 24 60 01 00 	mov    0x160(%rsp),%rdi
    5643:	00 
    5644:	48 85 ff             	test   %rdi,%rdi
    5647:	0f 85 62 01 00 00    	jne    57af <ML::build8QModel() [clone .cold]+0x439>
    564d:	4c 89 ef             	mov    %r13,%rdi
    5650:	e8 5b 9f 00 00       	call   f5b0 <ML::LayerParams::~LayerParams()>
    5655:	48 8b bc 24 c0 01 00 	mov    0x1c0(%rsp),%rdi
    565c:	00 
    565d:	48 8b 44 24 58       	mov    0x58(%rsp),%rax
    5662:	48 39 c7             	cmp    %rax,%rdi
    5665:	0f 84 59 ff ff ff    	je     55c4 <ML::build8QModel() [clone .cold]+0x24e>
    566b:	e8 e0 eb ff ff       	call   4250 <operator delete(void*)@plt>
    5670:	e9 4f ff ff ff       	jmp    55c4 <ML::build8QModel() [clone .cold]+0x24e>
    5675:	4c 89 f7             	mov    %r14,%rdi
    5678:	c5 f8 77             	vzeroupper
    567b:	4d 89 fe             	mov    %r15,%r14
    567e:	e8 2d 9f 00 00       	call   f5b0 <ML::LayerParams::~LayerParams()>
    5683:	48 8b bc 24 e0 00 00 	mov    0xe0(%rsp),%rdi
    568a:	00 
    568b:	48 85 ff             	test   %rdi,%rdi
    568e:	74 05                	je     5695 <ML::build8QModel() [clone .cold]+0x31f>
    5690:	e8 bb eb ff ff       	call   4250 <operator delete(void*)@plt>
    5695:	48 89 df             	mov    %rbx,%rdi
    5698:	4c 89 f3             	mov    %r14,%rbx
    569b:	e8 10 9f 00 00       	call   f5b0 <ML::LayerParams::~LayerParams()>
    56a0:	48 8b bc 24 20 01 00 	mov    0x120(%rsp),%rdi
    56a7:	00 
    56a8:	48 85 ff             	test   %rdi,%rdi
    56ab:	74 05                	je     56b2 <ML::build8QModel() [clone .cold]+0x33c>
    56ad:	e8 9e eb ff ff       	call   4250 <operator delete(void*)@plt>
    56b2:	4c 89 e7             	mov    %r12,%rdi
    56b5:	e8 f6 9e 00 00       	call   f5b0 <ML::LayerParams::~LayerParams()>
    56ba:	48 8b bc 24 a0 01 00 	mov    0x1a0(%rsp),%rdi
    56c1:	00 
    56c2:	48 8b 44 24 60       	mov    0x60(%rsp),%rax
    56c7:	48 39 c7             	cmp    %rax,%rdi
    56ca:	74 05                	je     56d1 <ML::build8QModel() [clone .cold]+0x35b>
    56cc:	e8 7f eb ff ff       	call   4250 <operator delete(void*)@plt>
    56d1:	48 8b bc 24 40 01 00 	mov    0x140(%rsp),%rdi
    56d8:	00 
    56d9:	48 85 ff             	test   %rdi,%rdi
    56dc:	74 05                	je     56e3 <ML::build8QModel() [clone .cold]+0x36d>
    56de:	e8 6d eb ff ff       	call   4250 <operator delete(void*)@plt>
    56e3:	4c 89 ef             	mov    %r13,%rdi
    56e6:	e8 c5 9e 00 00       	call   f5b0 <ML::LayerParams::~LayerParams()>
    56eb:	48 8b bc 24 c0 01 00 	mov    0x1c0(%rsp),%rdi
    56f2:	00 
    56f3:	48 8b 44 24 58       	mov    0x58(%rsp),%rax
    56f8:	48 39 c7             	cmp    %rax,%rdi
    56fb:	0f 84 55 fd ff ff    	je     5456 <ML::build8QModel() [clone .cold]+0xe0>
    5701:	e8 4a eb ff ff       	call   4250 <operator delete(void*)@plt>
    5706:	e9 4b fd ff ff       	jmp    5456 <ML::build8QModel() [clone .cold]+0xe0>
    570b:	4c 89 f7             	mov    %r14,%rdi
    570e:	c5 f8 77             	vzeroupper
    5711:	4d 89 fe             	mov    %r15,%r14
    5714:	e8 97 9e 00 00       	call   f5b0 <ML::LayerParams::~LayerParams()>
    5719:	48 8b bc 24 e0 00 00 	mov    0xe0(%rsp),%rdi
    5720:	00 
    5721:	48 85 ff             	test   %rdi,%rdi
    5724:	74 05                	je     572b <ML::build8QModel() [clone .cold]+0x3b5>
    5726:	e8 25 eb ff ff       	call   4250 <operator delete(void*)@plt>
    572b:	48 89 df             	mov    %rbx,%rdi
    572e:	4c 89 f3             	mov    %r14,%rbx
    5731:	e8 7a 9e 00 00       	call   f5b0 <ML::LayerParams::~LayerParams()>
    5736:	48 8b bc 24 20 01 00 	mov    0x120(%rsp),%rdi
    573d:	00 
    573e:	48 85 ff             	test   %rdi,%rdi
    5741:	75 5e                	jne    57a1 <ML::build8QModel() [clone .cold]+0x42b>
    5743:	4c 89 e7             	mov    %r12,%rdi
    5746:	e8 65 9e 00 00       	call   f5b0 <ML::LayerParams::~LayerParams()>
    574b:	48 8b bc 24 a0 01 00 	mov    0x1a0(%rsp),%rdi
    5752:	00 
    5753:	48 8b 44 24 60       	mov    0x60(%rsp),%rax
    5758:	48 39 c7             	cmp    %rax,%rdi
    575b:	74 05                	je     5762 <ML::build8QModel() [clone .cold]+0x3ec>
    575d:	e8 ee ea ff ff       	call   4250 <operator delete(void*)@plt>
    5762:	48 8b bc 24 40 01 00 	mov    0x140(%rsp),%rdi
    5769:	00 
    576a:	48 85 ff             	test   %rdi,%rdi
    576d:	75 39                	jne    57a8 <ML::build8QModel() [clone .cold]+0x432>
    576f:	4c 89 ef             	mov    %r13,%rdi
    5772:	e8 39 9e 00 00       	call   f5b0 <ML::LayerParams::~LayerParams()>
    5777:	48 8b bc 24 c0 01 00 	mov    0x1c0(%rsp),%rdi
    577e:	00 
    577f:	48 8b 44 24 58       	mov    0x58(%rsp),%rax
    5784:	48 39 c7             	cmp    %rax,%rdi
    5787:	0f 84 c9 fc ff ff    	je     5456 <ML::build8QModel() [clone .cold]+0xe0>
    578d:	e8 be ea ff ff       	call   4250 <operator delete(void*)@plt>
    5792:	e9 bf fc ff ff       	jmp    5456 <ML::build8QModel() [clone .cold]+0xe0>
    5797:	e8 b4 ea ff ff       	call   4250 <operator delete(void*)@plt>
    579c:	e9 7c fe ff ff       	jmp    561d <ML::build8QModel() [clone .cold]+0x2a7>
    57a1:	e8 aa ea ff ff       	call   4250 <operator delete(void*)@plt>
    57a6:	eb 9b                	jmp    5743 <ML::build8QModel() [clone .cold]+0x3cd>
    57a8:	e8 a3 ea ff ff       	call   4250 <operator delete(void*)@plt>
    57ad:	eb c0                	jmp    576f <ML::build8QModel() [clone .cold]+0x3f9>
    57af:	e8 9c ea ff ff       	call   4250 <operator delete(void*)@plt>
    57b4:	e9 94 fe ff ff       	jmp    564d <ML::build8QModel() [clone .cold]+0x2d7>
    57b9:	4c 89 e7             	mov    %r12,%rdi
    57bc:	c5 f8 77             	vzeroupper
    57bf:	e8 ec 9d 00 00       	call   f5b0 <ML::LayerParams::~LayerParams()>
    57c4:	48 8b bc 24 c0 01 00 	mov    0x1c0(%rsp),%rdi
    57cb:	00 
    57cc:	48 85 ff             	test   %rdi,%rdi
    57cf:	74 05                	je     57d6 <ML::build8QModel() [clone .cold]+0x460>
    57d1:	e8 7a ea ff ff       	call   4250 <operator delete(void*)@plt>
    57d6:	4c 89 ef             	mov    %r13,%rdi
    57d9:	e8 d2 9d 00 00       	call   f5b0 <ML::LayerParams::~LayerParams()>
    57de:	e9 c0 fb ff ff       	jmp    53a3 <ML::build8QModel() [clone .cold]+0x2d>
    57e3:	4c 89 e7             	mov    %r12,%rdi
    57e6:	c5 f8 77             	vzeroupper
    57e9:	e8 c2 9d 00 00       	call   f5b0 <ML::LayerParams::~LayerParams()>
    57ee:	48 8b bc 24 c0 01 00 	mov    0x1c0(%rsp),%rdi
    57f5:	00 
    57f6:	48 85 ff             	test   %rdi,%rdi
    57f9:	74 05                	je     5800 <ML::build8QModel() [clone .cold]+0x48a>
    57fb:	e8 50 ea ff ff       	call   4250 <operator delete(void*)@plt>
    5800:	4c 89 ef             	mov    %r13,%rdi
    5803:	e8 a8 9d 00 00       	call   f5b0 <ML::LayerParams::~LayerParams()>
    5808:	e9 96 fb ff ff       	jmp    53a3 <ML::build8QModel() [clone .cold]+0x2d>
    580d:	4c 89 f7             	mov    %r14,%rdi
    5810:	c5 f8 77             	vzeroupper
    5813:	4d 89 fe             	mov    %r15,%r14
    5816:	e8 95 9d 00 00       	call   f5b0 <ML::LayerParams::~LayerParams()>
    581b:	48 8b bc 24 e0 00 00 	mov    0xe0(%rsp),%rdi
    5822:	00 
    5823:	48 85 ff             	test   %rdi,%rdi
    5826:	74 05                	je     582d <ML::build8QModel() [clone .cold]+0x4b7>
    5828:	e8 23 ea ff ff       	call   4250 <operator delete(void*)@plt>
    582d:	48 89 df             	mov    %rbx,%rdi
    5830:	4c 89 f3             	mov    %r14,%rbx
    5833:	e8 78 9d 00 00       	call   f5b0 <ML::LayerParams::~LayerParams()>
    5838:	48 8b bc 24 20 01 00 	mov    0x120(%rsp),%rdi
    583f:	00 
    5840:	48 85 ff             	test   %rdi,%rdi
    5843:	74 05                	je     584a <ML::build8QModel() [clone .cold]+0x4d4>
    5845:	e8 06 ea ff ff       	call   4250 <operator delete(void*)@plt>
    584a:	4c 89 e7             	mov    %r12,%rdi
    584d:	e8 5e 9d 00 00       	call   f5b0 <ML::LayerParams::~LayerParams()>
    5852:	48 8b bc 24 a0 01 00 	mov    0x1a0(%rsp),%rdi
    5859:	00 
    585a:	48 8b 44 24 60       	mov    0x60(%rsp),%rax
    585f:	48 39 c7             	cmp    %rax,%rdi
    5862:	74 05                	je     5869 <ML::build8QModel() [clone .cold]+0x4f3>
    5864:	e8 e7 e9 ff ff       	call   4250 <operator delete(void*)@plt>
    5869:	48 8b bc 24 40 01 00 	mov    0x140(%rsp),%rdi
    5870:	00 
    5871:	48 85 ff             	test   %rdi,%rdi
    5874:	74 05                	je     587b <ML::build8QModel() [clone .cold]+0x505>
    5876:	e8 d5 e9 ff ff       	call   4250 <operator delete(void*)@plt>
    587b:	4c 89 ef             	mov    %r13,%rdi
    587e:	e8 2d 9d 00 00       	call   f5b0 <ML::LayerParams::~LayerParams()>
    5883:	48 8b bc 24 c0 01 00 	mov    0x1c0(%rsp),%rdi
    588a:	00 
    588b:	48 8b 44 24 58       	mov    0x58(%rsp),%rax
    5890:	48 39 c7             	cmp    %rax,%rdi
    5893:	0f 84 bd fb ff ff    	je     5456 <ML::build8QModel() [clone .cold]+0xe0>
    5899:	e8 b2 e9 ff ff       	call   4250 <operator delete(void*)@plt>
    589e:	e9 b3 fb ff ff       	jmp    5456 <ML::build8QModel() [clone .cold]+0xe0>
    58a3:	e8 a8 e9 ff ff       	call   4250 <operator delete(void*)@plt>
    58a8:	e9 8a fb ff ff       	jmp    5437 <ML::build8QModel() [clone .cold]+0xc1>
    58ad:	4c 89 f7             	mov    %r14,%rdi
    58b0:	c5 f8 77             	vzeroupper
    58b3:	4d 89 fe             	mov    %r15,%r14
    58b6:	e8 f5 9c 00 00       	call   f5b0 <ML::LayerParams::~LayerParams()>
    58bb:	48 8b bc 24 e0 00 00 	mov    0xe0(%rsp),%rdi
    58c2:	00 
    58c3:	48 85 ff             	test   %rdi,%rdi
    58c6:	74 05                	je     58cd <ML::build8QModel() [clone .cold]+0x557>
    58c8:	e8 83 e9 ff ff       	call   4250 <operator delete(void*)@plt>
    58cd:	48 89 df             	mov    %rbx,%rdi
    58d0:	4c 89 f3             	mov    %r14,%rbx
    58d3:	e8 d8 9c 00 00       	call   f5b0 <ML::LayerParams::~LayerParams()>
    58d8:	48 8b bc 24 20 01 00 	mov    0x120(%rsp),%rdi
    58df:	00 
    58e0:	48 85 ff             	test   %rdi,%rdi
    58e3:	74 05                	je     58ea <ML::build8QModel() [clone .cold]+0x574>
    58e5:	e8 66 e9 ff ff       	call   4250 <operator delete(void*)@plt>
    58ea:	4c 89 e7             	mov    %r12,%rdi
    58ed:	e8 be 9c 00 00       	call   f5b0 <ML::LayerParams::~LayerParams()>
    58f2:	48 8b bc 24 a0 01 00 	mov    0x1a0(%rsp),%rdi
    58f9:	00 
    58fa:	48 8b 44 24 60       	mov    0x60(%rsp),%rax
    58ff:	48 39 c7             	cmp    %rax,%rdi
    5902:	74 05                	je     5909 <ML::build8QModel() [clone .cold]+0x593>
    5904:	e8 47 e9 ff ff       	call   4250 <operator delete(void*)@plt>
    5909:	48 8b bc 24 40 01 00 	mov    0x140(%rsp),%rdi
    5910:	00 
    5911:	48 85 ff             	test   %rdi,%rdi
    5914:	74 05                	je     591b <ML::build8QModel() [clone .cold]+0x5a5>
    5916:	e8 35 e9 ff ff       	call   4250 <operator delete(void*)@plt>
    591b:	4c 89 ef             	mov    %r13,%rdi
    591e:	e8 8d 9c 00 00       	call   f5b0 <ML::LayerParams::~LayerParams()>
    5923:	48 8b bc 24 c0 01 00 	mov    0x1c0(%rsp),%rdi
    592a:	00 
    592b:	48 8b 44 24 58       	mov    0x58(%rsp),%rax
    5930:	48 39 c7             	cmp    %rax,%rdi
    5933:	0f 84 1d fb ff ff    	je     5456 <ML::build8QModel() [clone .cold]+0xe0>
    5939:	e8 12 e9 ff ff       	call   4250 <operator delete(void*)@plt>
    593e:	e9 13 fb ff ff       	jmp    5456 <ML::build8QModel() [clone .cold]+0xe0>
    5943:	4c 89 e7             	mov    %r12,%rdi
    5946:	c5 f8 77             	vzeroupper
    5949:	e8 62 9c 00 00       	call   f5b0 <ML::LayerParams::~LayerParams()>
    594e:	48 8b bc 24 c0 01 00 	mov    0x1c0(%rsp),%rdi
    5955:	00 
    5956:	48 85 ff             	test   %rdi,%rdi
    5959:	74 05                	je     5960 <ML::build8QModel() [clone .cold]+0x5ea>
    595b:	e8 f0 e8 ff ff       	call   4250 <operator delete(void*)@plt>
    5960:	4c 89 ef             	mov    %r13,%rdi
    5963:	e8 48 9c 00 00       	call   f5b0 <ML::LayerParams::~LayerParams()>
    5968:	e9 36 fa ff ff       	jmp    53a3 <ML::build8QModel() [clone .cold]+0x2d>

000000000000596d <ML::buildToyModel(ML::Path) [clone .cold]>:
    596d:	4c 89 f7             	mov    %r14,%rdi
    5970:	c5 f8 77             	vzeroupper
    5973:	4d 89 fe             	mov    %r15,%r14
    5976:	e8 35 9c 00 00       	call   f5b0 <ML::LayerParams::~LayerParams()>
    597b:	48 8b bc 24 e0 00 00 	mov    0xe0(%rsp),%rdi
    5982:	00 
    5983:	48 85 ff             	test   %rdi,%rdi
    5986:	74 05                	je     598d <ML::buildToyModel(ML::Path) [clone .cold]+0x20>
    5988:	e8 c3 e8 ff ff       	call   4250 <operator delete(void*)@plt>
    598d:	48 89 df             	mov    %rbx,%rdi
    5990:	4c 89 f3             	mov    %r14,%rbx
    5993:	e8 18 9c 00 00       	call   f5b0 <ML::LayerParams::~LayerParams()>
    5998:	48 8b bc 24 20 01 00 	mov    0x120(%rsp),%rdi
    599f:	00 
    59a0:	48 85 ff             	test   %rdi,%rdi
    59a3:	75 72                	jne    5a17 <ML::buildToyModel(ML::Path) [clone .cold]+0xaa>
    59a5:	4c 89 e7             	mov    %r12,%rdi
    59a8:	e8 03 9c 00 00       	call   f5b0 <ML::LayerParams::~LayerParams()>
    59ad:	48 8b bc 24 a0 01 00 	mov    0x1a0(%rsp),%rdi
    59b4:	00 
    59b5:	48 8b 44 24 58       	mov    0x58(%rsp),%rax
    59ba:	48 39 c7             	cmp    %rax,%rdi
    59bd:	74 05                	je     59c4 <ML::buildToyModel(ML::Path) [clone .cold]+0x57>
    59bf:	e8 8c e8 ff ff       	call   4250 <operator delete(void*)@plt>
    59c4:	48 8b bc 24 40 01 00 	mov    0x140(%rsp),%rdi
    59cb:	00 
    59cc:	48 85 ff             	test   %rdi,%rdi
    59cf:	75 4d                	jne    5a1e <ML::buildToyModel(ML::Path) [clone .cold]+0xb1>
    59d1:	4c 89 ef             	mov    %r13,%rdi
    59d4:	e8 d7 9b 00 00       	call   f5b0 <ML::LayerParams::~LayerParams()>
    59d9:	48 8b bc 24 c0 01 00 	mov    0x1c0(%rsp),%rdi
    59e0:	00 
    59e1:	48 8b 44 24 50       	mov    0x50(%rsp),%rax
    59e6:	48 39 c7             	cmp    %rax,%rdi
    59e9:	74 05                	je     59f0 <ML::buildToyModel(ML::Path) [clone .cold]+0x83>
    59eb:	e8 60 e8 ff ff       	call   4250 <operator delete(void*)@plt>
    59f0:	48 8b bc 24 60 01 00 	mov    0x160(%rsp),%rdi
    59f7:	00 
    59f8:	48 85 ff             	test   %rdi,%rdi
    59fb:	74 05                	je     5a02 <ML::buildToyModel(ML::Path) [clone .cold]+0x95>
    59fd:	e8 4e e8 ff ff       	call   4250 <operator delete(void*)@plt>
    5a02:	48 8b bc 24 88 00 00 	mov    0x88(%rsp),%rdi
    5a09:	00 
    5a0a:	e8 91 1d 02 00       	call   277a0 <std::vector<std::unique_ptr<ML::Layer, std::default_delete<ML::Layer> >, std::allocator<std::unique_ptr<ML::Layer, std::default_delete<ML::Layer> > > >::~vector()>
    5a0f:	48 89 df             	mov    %rbx,%rdi
    5a12:	e8 49 ea ff ff       	call   4460 <_Unwind_Resume@plt>
    5a17:	e8 34 e8 ff ff       	call   4250 <operator delete(void*)@plt>
    5a1c:	eb 87                	jmp    59a5 <ML::buildToyModel(ML::Path) [clone .cold]+0x38>
    5a1e:	e8 2d e8 ff ff       	call   4250 <operator delete(void*)@plt>
    5a23:	eb ac                	jmp    59d1 <ML::buildToyModel(ML::Path) [clone .cold]+0x64>
    5a25:	48 8b 7c 24 20       	mov    0x20(%rsp),%rdi
    5a2a:	c5 f8 77             	vzeroupper
    5a2d:	e8 1e e8 ff ff       	call   4250 <operator delete(void*)@plt>
    5a32:	4c 89 e7             	mov    %r12,%rdi
    5a35:	e8 76 9b 00 00       	call   f5b0 <ML::LayerParams::~LayerParams()>
    5a3a:	48 8b bc 24 e0 01 00 	mov    0x1e0(%rsp),%rdi
    5a41:	00 
    5a42:	48 85 ff             	test   %rdi,%rdi
    5a45:	75 5f                	jne    5aa6 <ML::buildToyModel(ML::Path) [clone .cold]+0x139>
    5a47:	4c 89 ef             	mov    %r13,%rdi
    5a4a:	e8 61 9b 00 00       	call   f5b0 <ML::LayerParams::~LayerParams()>
    5a4f:	48 8b bc 24 20 02 00 	mov    0x220(%rsp),%rdi
    5a56:	00 
    5a57:	48 85 ff             	test   %rdi,%rdi
    5a5a:	74 a6                	je     5a02 <ML::buildToyModel(ML::Path) [clone .cold]+0x95>
    5a5c:	e8 ef e7 ff ff       	call   4250 <operator delete(void*)@plt>
    5a61:	eb 9f                	jmp    5a02 <ML::buildToyModel(ML::Path) [clone .cold]+0x95>
    5a63:	4c 89 f7             	mov    %r14,%rdi
    5a66:	c5 f8 77             	vzeroupper
    5a69:	e8 e2 e7 ff ff       	call   4250 <operator delete(void*)@plt>
    5a6e:	4c 89 e7             	mov    %r12,%rdi
    5a71:	e8 3a 9b 00 00       	call   f5b0 <ML::LayerParams::~LayerParams()>
    5a76:	48 8b bc 24 e0 01 00 	mov    0x1e0(%rsp),%rdi
    5a7d:	00 
    5a7e:	48 85 ff             	test   %rdi,%rdi
    5a81:	75 2a                	jne    5aad <ML::buildToyModel(ML::Path) [clone .cold]+0x140>
    5a83:	4c 89 ef             	mov    %r13,%rdi
    5a86:	e8 25 9b 00 00       	call   f5b0 <ML::LayerParams::~LayerParams()>
    5a8b:	48 8b bc 24 20 02 00 	mov    0x220(%rsp),%rdi
    5a92:	00 
    5a93:	48 85 ff             	test   %rdi,%rdi
    5a96:	0f 84 66 ff ff ff    	je     5a02 <ML::buildToyModel(ML::Path) [clone .cold]+0x95>
    5a9c:	e8 af e7 ff ff       	call   4250 <operator delete(void*)@plt>
    5aa1:	e9 5c ff ff ff       	jmp    5a02 <ML::buildToyModel(ML::Path) [clone .cold]+0x95>
    5aa6:	e8 a5 e7 ff ff       	call   4250 <operator delete(void*)@plt>
    5aab:	eb 9a                	jmp    5a47 <ML::buildToyModel(ML::Path) [clone .cold]+0xda>
    5aad:	e8 9e e7 ff ff       	call   4250 <operator delete(void*)@plt>
    5ab2:	eb cf                	jmp    5a83 <ML::buildToyModel(ML::Path) [clone .cold]+0x116>
    5ab4:	48 8b bc 24 a0 02 00 	mov    0x2a0(%rsp),%rdi
    5abb:	00 
    5abc:	48 8d 84 24 b0 02 00 	lea    0x2b0(%rsp),%rax
    5ac3:	00 
    5ac4:	48 39 c7             	cmp    %rax,%rdi
    5ac7:	0f 84 bd 00 00 00    	je     5b8a <ML::buildToyModel(ML::Path) [clone .cold]+0x21d>
    5acd:	c5 f8 77             	vzeroupper
    5ad0:	e8 7b e7 ff ff       	call   4250 <operator delete(void*)@plt>
    5ad5:	e9 28 ff ff ff       	jmp    5a02 <ML::buildToyModel(ML::Path) [clone .cold]+0x95>
    5ada:	4c 89 f7             	mov    %r14,%rdi
    5add:	c5 f8 77             	vzeroupper
    5ae0:	4d 89 fe             	mov    %r15,%r14
    5ae3:	e8 c8 9a 00 00       	call   f5b0 <ML::LayerParams::~LayerParams()>
    5ae8:	48 8b bc 24 e0 00 00 	mov    0xe0(%rsp),%rdi
    5aef:	00 
    5af0:	48 85 ff             	test   %rdi,%rdi
    5af3:	74 05                	je     5afa <ML::buildToyModel(ML::Path) [clone .cold]+0x18d>
    5af5:	e8 56 e7 ff ff       	call   4250 <operator delete(void*)@plt>
    5afa:	48 89 df             	mov    %rbx,%rdi
    5afd:	4c 89 f3             	mov    %r14,%rbx
    5b00:	e8 ab 9a 00 00       	call   f5b0 <ML::LayerParams::~LayerParams()>
    5b05:	48 8b bc 24 20 01 00 	mov    0x120(%rsp),%rdi
    5b0c:	00 
    5b0d:	48 85 ff             	test   %rdi,%rdi
    5b10:	74 05                	je     5b17 <ML::buildToyModel(ML::Path) [clone .cold]+0x1aa>
    5b12:	e8 39 e7 ff ff       	call   4250 <operator delete(void*)@plt>
    5b17:	4c 89 e7             	mov    %r12,%rdi
    5b1a:	e8 91 9a 00 00       	call   f5b0 <ML::LayerParams::~LayerParams()>
    5b1f:	48 8b bc 24 a0 01 00 	mov    0x1a0(%rsp),%rdi
    5b26:	00 
    5b27:	48 8d 84 24 b0 01 00 	lea    0x1b0(%rsp),%rax
    5b2e:	00 
    5b2f:	48 39 c7             	cmp    %rax,%rdi
    5b32:	74 05                	je     5b39 <ML::buildToyModel(ML::Path) [clone .cold]+0x1cc>
    5b34:	e8 17 e7 ff ff       	call   4250 <operator delete(void*)@plt>
    5b39:	48 8b bc 24 40 01 00 	mov    0x140(%rsp),%rdi
    5b40:	00 
    5b41:	48 85 ff             	test   %rdi,%rdi
    5b44:	75 3d                	jne    5b83 <ML::buildToyModel(ML::Path) [clone .cold]+0x216>
    5b46:	4c 89 ef             	mov    %r13,%rdi
    5b49:	e8 62 9a 00 00       	call   f5b0 <ML::LayerParams::~LayerParams()>
    5b4e:	48 8b bc 24 c0 01 00 	mov    0x1c0(%rsp),%rdi
    5b55:	00 
    5b56:	48 8d 84 24 d0 01 00 	lea    0x1d0(%rsp),%rax
    5b5d:	00 
    5b5e:	48 39 c7             	cmp    %rax,%rdi
    5b61:	74 05                	je     5b68 <ML::buildToyModel(ML::Path) [clone .cold]+0x1fb>
    5b63:	e8 e8 e6 ff ff       	call   4250 <operator delete(void*)@plt>
    5b68:	48 8b bc 24 60 01 00 	mov    0x160(%rsp),%rdi
    5b6f:	00 
    5b70:	48 85 ff             	test   %rdi,%rdi
    5b73:	0f 84 89 fe ff ff    	je     5a02 <ML::buildToyModel(ML::Path) [clone .cold]+0x95>
    5b79:	e8 d2 e6 ff ff       	call   4250 <operator delete(void*)@plt>
    5b7e:	e9 7f fe ff ff       	jmp    5a02 <ML::buildToyModel(ML::Path) [clone .cold]+0x95>
    5b83:	e8 c8 e6 ff ff       	call   4250 <operator delete(void*)@plt>
    5b88:	eb bc                	jmp    5b46 <ML::buildToyModel(ML::Path) [clone .cold]+0x1d9>
    5b8a:	c5 f8 77             	vzeroupper
    5b8d:	e9 70 fe ff ff       	jmp    5a02 <ML::buildToyModel(ML::Path) [clone .cold]+0x95>
    5b92:	4c 89 f7             	mov    %r14,%rdi
    5b95:	c5 f8 77             	vzeroupper
    5b98:	4d 89 fe             	mov    %r15,%r14
    5b9b:	e8 10 9a 00 00       	call   f5b0 <ML::LayerParams::~LayerParams()>
    5ba0:	48 8b bc 24 20 01 00 	mov    0x120(%rsp),%rdi
    5ba7:	00 
    5ba8:	48 85 ff             	test   %rdi,%rdi
    5bab:	74 05                	je     5bb2 <ML::buildToyModel(ML::Path) [clone .cold]+0x245>
    5bad:	e8 9e e6 ff ff       	call   4250 <operator delete(void*)@plt>
    5bb2:	48 89 df             	mov    %rbx,%rdi
    5bb5:	4c 89 f3             	mov    %r14,%rbx
    5bb8:	e8 f3 99 00 00       	call   f5b0 <ML::LayerParams::~LayerParams()>
    5bbd:	48 8b bc 24 40 01 00 	mov    0x140(%rsp),%rdi
    5bc4:	00 
    5bc5:	48 85 ff             	test   %rdi,%rdi
    5bc8:	74 05                	je     5bcf <ML::buildToyModel(ML::Path) [clone .cold]+0x262>
    5bca:	e8 81 e6 ff ff       	call   4250 <operator delete(void*)@plt>
    5bcf:	4c 89 e7             	mov    %r12,%rdi
    5bd2:	e8 d9 99 00 00       	call   f5b0 <ML::LayerParams::~LayerParams()>
    5bd7:	48 8b bc 24 a0 01 00 	mov    0x1a0(%rsp),%rdi
    5bde:	00 
    5bdf:	48 8b 44 24 58       	mov    0x58(%rsp),%rax
    5be4:	48 39 c7             	cmp    %rax,%rdi
    5be7:	74 05                	je     5bee <ML::buildToyModel(ML::Path) [clone .cold]+0x281>
    5be9:	e8 62 e6 ff ff       	call   4250 <operator delete(void*)@plt>
    5bee:	48 8b bc 24 60 01 00 	mov    0x160(%rsp),%rdi
    5bf5:	00 
    5bf6:	48 85 ff             	test   %rdi,%rdi
    5bf9:	75 3a                	jne    5c35 <ML::buildToyModel(ML::Path) [clone .cold]+0x2c8>
    5bfb:	4c 89 ef             	mov    %r13,%rdi
    5bfe:	e8 ad 99 00 00       	call   f5b0 <ML::LayerParams::~LayerParams()>
    5c03:	48 8b bc 24 c0 01 00 	mov    0x1c0(%rsp),%rdi
    5c0a:	00 
    5c0b:	48 8b 44 24 50       	mov    0x50(%rsp),%rax
    5c10:	48 39 c7             	cmp    %rax,%rdi
    5c13:	74 05                	je     5c1a <ML::buildToyModel(ML::Path) [clone .cold]+0x2ad>
    5c15:	e8 36 e6 ff ff       	call   4250 <operator delete(void*)@plt>
    5c1a:	48 8b bc 24 80 01 00 	mov    0x180(%rsp),%rdi
    5c21:	00 
    5c22:	48 85 ff             	test   %rdi,%rdi
    5c25:	0f 84 d7 fd ff ff    	je     5a02 <ML::buildToyModel(ML::Path) [clone .cold]+0x95>
    5c2b:	e8 20 e6 ff ff       	call   4250 <operator delete(void*)@plt>
    5c30:	e9 cd fd ff ff       	jmp    5a02 <ML::buildToyModel(ML::Path) [clone .cold]+0x95>
    5c35:	e8 16 e6 ff ff       	call   4250 <operator delete(void*)@plt>
    5c3a:	eb bf                	jmp    5bfb <ML::buildToyModel(ML::Path) [clone .cold]+0x28e>
    5c3c:	4c 89 f7             	mov    %r14,%rdi
    5c3f:	c5 f8 77             	vzeroupper
    5c42:	4d 89 fe             	mov    %r15,%r14
    5c45:	e8 66 99 00 00       	call   f5b0 <ML::LayerParams::~LayerParams()>
    5c4a:	48 8b bc 24 20 01 00 	mov    0x120(%rsp),%rdi
    5c51:	00 
    5c52:	48 85 ff             	test   %rdi,%rdi
    5c55:	74 05                	je     5c5c <ML::buildToyModel(ML::Path) [clone .cold]+0x2ef>
    5c57:	e8 f4 e5 ff ff       	call   4250 <operator delete(void*)@plt>
    5c5c:	48 89 df             	mov    %rbx,%rdi
    5c5f:	4c 89 f3             	mov    %r14,%rbx
    5c62:	e8 49 99 00 00       	call   f5b0 <ML::LayerParams::~LayerParams()>
    5c67:	48 8b bc 24 40 01 00 	mov    0x140(%rsp),%rdi
    5c6e:	00 
    5c6f:	48 85 ff             	test   %rdi,%rdi
    5c72:	0f 85 b4 01 00 00    	jne    5e2c <ML::buildToyModel(ML::Path) [clone .cold]+0x4bf>
    5c78:	4c 89 e7             	mov    %r12,%rdi
    5c7b:	e8 30 99 00 00       	call   f5b0 <ML::LayerParams::~LayerParams()>
    5c80:	48 8b bc 24 a0 01 00 	mov    0x1a0(%rsp),%rdi
    5c87:	00 
    5c88:	48 8b 44 24 58       	mov    0x58(%rsp),%rax
    5c8d:	48 39 c7             	cmp    %rax,%rdi
    5c90:	74 05                	je     5c97 <ML::buildToyModel(ML::Path) [clone .cold]+0x32a>
    5c92:	e8 b9 e5 ff ff       	call   4250 <operator delete(void*)@plt>
    5c97:	48 8b bc 24 60 01 00 	mov    0x160(%rsp),%rdi
    5c9e:	00 
    5c9f:	48 85 ff             	test   %rdi,%rdi
    5ca2:	0f 85 8e 01 00 00    	jne    5e36 <ML::buildToyModel(ML::Path) [clone .cold]+0x4c9>
    5ca8:	4c 89 ef             	mov    %r13,%rdi
    5cab:	e8 00 99 00 00       	call   f5b0 <ML::LayerParams::~LayerParams()>
    5cb0:	48 8b bc 24 c0 01 00 	mov    0x1c0(%rsp),%rdi
    5cb7:	00 
    5cb8:	48 8b 44 24 50       	mov    0x50(%rsp),%rax
    5cbd:	48 39 c7             	cmp    %rax,%rdi
    5cc0:	74 05                	je     5cc7 <ML::buildToyModel(ML::Path) [clone .cold]+0x35a>
    5cc2:	e8 89 e5 ff ff       	call   4250 <operator delete(void*)@plt>
    5cc7:	48 8b bc 24 80 01 00 	mov    0x180(%rsp),%rdi
    5cce:	00 
    5ccf:	48 85 ff             	test   %rdi,%rdi
    5cd2:	0f 84 2a fd ff ff    	je     5a02 <ML::buildToyModel(ML::Path) [clone .cold]+0x95>
    5cd8:	e8 73 e5 ff ff       	call   4250 <operator delete(void*)@plt>
    5cdd:	e9 20 fd ff ff       	jmp    5a02 <ML::buildToyModel(ML::Path) [clone .cold]+0x95>
    5ce2:	4c 89 f7             	mov    %r14,%rdi
    5ce5:	c5 f8 77             	vzeroupper
    5ce8:	4d 89 fe             	mov    %r15,%r14
    5ceb:	e8 c0 98 00 00       	call   f5b0 <ML::LayerParams::~LayerParams()>
    5cf0:	48 8b bc 24 e0 00 00 	mov    0xe0(%rsp),%rdi
    5cf7:	00 
    5cf8:	48 85 ff             	test   %rdi,%rdi
    5cfb:	74 05                	je     5d02 <ML::buildToyModel(ML::Path) [clone .cold]+0x395>
    5cfd:	e8 4e e5 ff ff       	call   4250 <operator delete(void*)@plt>
    5d02:	48 89 df             	mov    %rbx,%rdi
    5d05:	4c 89 f3             	mov    %r14,%rbx
    5d08:	e8 a3 98 00 00       	call   f5b0 <ML::LayerParams::~LayerParams()>
    5d0d:	48 8b bc 24 20 01 00 	mov    0x120(%rsp),%rdi
    5d14:	00 
    5d15:	48 85 ff             	test   %rdi,%rdi
    5d18:	74 05                	je     5d1f <ML::buildToyModel(ML::Path) [clone .cold]+0x3b2>
    5d1a:	e8 31 e5 ff ff       	call   4250 <operator delete(void*)@plt>
    5d1f:	4c 89 e7             	mov    %r12,%rdi
    5d22:	e8 89 98 00 00       	call   f5b0 <ML::LayerParams::~LayerParams()>
    5d27:	48 8b bc 24 a0 01 00 	mov    0x1a0(%rsp),%rdi
    5d2e:	00 
    5d2f:	48 8b 44 24 58       	mov    0x58(%rsp),%rax
    5d34:	48 39 c7             	cmp    %rax,%rdi
    5d37:	74 05                	je     5d3e <ML::buildToyModel(ML::Path) [clone .cold]+0x3d1>
    5d39:	e8 12 e5 ff ff       	call   4250 <operator delete(void*)@plt>
    5d3e:	48 8b bc 24 40 01 00 	mov    0x140(%rsp),%rdi
    5d45:	00 
    5d46:	48 85 ff             	test   %rdi,%rdi
    5d49:	74 05                	je     5d50 <ML::buildToyModel(ML::Path) [clone .cold]+0x3e3>
    5d4b:	e8 00 e5 ff ff       	call   4250 <operator delete(void*)@plt>
    5d50:	4c 89 ef             	mov    %r13,%rdi
    5d53:	e8 58 98 00 00       	call   f5b0 <ML::LayerParams::~LayerParams()>
    5d58:	48 8b bc 24 c0 01 00 	mov    0x1c0(%rsp),%rdi
    5d5f:	00 
    5d60:	48 8b 44 24 50       	mov    0x50(%rsp),%rax
    5d65:	48 39 c7             	cmp    %rax,%rdi
    5d68:	74 05                	je     5d6f <ML::buildToyModel(ML::Path) [clone .cold]+0x402>
    5d6a:	e8 e1 e4 ff ff       	call   4250 <operator delete(void*)@plt>
    5d6f:	48 8b bc 24 60 01 00 	mov    0x160(%rsp),%rdi
    5d76:	00 
    5d77:	48 85 ff             	test   %rdi,%rdi
    5d7a:	0f 84 82 fc ff ff    	je     5a02 <ML::buildToyModel(ML::Path) [clone .cold]+0x95>
    5d80:	e8 cb e4 ff ff       	call   4250 <operator delete(void*)@plt>
    5d85:	e9 78 fc ff ff       	jmp    5a02 <ML::buildToyModel(ML::Path) [clone .cold]+0x95>
    5d8a:	4c 89 f7             	mov    %r14,%rdi
    5d8d:	c5 f8 77             	vzeroupper
    5d90:	4d 89 fe             	mov    %r15,%r14
    5d93:	e8 18 98 00 00       	call   f5b0 <ML::LayerParams::~LayerParams()>
    5d98:	48 8b bc 24 e0 00 00 	mov    0xe0(%rsp),%rdi
    5d9f:	00 
    5da0:	48 85 ff             	test   %rdi,%rdi
    5da3:	74 05                	je     5daa <ML::buildToyModel(ML::Path) [clone .cold]+0x43d>
    5da5:	e8 a6 e4 ff ff       	call   4250 <operator delete(void*)@plt>
    5daa:	48 89 df             	mov    %rbx,%rdi
    5dad:	4c 89 f3             	mov    %r14,%rbx
    5db0:	e8 fb 97 00 00       	call   f5b0 <ML::LayerParams::~LayerParams()>
    5db5:	48 8b bc 24 20 01 00 	mov    0x120(%rsp),%rdi
    5dbc:	00 
    5dbd:	48 85 ff             	test   %rdi,%rdi
    5dc0:	0f 85 1d 02 00 00    	jne    5fe3 <ML::buildToyModel(ML::Path) [clone .cold]+0x676>
    5dc6:	4c 89 e7             	mov    %r12,%rdi
    5dc9:	e8 e2 97 00 00       	call   f5b0 <ML::LayerParams::~LayerParams()>
    5dce:	48 8b bc 24 a0 01 00 	mov    0x1a0(%rsp),%rdi
    5dd5:	00 
    5dd6:	48 8b 44 24 58       	mov    0x58(%rsp),%rax
    5ddb:	48 39 c7             	cmp    %rax,%rdi
    5dde:	74 05                	je     5de5 <ML::buildToyModel(ML::Path) [clone .cold]+0x478>
    5de0:	e8 6b e4 ff ff       	call   4250 <operator delete(void*)@plt>
    5de5:	48 8b bc 24 40 01 00 	mov    0x140(%rsp),%rdi
    5dec:	00 
    5ded:	48 85 ff             	test   %rdi,%rdi
    5df0:	75 4e                	jne    5e40 <ML::buildToyModel(ML::Path) [clone .cold]+0x4d3>
    5df2:	4c 89 ef             	mov    %r13,%rdi
    5df5:	e8 b6 97 00 00       	call   f5b0 <ML::LayerParams::~LayerParams()>
    5dfa:	48 8b bc 24 c0 01 00 	mov    0x1c0(%rsp),%rdi
    5e01:	00 
    5e02:	48 8b 44 24 50       	mov    0x50(%rsp),%rax
    5e07:	48 39 c7             	cmp    %rax,%rdi
    5e0a:	74 05                	je     5e11 <ML::buildToyModel(ML::Path) [clone .cold]+0x4a4>
    5e0c:	e8 3f e4 ff ff       	call   4250 <operator delete(void*)@plt>
    5e11:	48 8b bc 24 60 01 00 	mov    0x160(%rsp),%rdi
    5e18:	00 
    5e19:	48 85 ff             	test   %rdi,%rdi
    5e1c:	0f 84 e0 fb ff ff    	je     5a02 <ML::buildToyModel(ML::Path) [clone .cold]+0x95>
    5e22:	e8 29 e4 ff ff       	call   4250 <operator delete(void*)@plt>
    5e27:	e9 d6 fb ff ff       	jmp    5a02 <ML::buildToyModel(ML::Path) [clone .cold]+0x95>
    5e2c:	e8 1f e4 ff ff       	call   4250 <operator delete(void*)@plt>
    5e31:	e9 42 fe ff ff       	jmp    5c78 <ML::buildToyModel(ML::Path) [clone .cold]+0x30b>
    5e36:	e8 15 e4 ff ff       	call   4250 <operator delete(void*)@plt>
    5e3b:	e9 68 fe ff ff       	jmp    5ca8 <ML::buildToyModel(ML::Path) [clone .cold]+0x33b>
    5e40:	e8 0b e4 ff ff       	call   4250 <operator delete(void*)@plt>
    5e45:	eb ab                	jmp    5df2 <ML::buildToyModel(ML::Path) [clone .cold]+0x485>
    5e47:	4c 89 f7             	mov    %r14,%rdi
    5e4a:	c5 f8 77             	vzeroupper
    5e4d:	4d 89 fe             	mov    %r15,%r14
    5e50:	e8 5b 97 00 00       	call   f5b0 <ML::LayerParams::~LayerParams()>
    5e55:	48 8b bc 24 e0 00 00 	mov    0xe0(%rsp),%rdi
    5e5c:	00 
    5e5d:	48 85 ff             	test   %rdi,%rdi
    5e60:	74 05                	je     5e67 <ML::buildToyModel(ML::Path) [clone .cold]+0x4fa>
    5e62:	e8 e9 e3 ff ff       	call   4250 <operator delete(void*)@plt>
    5e67:	48 89 df             	mov    %rbx,%rdi
    5e6a:	4c 89 f3             	mov    %r14,%rbx
    5e6d:	e8 3e 97 00 00       	call   f5b0 <ML::LayerParams::~LayerParams()>
    5e72:	48 8b bc 24 20 01 00 	mov    0x120(%rsp),%rdi
    5e79:	00 
    5e7a:	48 85 ff             	test   %rdi,%rdi
    5e7d:	75 66                	jne    5ee5 <ML::buildToyModel(ML::Path) [clone .cold]+0x578>
    5e7f:	4c 89 e7             	mov    %r12,%rdi
    5e82:	e8 29 97 00 00       	call   f5b0 <ML::LayerParams::~LayerParams()>
    5e87:	48 8b bc 24 a0 01 00 	mov    0x1a0(%rsp),%rdi
    5e8e:	00 
    5e8f:	48 8b 44 24 58       	mov    0x58(%rsp),%rax
    5e94:	48 39 c7             	cmp    %rax,%rdi
    5e97:	74 05                	je     5e9e <ML::buildToyModel(ML::Path) [clone .cold]+0x531>
    5e99:	e8 b2 e3 ff ff       	call   4250 <operator delete(void*)@plt>
    5e9e:	48 8b bc 24 40 01 00 	mov    0x140(%rsp),%rdi
    5ea5:	00 
    5ea6:	48 85 ff             	test   %rdi,%rdi
    5ea9:	75 41                	jne    5eec <ML::buildToyModel(ML::Path) [clone .cold]+0x57f>
    5eab:	4c 89 ef             	mov    %r13,%rdi
    5eae:	e8 fd 96 00 00       	call   f5b0 <ML::LayerParams::~LayerParams()>
    5eb3:	48 8b bc 24 c0 01 00 	mov    0x1c0(%rsp),%rdi
    5eba:	00 
    5ebb:	48 8b 44 24 50       	mov    0x50(%rsp),%rax
    5ec0:	48 39 c7             	cmp    %rax,%rdi
    5ec3:	74 05                	je     5eca <ML::buildToyModel(ML::Path) [clone .cold]+0x55d>
    5ec5:	e8 86 e3 ff ff       	call   4250 <operator delete(void*)@plt>
    5eca:	48 8b bc 24 60 01 00 	mov    0x160(%rsp),%rdi
    5ed1:	00 
    5ed2:	48 85 ff             	test   %rdi,%rdi
    5ed5:	0f 84 27 fb ff ff    	je     5a02 <ML::buildToyModel(ML::Path) [clone .cold]+0x95>
    5edb:	e8 70 e3 ff ff       	call   4250 <operator delete(void*)@plt>
    5ee0:	e9 1d fb ff ff       	jmp    5a02 <ML::buildToyModel(ML::Path) [clone .cold]+0x95>
    5ee5:	e8 66 e3 ff ff       	call   4250 <operator delete(void*)@plt>
    5eea:	eb 93                	jmp    5e7f <ML::buildToyModel(ML::Path) [clone .cold]+0x512>
    5eec:	e8 5f e3 ff ff       	call   4250 <operator delete(void*)@plt>
    5ef1:	eb b8                	jmp    5eab <ML::buildToyModel(ML::Path) [clone .cold]+0x53e>
    5ef3:	4c 89 e7             	mov    %r12,%rdi
    5ef6:	c5 f8 77             	vzeroupper
    5ef9:	e8 b2 96 00 00       	call   f5b0 <ML::LayerParams::~LayerParams()>
    5efe:	48 8b bc 24 c0 01 00 	mov    0x1c0(%rsp),%rdi
    5f05:	00 
    5f06:	48 85 ff             	test   %rdi,%rdi
    5f09:	0f 85 ca 00 00 00    	jne    5fd9 <ML::buildToyModel(ML::Path) [clone .cold]+0x66c>
    5f0f:	4c 89 ef             	mov    %r13,%rdi
    5f12:	e8 99 96 00 00       	call   f5b0 <ML::LayerParams::~LayerParams()>
    5f17:	48 8b bc 24 20 02 00 	mov    0x220(%rsp),%rdi
    5f1e:	00 
    5f1f:	48 85 ff             	test   %rdi,%rdi
    5f22:	0f 84 da fa ff ff    	je     5a02 <ML::buildToyModel(ML::Path) [clone .cold]+0x95>
    5f28:	e8 23 e3 ff ff       	call   4250 <operator delete(void*)@plt>
    5f2d:	e9 d0 fa ff ff       	jmp    5a02 <ML::buildToyModel(ML::Path) [clone .cold]+0x95>
    5f32:	4c 89 f7             	mov    %r14,%rdi
    5f35:	c5 f8 77             	vzeroupper
    5f38:	4d 89 fe             	mov    %r15,%r14
    5f3b:	e8 70 96 00 00       	call   f5b0 <ML::LayerParams::~LayerParams()>
    5f40:	48 8b bc 24 e0 00 00 	mov    0xe0(%rsp),%rdi
    5f47:	00 
    5f48:	48 85 ff             	test   %rdi,%rdi
    5f4b:	74 05                	je     5f52 <ML::buildToyModel(ML::Path) [clone .cold]+0x5e5>
    5f4d:	e8 fe e2 ff ff       	call   4250 <operator delete(void*)@plt>
    5f52:	48 89 df             	mov    %rbx,%rdi
    5f55:	4c 89 f3             	mov    %r14,%rbx
    5f58:	e8 53 96 00 00       	call   f5b0 <ML::LayerParams::~LayerParams()>
    5f5d:	48 8b bc 24 20 01 00 	mov    0x120(%rsp),%rdi
    5f64:	00 
    5f65:	48 85 ff             	test   %rdi,%rdi
    5f68:	0f 85 bf 00 00 00    	jne    602d <ML::buildToyModel(ML::Path) [clone .cold]+0x6c0>
    5f6e:	4c 89 e7             	mov    %r12,%rdi
    5f71:	e8 3a 96 00 00       	call   f5b0 <ML::LayerParams::~LayerParams()>
    5f76:	48 8b bc 24 a0 01 00 	mov    0x1a0(%rsp),%rdi
    5f7d:	00 
    5f7e:	48 8b 44 24 58       	mov    0x58(%rsp),%rax
    5f83:	48 39 c7             	cmp    %rax,%rdi
    5f86:	74 05                	je     5f8d <ML::buildToyModel(ML::Path) [clone .cold]+0x620>
    5f88:	e8 c3 e2 ff ff       	call   4250 <operator delete(void*)@plt>
    5f8d:	48 8b bc 24 40 01 00 	mov    0x140(%rsp),%rdi
    5f94:	00 
    5f95:	48 85 ff             	test   %rdi,%rdi
    5f98:	74 05                	je     5f9f <ML::buildToyModel(ML::Path) [clone .cold]+0x632>
    5f9a:	e8 b1 e2 ff ff       	call   4250 <operator delete(void*)@plt>
    5f9f:	4c 89 ef             	mov    %r13,%rdi
    5fa2:	e8 09 96 00 00       	call   f5b0 <ML::LayerParams::~LayerParams()>
    5fa7:	48 8b bc 24 c0 01 00 	mov    0x1c0(%rsp),%rdi
    5fae:	00 
    5faf:	48 8b 44 24 50       	mov    0x50(%rsp),%rax
    5fb4:	48 39 c7             	cmp    %rax,%rdi
    5fb7:	74 05                	je     5fbe <ML::buildToyModel(ML::Path) [clone .cold]+0x651>
    5fb9:	e8 92 e2 ff ff       	call   4250 <operator delete(void*)@plt>
    5fbe:	48 8b bc 24 60 01 00 	mov    0x160(%rsp),%rdi
    5fc5:	00 
    5fc6:	48 85 ff             	test   %rdi,%rdi
    5fc9:	0f 84 33 fa ff ff    	je     5a02 <ML::buildToyModel(ML::Path) [clone .cold]+0x95>
    5fcf:	e8 7c e2 ff ff       	call   4250 <operator delete(void*)@plt>
    5fd4:	e9 29 fa ff ff       	jmp    5a02 <ML::buildToyModel(ML::Path) [clone .cold]+0x95>
    5fd9:	e8 72 e2 ff ff       	call   4250 <operator delete(void*)@plt>
    5fde:	e9 2c ff ff ff       	jmp    5f0f <ML::buildToyModel(ML::Path) [clone .cold]+0x5a2>
    5fe3:	e8 68 e2 ff ff       	call   4250 <operator delete(void*)@plt>
    5fe8:	e9 d9 fd ff ff       	jmp    5dc6 <ML::buildToyModel(ML::Path) [clone .cold]+0x459>
    5fed:	4c 89 e7             	mov    %r12,%rdi
    5ff0:	c5 f8 77             	vzeroupper
    5ff3:	e8 b8 95 00 00       	call   f5b0 <ML::LayerParams::~LayerParams()>
    5ff8:	48 8b bc 24 c0 01 00 	mov    0x1c0(%rsp),%rdi
    5fff:	00 
    6000:	48 85 ff             	test   %rdi,%rdi
    6003:	74 05                	je     600a <ML::buildToyModel(ML::Path) [clone .cold]+0x69d>
    6005:	e8 46 e2 ff ff       	call   4250 <operator delete(void*)@plt>
    600a:	4c 89 ef             	mov    %r13,%rdi
    600d:	e8 9e 95 00 00       	call   f5b0 <ML::LayerParams::~LayerParams()>
    6012:	48 8b bc 24 20 02 00 	mov    0x220(%rsp),%rdi
    6019:	00 
    601a:	48 85 ff             	test   %rdi,%rdi
    601d:	0f 84 df f9 ff ff    	je     5a02 <ML::buildToyModel(ML::Path) [clone .cold]+0x95>
    6023:	e8 28 e2 ff ff       	call   4250 <operator delete(void*)@plt>
    6028:	e9 d5 f9 ff ff       	jmp    5a02 <ML::buildToyModel(ML::Path) [clone .cold]+0x95>
    602d:	e8 1e e2 ff ff       	call   4250 <operator delete(void*)@plt>
    6032:	e9 37 ff ff ff       	jmp    5f6e <ML::buildToyModel(ML::Path) [clone .cold]+0x601>
    6037:	4c 89 e7             	mov    %r12,%rdi
    603a:	c5 f8 77             	vzeroupper
    603d:	e8 6e 95 00 00       	call   f5b0 <ML::LayerParams::~LayerParams()>
    6042:	48 8b bc 24 c0 01 00 	mov    0x1c0(%rsp),%rdi
    6049:	00 
    604a:	48 85 ff             	test   %rdi,%rdi
    604d:	74 05                	je     6054 <ML::buildToyModel(ML::Path) [clone .cold]+0x6e7>
    604f:	e8 fc e1 ff ff       	call   4250 <operator delete(void*)@plt>
    6054:	4c 89 ef             	mov    %r13,%rdi
    6057:	e8 54 95 00 00       	call   f5b0 <ML::LayerParams::~LayerParams()>
    605c:	48 8b bc 24 20 02 00 	mov    0x220(%rsp),%rdi
    6063:	00 
    6064:	48 85 ff             	test   %rdi,%rdi
    6067:	0f 84 95 f9 ff ff    	je     5a02 <ML::buildToyModel(ML::Path) [clone .cold]+0x95>
    606d:	e8 de e1 ff ff       	call   4250 <operator delete(void*)@plt>
    6072:	e9 8b f9 ff ff       	jmp    5a02 <ML::buildToyModel(ML::Path) [clone .cold]+0x95>

0000000000006077 <ML::formatDims[abi:cxx11](std::vector<unsigned long, std::allocator<unsigned long> > const&) [clone .cold]>:
    6077:	49 8b 3e             	mov    (%r14),%rdi
    607a:	48 39 fb             	cmp    %rdi,%rbx
    607d:	0f 84 ec 00 00 00    	je     616f <ML::formatDims[abi:cxx11](std::vector<unsigned long, std::allocator<unsigned long> > const&) [clone .cold]+0xf8>
    6083:	c5 f8 77             	vzeroupper
    6086:	e8 c5 e1 ff ff       	call   4250 <operator delete(void*)@plt>
    608b:	48 8b 7c 24 08       	mov    0x8(%rsp),%rdi
    6090:	e8 5b e1 ff ff       	call   41f0 <std::__cxx11::basic_stringstream<char, std::char_traits<char>, std::allocator<char> >::~basic_stringstream()@plt>
    6095:	4c 89 e7             	mov    %r12,%rdi
    6098:	e8 c3 e3 ff ff       	call   4460 <_Unwind_Resume@plt>
    609d:	48 8b bc 24 a0 00 00 	mov    0xa0(%rsp),%rdi
    60a4:	00 
    60a5:	48 8b 44 24 30       	mov    0x30(%rsp),%rax
    60aa:	48 89 5c 24 58       	mov    %rbx,0x58(%rsp)
    60af:	48 39 c7             	cmp    %rax,%rdi
    60b2:	0f 85 aa 00 00 00    	jne    6162 <ML::formatDims[abi:cxx11](std::vector<unsigned long, std::allocator<unsigned long> > const&) [clone .cold]+0xeb>
    60b8:	c5 f8 77             	vzeroupper
    60bb:	48 8b 7c 24 20       	mov    0x20(%rsp),%rdi
    60c0:	48 8d 05 b9 b8 02 00 	lea    0x2b8b9(%rip),%rax        # 31980 <vtable for std::basic_streambuf<char, std::char_traits<char> >@GLIBCXX_3.4+0x10>
    60c7:	48 89 44 24 58       	mov    %rax,0x58(%rsp)
    60cc:	e8 5f e2 ff ff       	call   4330 <std::locale::~locale()@plt>
    60d1:	48 8b 05 50 b8 02 00 	mov    0x2b850(%rip),%rax        # 31928 <VTT for std::__cxx11::basic_stringstream<char, std::char_traits<char>, std::allocator<char> >@GLIBCXX_3.4.21+0x8>
    60d8:	48 8b 0d 71 b8 02 00 	mov    0x2b871(%rip),%rcx        # 31950 <VTT for std::__cxx11::basic_stringstream<char, std::char_traits<char>, std::allocator<char> >@GLIBCXX_3.4.21+0x30>
    60df:	48 8b 40 e8          	mov    -0x18(%rax),%rax
    60e3:	48 89 4c 04 40       	mov    %rcx,0x40(%rsp,%rax,1)
    60e8:	48 8b 05 51 b8 02 00 	mov    0x2b851(%rip),%rax        # 31940 <VTT for std::__cxx11::basic_stringstream<char, std::char_traits<char>, std::allocator<char> >@GLIBCXX_3.4.21+0x20>
    60ef:	48 8b 0d 52 b8 02 00 	mov    0x2b852(%rip),%rcx        # 31948 <VTT for std::__cxx11::basic_stringstream<char, std::char_traits<char>, std::allocator<char> >@GLIBCXX_3.4.21+0x28>
    60f6:	48 89 44 24 50       	mov    %rax,0x50(%rsp)
    60fb:	48 8b 40 e8          	mov    -0x18(%rax),%rax
    60ff:	48 89 4c 04 50       	mov    %rcx,0x50(%rsp,%rax,1)
    6104:	49 8b 47 e8          	mov    -0x18(%r15),%rax
    6108:	48 8b 0d 29 b8 02 00 	mov    0x2b829(%rip),%rcx        # 31938 <VTT for std::__cxx11::basic_stringstream<char, std::char_traits<char>, std::allocator<char> >@GLIBCXX_3.4.21+0x18>
    610f:	4c 89 7c 24 40       	mov    %r15,0x40(%rsp)
    6114:	48 89 4c 04 40       	mov    %rcx,0x40(%rsp,%rax,1)
    6119:	31 c0                	xor    %eax,%eax
    611b:	48 89 44 24 48       	mov    %rax,0x48(%rsp)
    6120:	eb 1f                	jmp    6141 <ML::formatDims[abi:cxx11](std::vector<unsigned long, std::allocator<unsigned long> > const&) [clone .cold]+0xca>
    6122:	49 8b 47 e8          	mov    -0x18(%r15),%rax
    6126:	48 8b 0d 0b b8 02 00 	mov    0x2b80b(%rip),%rcx        # 31938 <VTT for std::__cxx11::basic_stringstream<char, std::char_traits<char>, std::allocator<char> >@GLIBCXX_3.4.21+0x18>
    612d:	31 d2                	xor    %edx,%edx
    612f:	4c 89 7c 24 40       	mov    %r15,0x40(%rsp)
    6134:	48 89 4c 04 40       	mov    %rcx,0x40(%rsp,%rax,1)
    6139:	48 89 54 24 48       	mov    %rdx,0x48(%rsp)
    613e:	c5 f8 77             	vzeroupper
    6141:	48 8b 7c 24 38       	mov    0x38(%rsp),%rdi
    6146:	48 8d 05 c3 b7 02 00 	lea    0x2b7c3(%rip),%rax        # 31910 <vtable for std::basic_ios<char, std::char_traits<char> >@GLIBCXX_3.4+0x10>
    614d:	48 89 84 24 c0 00 00 	mov    %rax,0xc0(%rsp)
    6154:	00 
    6155:	e8 86 df ff ff       	call   40e0 <std::ios_base::~ios_base()@plt>
    615a:	4c 89 e7             	mov    %r12,%rdi
    615d:	e8 fe e2 ff ff       	call   4460 <_Unwind_Resume@plt>
    6162:	c5 f8 77             	vzeroupper
    6165:	e8 e6 e0 ff ff       	call   4250 <operator delete(void*)@plt>
    616a:	e9 4c ff ff ff       	jmp    60bb <ML::formatDims[abi:cxx11](std::vector<unsigned long, std::allocator<unsigned long> > const&) [clone .cold]+0x44>
    616f:	c5 f8 77             	vzeroupper
    6172:	e9 14 ff ff ff       	jmp    608b <ML::formatDims[abi:cxx11](std::vector<unsigned long, std::allocator<unsigned long> > const&) [clone .cold]+0x14>

0000000000006177 <ML::runInfTestQuant(ML::Model const&, ML::Path, int, QParams const*) [clone .cold]>:
    6177:	48 8b 7c 24 60       	mov    0x60(%rsp),%rdi
    617c:	48 39 df             	cmp    %rbx,%rdi
    617f:	74 4c                	je     61cd <ML::runInfTestQuant(ML::Model const&, ML::Path, int, QParams const*) [clone .cold]+0x56>
    6181:	c5 f8 77             	vzeroupper
    6184:	e8 c7 e0 ff ff       	call   4250 <operator delete(void*)@plt>
    6189:	4c 89 ef             	mov    %r13,%rdi
    618c:	e8 ef 07 02 00       	call   26980 <ML::LayerData::~LayerData()>
    6191:	48 89 ef             	mov    %rbp,%rdi
    6194:	e8 c7 e2 ff ff       	call   4460 <_Unwind_Resume@plt>
    6199:	48 8b 7c 24 60       	mov    0x60(%rsp),%rdi
    619e:	48 39 df             	cmp    %rbx,%rdi
    61a1:	75 20                	jne    61c3 <ML::runInfTestQuant(ML::Model const&, ML::Path, int, QParams const*) [clone .cold]+0x4c>
    61a3:	c5 f8 77             	vzeroupper
    61a6:	48 89 ef             	mov    %rbp,%rdi
    61a9:	e8 b2 e2 ff ff       	call   4460 <_Unwind_Resume@plt>
    61ae:	48 8b 7c 24 60       	mov    0x60(%rsp),%rdi
    61b3:	48 39 df             	cmp    %rbx,%rdi
    61b6:	75 1a                	jne    61d2 <ML::runInfTestQuant(ML::Model const&, ML::Path, int, QParams const*) [clone .cold]+0x5b>
    61b8:	c5 f8 77             	vzeroupper
    61bb:	48 89 ef             	mov    %rbp,%rdi
    61be:	e8 9d e2 ff ff       	call   4460 <_Unwind_Resume@plt>
    61c3:	c5 f8 77             	vzeroupper
    61c6:	e8 85 e0 ff ff       	call   4250 <operator delete(void*)@plt>
    61cb:	eb d9                	jmp    61a6 <ML::runInfTestQuant(ML::Model const&, ML::Path, int, QParams const*) [clone .cold]+0x2f>
    61cd:	c5 f8 77             	vzeroupper
    61d0:	eb b7                	jmp    6189 <ML::runInfTestQuant(ML::Model const&, ML::Path, int, QParams const*) [clone .cold]+0x12>
    61d2:	c5 f8 77             	vzeroupper
    61d5:	e8 76 e0 ff ff       	call   4250 <operator delete(void*)@plt>
    61da:	eb df                	jmp    61bb <ML::runInfTestQuant(ML::Model const&, ML::Path, int, QParams const*) [clone .cold]+0x44>

00000000000061dc <ML::runInferenceTest(ML::Model const&, ML::Path const&) [clone .cold]>:
    61dc:	48 8b bc 24 70 01 00 	mov    0x170(%rsp),%rdi
    61e3:	00 
    61e4:	4c 39 e7             	cmp    %r12,%rdi
    61e7:	74 7d                	je     6266 <ML::runInferenceTest(ML::Model const&, ML::Path const&) [clone .cold]+0x8a>
    61e9:	c5 f8 77             	vzeroupper
    61ec:	e8 5f e0 ff ff       	call   4250 <operator delete(void*)@plt>
    61f1:	48 8b 7c 24 10       	mov    0x10(%rsp),%rdi
    61f6:	48 8d 44 24 20       	lea    0x20(%rsp),%rax
    61fb:	48 39 c7             	cmp    %rax,%rdi
    61fe:	74 05                	je     6205 <ML::runInferenceTest(ML::Model const&, ML::Path const&) [clone .cold]+0x29>
    6200:	e8 4b e0 ff ff       	call   4250 <operator delete(void*)@plt>
    6205:	48 8b 7c 24 70       	mov    0x70(%rsp),%rdi
    620a:	48 8d 84 24 80 00 00 	lea    0x80(%rsp),%rax
    6211:	00 
    6212:	48 39 c7             	cmp    %rax,%rdi
    6215:	74 05                	je     621c <ML::runInferenceTest(ML::Model const&, ML::Path const&) [clone .cold]+0x40>
    6217:	e8 34 e0 ff ff       	call   4250 <operator delete(void*)@plt>
    621c:	48 8b 7c 24 50       	mov    0x50(%rsp),%rdi
    6221:	48 8d 44 24 60       	lea    0x60(%rsp),%rax
    6226:	48 39 c7             	cmp    %rax,%rdi
    6229:	74 05                	je     6230 <ML::runInferenceTest(ML::Model const&, ML::Path const&) [clone .cold]+0x54>
    622b:	e8 20 e0 ff ff       	call   4250 <operator delete(void*)@plt>
    6230:	48 8b 7c 24 30       	mov    0x30(%rsp),%rdi
    6235:	48 8d 44 24 40       	lea    0x40(%rsp),%rax
    623a:	48 39 c7             	cmp    %rax,%rdi
    623d:	74 05                	je     6244 <ML::runInferenceTest(ML::Model const&, ML::Path const&) [clone .cold]+0x68>
    623f:	e8 0c e0 ff ff       	call   4250 <operator delete(void*)@plt>
    6244:	48 8b bc 24 a0 00 00 	mov    0xa0(%rsp),%rdi
    624b:	00 
    624c:	4c 39 ff             	cmp    %r15,%rdi
    624f:	74 05                	je     6256 <ML::runInferenceTest(ML::Model const&, ML::Path const&) [clone .cold]+0x7a>
    6251:	e8 fa df ff ff       	call   4250 <operator delete(void*)@plt>
    6256:	4c 89 f7             	mov    %r14,%rdi
    6259:	e8 22 07 02 00       	call   26980 <ML::LayerData::~LayerData()>
    625e:	48 89 df             	mov    %rbx,%rdi
    6261:	e8 fa e1 ff ff       	call   4460 <_Unwind_Resume@plt>
    6266:	c5 f8 77             	vzeroupper
    6269:	eb 86                	jmp    61f1 <ML::runInferenceTest(ML::Model const&, ML::Path const&) [clone .cold]+0x15>
    626b:	48 8b bc 24 70 01 00 	mov    0x170(%rsp),%rdi
    6272:	00 
    6273:	4c 39 e7             	cmp    %r12,%rdi
    6276:	74 12                	je     628a <ML::runInferenceTest(ML::Model const&, ML::Path const&) [clone .cold]+0xae>
    6278:	c5 f8 77             	vzeroupper
    627b:	e8 d0 df ff ff       	call   4250 <operator delete(void*)@plt>
    6280:	48 89 ef             	mov    %rbp,%rdi
    6283:	e8 f8 06 02 00       	call   26980 <ML::LayerData::~LayerData()>
    6288:	eb ba                	jmp    6244 <ML::runInferenceTest(ML::Model const&, ML::Path const&) [clone .cold]+0x68>
    628a:	c5 f8 77             	vzeroupper
    628d:	eb f1                	jmp    6280 <ML::runInferenceTest(ML::Model const&, ML::Path const&) [clone .cold]+0xa4>
    628f:	48 8b bc 24 70 01 00 	mov    0x170(%rsp),%rdi
    6296:	00 
    6297:	4c 39 e7             	cmp    %r12,%rdi
    629a:	74 2a                	je     62c6 <ML::runInferenceTest(ML::Model const&, ML::Path const&) [clone .cold]+0xea>
    629c:	c5 f8 77             	vzeroupper
    629f:	e8 ac df ff ff       	call   4250 <operator delete(void*)@plt>
    62a4:	eb b0                	jmp    6256 <ML::runInferenceTest(ML::Model const&, ML::Path const&) [clone .cold]+0x7a>
    62a6:	48 8b bc 24 70 01 00 	mov    0x170(%rsp),%rdi
    62ad:	00 
    62ae:	48 8d 84 24 80 01 00 	lea    0x180(%rsp),%rax
    62b5:	00 
    62b6:	48 39 c7             	cmp    %rax,%rdi
    62b9:	75 4a                	jne    6305 <ML::runInferenceTest(ML::Model const&, ML::Path const&) [clone .cold]+0x129>
    62bb:	c5 f8 77             	vzeroupper
    62be:	48 89 df             	mov    %rbx,%rdi
    62c1:	e8 9a e1 ff ff       	call   4460 <_Unwind_Resume@plt>
    62c6:	c5 f8 77             	vzeroupper
    62c9:	eb 8b                	jmp    6256 <ML::runInferenceTest(ML::Model const&, ML::Path const&) [clone .cold]+0x7a>
    62cb:	48 8b bc 24 70 01 00 	mov    0x170(%rsp),%rdi
    62d2:	00 
    62d3:	4c 39 e7             	cmp    %r12,%rdi
    62d6:	74 25                	je     62fd <ML::runInferenceTest(ML::Model const&, ML::Path const&) [clone .cold]+0x121>
    62d8:	c5 f8 77             	vzeroupper
    62db:	e8 70 df ff ff       	call   4250 <operator delete(void*)@plt>
    62e0:	e9 71 ff ff ff       	jmp    6256 <ML::runInferenceTest(ML::Model const&, ML::Path const&) [clone .cold]+0x7a>
    62e5:	48 8b bc 24 70 01 00 	mov    0x170(%rsp),%rdi
    62ec:	00 
    62ed:	4c 39 e7             	cmp    %r12,%rdi
    62f0:	75 1d                	jne    630f <ML::runInferenceTest(ML::Model const&, ML::Path const&) [clone .cold]+0x133>
    62f2:	c5 f8 77             	vzeroupper
    62f5:	48 89 df             	mov    %rbx,%rdi
    62f8:	e8 63 e1 ff ff       	call   4460 <_Unwind_Resume@plt>
    62fd:	c5 f8 77             	vzeroupper
    6300:	e9 51 ff ff ff       	jmp    6256 <ML::runInferenceTest(ML::Model const&, ML::Path const&) [clone .cold]+0x7a>
    6305:	c5 f8 77             	vzeroupper
    6308:	e8 43 df ff ff       	call   4250 <operator delete(void*)@plt>
    630d:	eb af                	jmp    62be <ML::runInferenceTest(ML::Model const&, ML::Path const&) [clone .cold]+0xe2>
    630f:	c5 f8 77             	vzeroupper
    6312:	e8 39 df ff ff       	call   4250 <operator delete(void*)@plt>
    6317:	eb dc                	jmp    62f5 <ML::runInferenceTest(ML::Model const&, ML::Path const&) [clone .cold]+0x119>

0000000000006319 <ML::generateAccessTraces(ML::Model const&, ML::Path const&) [clone .cold]>:
    6319:	e8 72 e1 ff ff       	call   4490 <__cxa_bad_cast@plt>
    631e:	48 8b 7d 80          	mov    -0x80(%rbp),%rdi
    6322:	48 8d 45 90          	lea    -0x70(%rbp),%rax
    6326:	48 39 c7             	cmp    %rax,%rdi
    6329:	0f 85 6a 01 00 00    	jne    6499 <ML::generateAccessTraces(ML::Model const&, ML::Path const&) [clone .cold]+0x180>
    632f:	c5 f8 77             	vzeroupper
    6332:	48 89 df             	mov    %rbx,%rdi
    6335:	e8 26 e1 ff ff       	call   4460 <_Unwind_Resume@plt>
    633a:	48 8b bd 40 ff ff ff 	mov    -0xc0(%rbp),%rdi
    6341:	4c 39 e7             	cmp    %r12,%rdi
    6344:	0f 85 c5 00 00 00    	jne    640f <ML::generateAccessTraces(ML::Model const&, ML::Path const&) [clone .cold]+0xf6>
    634a:	c5 f8 77             	vzeroupper
    634d:	48 89 df             	mov    %rbx,%rdi
    6350:	4d 89 ec             	mov    %r13,%r12
    6353:	e8 28 06 02 00       	call   26980 <ML::LayerData::~LayerData()>
    6358:	4c 89 f7             	mov    %r14,%rdi
    635b:	49 ff cc             	dec    %r12
    635e:	0f 85 26 01 00 00    	jne    648a <ML::generateAccessTraces(ML::Model const&, ML::Path const&) [clone .cold]+0x171>
    6364:	4c 8d 25 35 c0 02 00 	lea    0x2c035(%rip),%r12        # 323a0 <std::cerr@GLIBCXX_3.4>
    636b:	e8 a0 dd ff ff       	call   4110 <__cxa_begin_catch@plt>
    6370:	ba 1c 00 00 00       	mov    $0x1c,%edx
    6375:	48 8d 35 a4 4d 02 00 	lea    0x24da4(%rip),%rsi        # 2b120 <typeinfo name for ML::SoftmaxLayer+0xe00>
    637c:	4c 89 e7             	mov    %r12,%rdi
    637f:	48 89 c3             	mov    %rax,%rbx
    6382:	e8 19 df ff ff       	call   42a0 <std::basic_ostream<char, std::char_traits<char> >& std::__ostream_insert<char, std::char_traits<char> >(std::basic_ostream<char, std::char_traits<char> >&, char const*, long)@plt>
    6387:	be 01 00 00 00       	mov    $0x1,%esi
    638c:	4c 89 e7             	mov    %r12,%rdi
    638f:	e8 1c de ff ff       	call   41b0 <std::ostream& std::ostream::_M_insert<unsigned long>(unsigned long)@plt>
    6394:	ba 38 00 00 00       	mov    $0x38,%edx
    6399:	48 8d 35 08 46 02 00 	lea    0x24608(%rip),%rsi        # 2a9a8 <typeinfo name for ML::SoftmaxLayer+0x688>
    63a0:	48 89 c7             	mov    %rax,%rdi
    63a3:	49 89 c6             	mov    %rax,%r14
    63a6:	e8 f5 de ff ff       	call   42a0 <std::basic_ostream<char, std::char_traits<char> >& std::__ostream_insert<char, std::char_traits<char> >(std::basic_ostream<char, std::char_traits<char> >&, char const*, long)@plt>
    63ab:	4c 89 f7             	mov    %r14,%rdi
    63ae:	e8 8d dd ff ff       	call   4140 <std::basic_ostream<char, std::char_traits<char> >& std::endl<char, std::char_traits<char> >(std::basic_ostream<char, std::char_traits<char> >&)@plt>
    63b3:	48 8b 03             	mov    (%rbx),%rax
    63b6:	48 89 df             	mov    %rbx,%rdi
    63b9:	ff 50 10             	call   *0x10(%rax)
    63bc:	4c 89 e7             	mov    %r12,%rdi
    63bf:	48 89 c6             	mov    %rax,%rsi
    63c2:	e8 99 de ff ff       	call   4260 <std::basic_ostream<char, std::char_traits<char> >& std::operator<< <std::char_traits<char> >(std::basic_ostream<char, std::char_traits<char> >&, char const*)@plt>
    63c7:	48 89 c7             	mov    %rax,%rdi
    63ca:	be 0a 00 00 00       	mov    $0xa,%esi
    63cf:	e8 05 e8 ff ff       	call   4bd9 <std::basic_ostream<char, std::char_traits<char> >& std::operator<< <std::char_traits<char> >(std::basic_ostream<char, std::char_traits<char> >&, char) [clone .isra.0]>
    63d4:	48 8d 65 d8          	lea    -0x28(%rbp),%rsp
    63d8:	5b                   	pop    %rbx
    63d9:	41 5c                	pop    %r12
    63db:	41 5d                	pop    %r13
    63dd:	41 5e                	pop    %r14
    63df:	41 5f                	pop    %r15
    63e1:	5d                   	pop    %rbp
    63e2:	e9 09 e0 ff ff       	jmp    43f0 <__cxa_end_catch@plt>
    63e7:	48 8b bd 40 ff ff ff 	mov    -0xc0(%rbp),%rdi
    63ee:	48 8d 85 50 ff ff ff 	lea    -0xb0(%rbp),%rax
    63f5:	48 39 c7             	cmp    %rax,%rdi
    63f8:	75 0b                	jne    6405 <ML::generateAccessTraces(ML::Model const&, ML::Path const&) [clone .cold]+0xec>
    63fa:	c5 f8 77             	vzeroupper
    63fd:	4d 89 e5             	mov    %r12,%r13
    6400:	e9 48 ff ff ff       	jmp    634d <ML::generateAccessTraces(ML::Model const&, ML::Path const&) [clone .cold]+0x34>
    6405:	c5 f8 77             	vzeroupper
    6408:	e8 43 de ff ff       	call   4250 <operator delete(void*)@plt>
    640d:	eb ee                	jmp    63fd <ML::generateAccessTraces(ML::Model const&, ML::Path const&) [clone .cold]+0xe4>
    640f:	c5 f8 77             	vzeroupper
    6412:	e8 39 de ff ff       	call   4250 <operator delete(void*)@plt>
    6417:	e9 31 ff ff ff       	jmp    634d <ML::generateAccessTraces(ML::Model const&, ML::Path const&) [clone .cold]+0x34>
    641c:	48 8b bd 60 ff ff ff 	mov    -0xa0(%rbp),%rdi
    6423:	48 8d 85 70 ff ff ff 	lea    -0x90(%rbp),%rax
    642a:	48 39 c7             	cmp    %rax,%rdi
    642d:	75 60                	jne    648f <ML::generateAccessTraces(ML::Model const&, ML::Path const&) [clone .cold]+0x176>
    642f:	c5 f8 77             	vzeroupper
    6432:	48 89 df             	mov    %rbx,%rdi
    6435:	e9 21 ff ff ff       	jmp    635b <ML::generateAccessTraces(ML::Model const&, ML::Path const&) [clone .cold]+0x42>
    643a:	48 8b bd 60 ff ff ff 	mov    -0xa0(%rbp),%rdi
    6441:	4c 39 e7             	cmp    %r12,%rdi
    6444:	74 26                	je     646c <ML::generateAccessTraces(ML::Model const&, ML::Path const&) [clone .cold]+0x153>
    6446:	c5 f8 77             	vzeroupper
    6449:	e8 02 de ff ff       	call   4250 <operator delete(void*)@plt>
    644e:	e9 fa fe ff ff       	jmp    634d <ML::generateAccessTraces(ML::Model const&, ML::Path const&) [clone .cold]+0x34>
    6453:	48 8b bd 60 ff ff ff 	mov    -0xa0(%rbp),%rdi
    645a:	4c 39 e7             	cmp    %r12,%rdi
    645d:	74 15                	je     6474 <ML::generateAccessTraces(ML::Model const&, ML::Path const&) [clone .cold]+0x15b>
    645f:	c5 f8 77             	vzeroupper
    6462:	e8 e9 dd ff ff       	call   4250 <operator delete(void*)@plt>
    6467:	e9 e1 fe ff ff       	jmp    634d <ML::generateAccessTraces(ML::Model const&, ML::Path const&) [clone .cold]+0x34>
    646c:	c5 f8 77             	vzeroupper
    646f:	e9 d9 fe ff ff       	jmp    634d <ML::generateAccessTraces(ML::Model const&, ML::Path const&) [clone .cold]+0x34>
    6474:	c5 f8 77             	vzeroupper
    6477:	e9 d1 fe ff ff       	jmp    634d <ML::generateAccessTraces(ML::Model const&, ML::Path const&) [clone .cold]+0x34>
    647c:	48 89 c7             	mov    %rax,%rdi
    647f:	49 89 d4             	mov    %rdx,%r12
    6482:	c5 f8 77             	vzeroupper
    6485:	e9 d1 fe ff ff       	jmp    635b <ML::generateAccessTraces(ML::Model const&, ML::Path const&) [clone .cold]+0x42>
    648a:	e8 d1 df ff ff       	call   4460 <_Unwind_Resume@plt>
    648f:	c5 f8 77             	vzeroupper
    6492:	e8 b9 dd ff ff       	call   4250 <operator delete(void*)@plt>
    6497:	eb 99                	jmp    6432 <ML::generateAccessTraces(ML::Model const&, ML::Path const&) [clone .cold]+0x119>
    6499:	c5 f8 77             	vzeroupper
    649c:	e8 af dd ff ff       	call   4250 <operator delete(void*)@plt>
    64a1:	e9 8c fe ff ff       	jmp    6332 <ML::generateAccessTraces(ML::Model const&, ML::Path const&) [clone .cold]+0x19>
    64a6:	48 89 c3             	mov    %rax,%rbx
    64a9:	c5 f8 77             	vzeroupper
    64ac:	e8 3f df ff ff       	call   43f0 <__cxa_end_catch@plt>
    64b1:	48 89 df             	mov    %rbx,%rdi
    64b4:	e8 a7 df ff ff       	call   4460 <_Unwind_Resume@plt>

00000000000064b9 <ML::inspectQuantizedLayer(ML::Path const&, std::__cxx11::basic_string<char, std::char_traits<char>, std::allocator<char> > const&, std::vector<unsigned long, std::allocator<unsigned long> > const&, std::vector<unsigned long, std::allocator<unsigned long> > const&) [clone .cold]>:
    64b9:	48 8b bc 24 70 01 00 	mov    0x170(%rsp),%rdi
    64c0:	00 
    64c1:	4c 39 ef             	cmp    %r13,%rdi
    64c4:	75 4a                	jne    6510 <ML::inspectQuantizedLayer(ML::Path const&, std::__cxx11::basic_string<char, std::char_traits<char>, std::allocator<char> > const&, std::vector<unsigned long, std::allocator<unsigned long> > const&, std::vector<unsigned long, std::allocator<unsigned long> > const&) [clone .cold]+0x57>
    64c6:	c5 f8 77             	vzeroupper
    64c9:	48 8b 7c 24 40       	mov    0x40(%rsp),%rdi
    64ce:	48 8d 44 24 50       	lea    0x50(%rsp),%rax
    64d3:	48 39 c7             	cmp    %rax,%rdi
    64d6:	74 05                	je     64dd <ML::inspectQuantizedLayer(ML::Path const&, std::__cxx11::basic_string<char, std::char_traits<char>, std::allocator<char> > const&, std::vector<unsigned long, std::allocator<unsigned long> > const&, std::vector<unsigned long, std::allocator<unsigned long> > const&) [clone .cold]+0x24>
    64d8:	e8 73 dd ff ff       	call   4250 <operator delete(void*)@plt>
    64dd:	48 8b 7c 24 20       	mov    0x20(%rsp),%rdi
    64e2:	48 8d 44 24 30       	lea    0x30(%rsp),%rax
    64e7:	48 39 c7             	cmp    %rax,%rdi
    64ea:	74 05                	je     64f1 <ML::inspectQuantizedLayer(ML::Path const&, std::__cxx11::basic_string<char, std::char_traits<char>, std::allocator<char> > const&, std::vector<unsigned long, std::allocator<unsigned long> > const&, std::vector<unsigned long, std::allocator<unsigned long> > const&) [clone .cold]+0x38>
    64ec:	e8 5f dd ff ff       	call   4250 <operator delete(void*)@plt>
    64f1:	48 89 df             	mov    %rbx,%rdi
    64f4:	e8 67 df ff ff       	call   4460 <_Unwind_Resume@plt>
    64f9:	48 8b bc 24 70 01 00 	mov    0x170(%rsp),%rdi
    6500:	00 
    6501:	4c 39 ef             	cmp    %r13,%rdi
    6504:	74 14                	je     651a <ML::inspectQuantizedLayer(ML::Path const&, std::__cxx11::basic_string<char, std::char_traits<char>, std::allocator<char> > const&, std::vector<unsigned long, std::allocator<unsigned long> > const&, std::vector<unsigned long, std::allocator<unsigned long> > const&) [clone .cold]+0x61>
    6506:	c5 f8 77             	vzeroupper
    6509:	e8 42 dd ff ff       	call   4250 <operator delete(void*)@plt>
    650e:	eb b9                	jmp    64c9 <ML::inspectQuantizedLayer(ML::Path const&, std::__cxx11::basic_string<char, std::char_traits<char>, std::allocator<char> > const&, std::vector<unsigned long, std::allocator<unsigned long> > const&, std::vector<unsigned long, std::allocator<unsigned long> > const&) [clone .cold]+0x10>
    6510:	c5 f8 77             	vzeroupper
    6513:	e8 38 dd ff ff       	call   4250 <operator delete(void*)@plt>
    6518:	eb af                	jmp    64c9 <ML::inspectQuantizedLayer(ML::Path const&, std::__cxx11::basic_string<char, std::char_traits<char>, std::allocator<char> > const&, std::vector<unsigned long, std::allocator<unsigned long> > const&, std::vector<unsigned long, std::allocator<unsigned long> > const&) [clone .cold]+0x10>
    651a:	c5 f8 77             	vzeroupper
    651d:	eb aa                	jmp    64c9 <ML::inspectQuantizedLayer(ML::Path const&, std::__cxx11::basic_string<char, std::char_traits<char>, std::allocator<char> > const&, std::vector<unsigned long, std::allocator<unsigned long> > const&, std::vector<unsigned long, std::allocator<unsigned long> > const&) [clone .cold]+0x10>
    651f:	48 8b bc 24 70 01 00 	mov    0x170(%rsp),%rdi
    6526:	00 
    6527:	4c 39 ef             	cmp    %r13,%rdi
    652a:	0f 85 f6 00 00 00    	jne    6626 <ML::inspectQuantizedLayer(ML::Path const&, std::__cxx11::basic_string<char, std::char_traits<char>, std::allocator<char> > const&, std::vector<unsigned long, std::allocator<unsigned long> > const&, std::vector<unsigned long, std::allocator<unsigned long> > const&) [clone .cold]+0x16d>
    6530:	c5 f8 77             	vzeroupper
    6533:	48 8b bc 24 20 01 00 	mov    0x120(%rsp),%rdi
    653a:	00 
    653b:	48 85 ff             	test   %rdi,%rdi
    653e:	0f 85 ef 00 00 00    	jne    6633 <ML::inspectQuantizedLayer(ML::Path const&, std::__cxx11::basic_string<char, std::char_traits<char>, std::allocator<char> > const&, std::vector<unsigned long, std::allocator<unsigned long> > const&, std::vector<unsigned long, std::allocator<unsigned long> > const&) [clone .cold]+0x17a>
    6544:	48 89 e8             	mov    %rbp,%rax
    6547:	48 ff c8             	dec    %rax
    654a:	0f 85 b9 00 00 00    	jne    6609 <ML::inspectQuantizedLayer(ML::Path const&, std::__cxx11::basic_string<char, std::char_traits<char>, std::allocator<char> > const&, std::vector<unsigned long, std::allocator<unsigned long> > const&, std::vector<unsigned long, std::allocator<unsigned long> > const&) [clone .cold]+0x150>
    6550:	48 89 df             	mov    %rbx,%rdi
    6553:	e8 b8 db ff ff       	call   4110 <__cxa_begin_catch@plt>
    6558:	48 8b 74 24 40       	mov    0x40(%rsp),%rsi
    655d:	48 8d 3d a4 44 02 00 	lea    0x244a4(%rip),%rdi        # 2aa08 <typeinfo name for ML::SoftmaxLayer+0x6e8>
    6564:	48 89 c3             	mov    %rax,%rbx
    6567:	31 c0                	xor    %eax,%eax
    6569:	e8 e2 da ff ff       	call   4050 <printf@plt>
    656e:	48 8d 2d 2b be 02 00 	lea    0x2be2b(%rip),%rbp        # 323a0 <std::cerr@GLIBCXX_3.4>
    6575:	ba 0a 00 00 00       	mov    $0xa,%edx
    657a:	48 8d 35 2e 4c 02 00 	lea    0x24c2e(%rip),%rsi        # 2b1af <typeinfo name for ML::SoftmaxLayer+0xe8f>
    6581:	48 89 ef             	mov    %rbp,%rdi
    6584:	e8 17 dd ff ff       	call   42a0 <std::basic_ostream<char, std::char_traits<char> >& std::__ostream_insert<char, std::char_traits<char> >(std::basic_ostream<char, std::char_traits<char> >&, char const*, long)@plt>
    6589:	48 8b 03             	mov    (%rbx),%rax
    658c:	48 89 df             	mov    %rbx,%rdi
    658f:	ff 50 10             	call   *0x10(%rax)
    6592:	48 89 ef             	mov    %rbp,%rdi
    6595:	48 89 c6             	mov    %rax,%rsi
    6598:	e8 c3 dc ff ff       	call   4260 <std::basic_ostream<char, std::char_traits<char> >& std::operator<< <std::char_traits<char> >(std::basic_ostream<char, std::char_traits<char> >&, char const*)@plt>
    659d:	48 89 c7             	mov    %rax,%rdi
    65a0:	be 0a 00 00 00       	mov    $0xa,%esi
    65a5:	e8 2f e6 ff ff       	call   4bd9 <std::basic_ostream<char, std::char_traits<char> >& std::operator<< <std::char_traits<char> >(std::basic_ostream<char, std::char_traits<char> >&, char) [clone .isra.0]>
    65aa:	e8 41 de ff ff       	call   43f0 <__cxa_end_catch@plt>
    65af:	e9 3e 28 01 00       	jmp    18df2 <ML::inspectQuantizedLayer(ML::Path const&, std::__cxx11::basic_string<char, std::char_traits<char>, std::allocator<char> > const&, std::vector<unsigned long, std::allocator<unsigned long> > const&, std::vector<unsigned long, std::allocator<unsigned long> > const&)+0x3c2>
    65b4:	48 8b bc 24 80 00 00 	mov    0x80(%rsp),%rdi
    65bb:	00 
    65bc:	48 8d 84 24 90 00 00 	lea    0x90(%rsp),%rax
    65c3:	00 
    65c4:	48 39 c7             	cmp    %rax,%rdi
    65c7:	0f 85 90 00 00 00    	jne    665d <ML::inspectQuantizedLayer(ML::Path const&, std::__cxx11::basic_string<char, std::char_traits<char>, std::allocator<char> > const&, std::vector<unsigned long, std::allocator<unsigned long> > const&, std::vector<unsigned long, std::allocator<unsigned long> > const&) [clone .cold]+0x1a4>
    65cd:	c5 f8 77             	vzeroupper
    65d0:	4c 89 e7             	mov    %r12,%rdi
    65d3:	e8 a8 03 02 00       	call   26980 <ML::LayerData::~LayerData()>
    65d8:	48 8b 7c 24 08       	mov    0x8(%rsp),%rdi
    65dd:	e8 ce 8f 00 00       	call   f5b0 <ML::LayerParams::~LayerParams()>
    65e2:	48 8b 7c 24 10       	mov    0x10(%rsp),%rdi
    65e7:	e8 94 03 02 00       	call   26980 <ML::LayerData::~LayerData()>
    65ec:	48 8b 7c 24 18       	mov    0x18(%rsp),%rdi
    65f1:	e8 ba 8f 00 00       	call   f5b0 <ML::LayerParams::~LayerParams()>
    65f6:	48 89 e8             	mov    %rbp,%rax
    65f9:	e9 49 ff ff ff       	jmp    6547 <ML::inspectQuantizedLayer(ML::Path const&, std::__cxx11::basic_string<char, std::char_traits<char>, std::allocator<char> > const&, std::vector<unsigned long, std::allocator<unsigned long> > const&, std::vector<unsigned long, std::allocator<unsigned long> > const&) [clone .cold]+0x8e>
    65fe:	48 89 c3             	mov    %rax,%rbx
    6601:	c5 f8 77             	vzeroupper
    6604:	e8 e7 dd ff ff       	call   43f0 <__cxa_end_catch@plt>
    6609:	48 8b 7c 24 60       	mov    0x60(%rsp),%rdi
    660e:	48 8d 44 24 70       	lea    0x70(%rsp),%rax
    6613:	48 39 c7             	cmp    %rax,%rdi
    6616:	0f 84 ad fe ff ff    	je     64c9 <ML::inspectQuantizedLayer(ML::Path const&, std::__cxx11::basic_string<char, std::char_traits<char>, std::allocator<char> > const&, std::vector<unsigned long, std::allocator<unsigned long> > const&, std::vector<unsigned long, std::allocator<unsigned long> > const&) [clone .cold]+0x10>
    661c:	e8 2f dc ff ff       	call   4250 <operator delete(void*)@plt>
    6621:	e9 a3 fe ff ff       	jmp    64c9 <ML::inspectQuantizedLayer(ML::Path const&, std::__cxx11::basic_string<char, std::char_traits<char>, std::allocator<char> > const&, std::vector<unsigned long, std::allocator<unsigned long> > const&, std::vector<unsigned long, std::allocator<unsigned long> > const&) [clone .cold]+0x10>
    6626:	c5 f8 77             	vzeroupper
    6629:	e8 22 dc ff ff       	call   4250 <operator delete(void*)@plt>
    662e:	e9 00 ff ff ff       	jmp    6533 <ML::inspectQuantizedLayer(ML::Path const&, std::__cxx11::basic_string<char, std::char_traits<char>, std::allocator<char> > const&, std::vector<unsigned long, std::allocator<unsigned long> > const&, std::vector<unsigned long, std::allocator<unsigned long> > const&) [clone .cold]+0x7a>
    6633:	e8 18 dc ff ff       	call   4250 <operator delete(void*)@plt>
    6638:	e9 07 ff ff ff       	jmp    6544 <ML::inspectQuantizedLayer(ML::Path const&, std::__cxx11::basic_string<char, std::char_traits<char>, std::allocator<char> > const&, std::vector<unsigned long, std::allocator<unsigned long> > const&, std::vector<unsigned long, std::allocator<unsigned long> > const&) [clone .cold]+0x8b>
    663d:	48 8b bc 24 70 01 00 	mov    0x170(%rsp),%rdi
    6644:	00 
    6645:	48 8d 84 24 80 01 00 	lea    0x180(%rsp),%rax
    664c:	00 
    664d:	48 39 c7             	cmp    %rax,%rdi
    6650:	75 18                	jne    666a <ML::inspectQuantizedLayer(ML::Path const&, std::__cxx11::basic_string<char, std::char_traits<char>, std::allocator<char> > const&, std::vector<unsigned long, std::allocator<unsigned long> > const&, std::vector<unsigned long, std::allocator<unsigned long> > const&) [clone .cold]+0x1b1>
    6652:	c5 f8 77             	vzeroupper
    6655:	48 89 df             	mov    %rbx,%rdi
    6658:	e8 03 de ff ff       	call   4460 <_Unwind_Resume@plt>
    665d:	c5 f8 77             	vzeroupper
    6660:	e8 eb db ff ff       	call   4250 <operator delete(void*)@plt>
    6665:	e9 66 ff ff ff       	jmp    65d0 <ML::inspectQuantizedLayer(ML::Path const&, std::__cxx11::basic_string<char, std::char_traits<char>, std::allocator<char> > const&, std::vector<unsigned long, std::allocator<unsigned long> > const&, std::vector<unsigned long, std::allocator<unsigned long> > const&) [clone .cold]+0x117>
    666a:	c5 f8 77             	vzeroupper
    666d:	e8 de db ff ff       	call   4250 <operator delete(void*)@plt>
    6672:	eb e1                	jmp    6655 <ML::inspectQuantizedLayer(ML::Path const&, std::__cxx11::basic_string<char, std::char_traits<char>, std::allocator<char> > const&, std::vector<unsigned long, std::allocator<unsigned long> > const&, std::vector<unsigned long, std::allocator<unsigned long> > const&) [clone .cold]+0x19c>
    6674:	48 8b bc 24 70 01 00 	mov    0x170(%rsp),%rdi
    667b:	00 
    667c:	4c 39 ef             	cmp    %r13,%rdi
    667f:	74 23                	je     66a4 <ML::inspectQuantizedLayer(ML::Path const&, std::__cxx11::basic_string<char, std::char_traits<char>, std::allocator<char> > const&, std::vector<unsigned long, std::allocator<unsigned long> > const&, std::vector<unsigned long, std::allocator<unsigned long> > const&) [clone .cold]+0x1eb>
    6681:	c5 f8 77             	vzeroupper
    6684:	e8 c7 db ff ff       	call   4250 <operator delete(void*)@plt>
    6689:	48 8b bc 24 80 00 00 	mov    0x80(%rsp),%rdi
    6690:	00 
    6691:	48 85 ff             	test   %rdi,%rdi
    6694:	0f 84 48 ff ff ff    	je     65e2 <ML::inspectQuantizedLayer(ML::Path const&, std::__cxx11::basic_string<char, std::char_traits<char>, std::allocator<char> > const&, std::vector<unsigned long, std::allocator<unsigned long> > const&, std::vector<unsigned long, std::allocator<unsigned long> > const&) [clone .cold]+0x129>
    669a:	e8 b1 db ff ff       	call   4250 <operator delete(void*)@plt>
    669f:	e9 3e ff ff ff       	jmp    65e2 <ML::inspectQuantizedLayer(ML::Path const&, std::__cxx11::basic_string<char, std::char_traits<char>, std::allocator<char> > const&, std::vector<unsigned long, std::allocator<unsigned long> > const&, std::vector<unsigned long, std::allocator<unsigned long> > const&) [clone .cold]+0x129>
    66a4:	c5 f8 77             	vzeroupper
    66a7:	eb e0                	jmp    6689 <ML::inspectQuantizedLayer(ML::Path const&, std::__cxx11::basic_string<char, std::char_traits<char>, std::allocator<char> > const&, std::vector<unsigned long, std::allocator<unsigned long> > const&, std::vector<unsigned long, std::allocator<unsigned long> > const&) [clone .cold]+0x1d0>
    66a9:	48 8b bc 24 70 01 00 	mov    0x170(%rsp),%rdi
    66b0:	00 
    66b1:	4c 39 ef             	cmp    %r13,%rdi
    66b4:	74 49                	je     66ff <ML::inspectQuantizedLayer(ML::Path const&, std::__cxx11::basic_string<char, std::char_traits<char>, std::allocator<char> > const&, std::vector<unsigned long, std::allocator<unsigned long> > const&, std::vector<unsigned long, std::allocator<unsigned long> > const&) [clone .cold]+0x246>
    66b6:	c5 f8 77             	vzeroupper
    66b9:	e8 92 db ff ff       	call   4250 <operator delete(void*)@plt>
    66be:	e9 1f ff ff ff       	jmp    65e2 <ML::inspectQuantizedLayer(ML::Path const&, std::__cxx11::basic_string<char, std::char_traits<char>, std::allocator<char> > const&, std::vector<unsigned long, std::allocator<unsigned long> > const&, std::vector<unsigned long, std::allocator<unsigned long> > const&) [clone .cold]+0x129>
    66c3:	48 8b bc 24 70 01 00 	mov    0x170(%rsp),%rdi
    66ca:	00 
    66cb:	4c 39 ef             	cmp    %r13,%rdi
    66ce:	74 27                	je     66f7 <ML::inspectQuantizedLayer(ML::Path const&, std::__cxx11::basic_string<char, std::char_traits<char>, std::allocator<char> > const&, std::vector<unsigned long, std::allocator<unsigned long> > const&, std::vector<unsigned long, std::allocator<unsigned long> > const&) [clone .cold]+0x23e>
    66d0:	c5 f8 77             	vzeroupper
    66d3:	e8 78 db ff ff       	call   4250 <operator delete(void*)@plt>
    66d8:	e9 00 fe ff ff       	jmp    64dd <ML::inspectQuantizedLayer(ML::Path const&, std::__cxx11::basic_string<char, std::char_traits<char>, std::allocator<char> > const&, std::vector<unsigned long, std::allocator<unsigned long> > const&, std::vector<unsigned long, std::allocator<unsigned long> > const&) [clone .cold]+0x24>
    66dd:	48 8b bc 24 70 01 00 	mov    0x170(%rsp),%rdi
    66e4:	00 
    66e5:	4c 39 ef             	cmp    %r13,%rdi
    66e8:	74 1d                	je     6707 <ML::inspectQuantizedLayer(ML::Path const&, std::__cxx11::basic_string<char, std::char_traits<char>, std::allocator<char> > const&, std::vector<unsigned long, std::allocator<unsigned long> > const&, std::vector<unsigned long, std::allocator<unsigned long> > const&) [clone .cold]+0x24e>
    66ea:	c5 f8 77             	vzeroupper
    66ed:	e8 5e db ff ff       	call   4250 <operator delete(void*)@plt>
    66f2:	e9 e6 fd ff ff       	jmp    64dd <ML::inspectQuantizedLayer(ML::Path const&, std::__cxx11::basic_string<char, std::char_traits<char>, std::allocator<char> > const&, std::vector<unsigned long, std::allocator<unsigned long> > const&, std::vector<unsigned long, std::allocator<unsigned long> > const&) [clone .cold]+0x24>
    66f7:	c5 f8 77             	vzeroupper
    66fa:	e9 de fd ff ff       	jmp    64dd <ML::inspectQuantizedLayer(ML::Path const&, std::__cxx11::basic_string<char, std::char_traits<char>, std::allocator<char> > const&, std::vector<unsigned long, std::allocator<unsigned long> > const&, std::vector<unsigned long, std::allocator<unsigned long> > const&) [clone .cold]+0x24>
    66ff:	c5 f8 77             	vzeroupper
    6702:	e9 db fe ff ff       	jmp    65e2 <ML::inspectQuantizedLayer(ML::Path const&, std::__cxx11::basic_string<char, std::char_traits<char>, std::allocator<char> > const&, std::vector<unsigned long, std::allocator<unsigned long> > const&, std::vector<unsigned long, std::allocator<unsigned long> > const&) [clone .cold]+0x129>
    6707:	c5 f8 77             	vzeroupper
    670a:	e9 ce fd ff ff       	jmp    64dd <ML::inspectQuantizedLayer(ML::Path const&, std::__cxx11::basic_string<char, std::char_traits<char>, std::allocator<char> > const&, std::vector<unsigned long, std::allocator<unsigned long> > const&, std::vector<unsigned long, std::allocator<unsigned long> > const&) [clone .cold]+0x24>

000000000000670f <ML::runBasicTest(ML::Model const&, ML::Path const&) [clone .cold]>:
    670f:	e8 2c dc ff ff       	call   4340 <__cxa_throw_bad_array_new_length@plt>
    6714:	48 89 df             	mov    %rbx,%rdi
    6717:	c5 f8 77             	vzeroupper
    671a:	4c 89 e3             	mov    %r12,%rbx
    671d:	e8 8e 8e 00 00       	call   f5b0 <ML::LayerParams::~LayerParams()>
    6722:	48 8b bd 10 ff ff ff 	mov    -0xf0(%rbp),%rdi
    6729:	48 8d 85 20 ff ff ff 	lea    -0xe0(%rbp),%rax
    6730:	48 39 c7             	cmp    %rax,%rdi
    6733:	74 05                	je     673a <ML::runBasicTest(ML::Model const&, ML::Path const&) [clone .cold]+0x2b>
    6735:	e8 16 db ff ff       	call   4250 <operator delete(void*)@plt>
    673a:	48 8b bd f0 fe ff ff 	mov    -0x110(%rbp),%rdi
    6741:	48 85 ff             	test   %rdi,%rdi
    6744:	74 05                	je     674b <ML::runBasicTest(ML::Model const&, ML::Path const&) [clone .cold]+0x3c>
    6746:	e8 05 db ff ff       	call   4250 <operator delete(void*)@plt>
    674b:	48 89 df             	mov    %rbx,%rdi
    674e:	e8 0d dd ff ff       	call   4460 <_Unwind_Resume@plt>
    6753:	48 8b 7d c0          	mov    -0x40(%rbp),%rdi
    6757:	49 89 c5             	mov    %rax,%r13
    675a:	48 85 ff             	test   %rdi,%rdi
    675d:	75 54                	jne    67b3 <ML::runBasicTest(ML::Model const&, ML::Path const&) [clone .cold]+0xa4>
    675f:	c5 f8 77             	vzeroupper
    6762:	48 89 df             	mov    %rbx,%rdi
    6765:	e8 46 8e 00 00       	call   f5b0 <ML::LayerParams::~LayerParams()>
    676a:	eb 2d                	jmp    6799 <ML::runBasicTest(ML::Model const&, ML::Path const&) [clone .cold]+0x8a>
    676c:	48 8b 7d 80          	mov    -0x80(%rbp),%rdi
    6770:	4c 39 ef             	cmp    %r13,%rdi
    6773:	75 34                	jne    67a9 <ML::runBasicTest(ML::Model const&, ML::Path const&) [clone .cold]+0x9a>
    6775:	c5 f8 77             	vzeroupper
    6778:	49 89 dd             	mov    %rbx,%r13
    677b:	eb 1c                	jmp    6799 <ML::runBasicTest(ML::Model const&, ML::Path const&) [clone .cold]+0x8a>
    677d:	48 8b bd 10 ff ff ff 	mov    -0xf0(%rbp),%rdi
    6784:	4c 39 ff             	cmp    %r15,%rdi
    6787:	74 4c                	je     67d5 <ML::runBasicTest(ML::Model const&, ML::Path const&) [clone .cold]+0xc6>
    6789:	c5 f8 77             	vzeroupper
    678c:	e8 bf da ff ff       	call   4250 <operator delete(void*)@plt>
    6791:	48 89 df             	mov    %rbx,%rdi
    6794:	e8 e7 01 02 00       	call   26980 <ML::LayerData::~LayerData()>
    6799:	4c 89 e7             	mov    %r12,%rdi
    679c:	e8 df 01 02 00       	call   26980 <ML::LayerData::~LayerData()>
    67a1:	4c 89 ef             	mov    %r13,%rdi
    67a4:	e8 b7 dc ff ff       	call   4460 <_Unwind_Resume@plt>
    67a9:	c5 f8 77             	vzeroupper
    67ac:	e8 9f da ff ff       	call   4250 <operator delete(void*)@plt>
    67b1:	eb c5                	jmp    6778 <ML::runBasicTest(ML::Model const&, ML::Path const&) [clone .cold]+0x69>
    67b3:	c5 f8 77             	vzeroupper
    67b6:	e8 35 db ff ff       	call   42f0 <operator delete[](void*)@plt>
    67bb:	eb a5                	jmp    6762 <ML::runBasicTest(ML::Model const&, ML::Path const&) [clone .cold]+0x53>
    67bd:	48 8b 7d 80          	mov    -0x80(%rbp),%rdi
    67c1:	48 8d 45 90          	lea    -0x70(%rbp),%rax
    67c5:	48 39 c7             	cmp    %rax,%rdi
    67c8:	75 10                	jne    67da <ML::runBasicTest(ML::Model const&, ML::Path const&) [clone .cold]+0xcb>
    67ca:	c5 f8 77             	vzeroupper
    67cd:	48 89 df             	mov    %rbx,%rdi
    67d0:	e8 8b dc ff ff       	call   4460 <_Unwind_Resume@plt>
    67d5:	c5 f8 77             	vzeroupper
    67d8:	eb b7                	jmp    6791 <ML::runBasicTest(ML::Model const&, ML::Path const&) [clone .cold]+0x82>
    67da:	c5 f8 77             	vzeroupper
    67dd:	e8 6e da ff ff       	call   4250 <operator delete(void*)@plt>
    67e2:	eb e9                	jmp    67cd <ML::runBasicTest(ML::Model const&, ML::Path const&) [clone .cold]+0xbe>

00000000000067e4 <ML::runLayerTest(unsigned long, ML::Model const&, ML::Path const&) [clone .cold]>:
    67e4:	48 89 df             	mov    %rbx,%rdi
    67e7:	c5 f8 77             	vzeroupper
    67ea:	4c 89 fb             	mov    %r15,%rbx
    67ed:	e8 be 8d 00 00       	call   f5b0 <ML::LayerParams::~LayerParams()>
    67f2:	48 8b bd f0 fe ff ff 	mov    -0x110(%rbp),%rdi
    67f9:	4c 39 f7             	cmp    %r14,%rdi
    67fc:	74 05                	je     6803 <ML::runLayerTest(unsigned long, ML::Model const&, ML::Path const&) [clone .cold]+0x1f>
    67fe:	e8 4d da ff ff       	call   4250 <operator delete(void*)@plt>
    6803:	4d 85 ed             	test   %r13,%r13
    6806:	74 08                	je     6810 <ML::runLayerTest(unsigned long, ML::Model const&, ML::Path const&) [clone .cold]+0x2c>
    6808:	4c 89 ef             	mov    %r13,%rdi
    680b:	e8 40 da ff ff       	call   4250 <operator delete(void*)@plt>
    6810:	4d 85 e4             	test   %r12,%r12
    6813:	74 08                	je     681d <ML::runLayerTest(unsigned long, ML::Model const&, ML::Path const&) [clone .cold]+0x39>
    6815:	4c 89 e7             	mov    %r12,%rdi
    6818:	e8 33 da ff ff       	call   4250 <operator delete(void*)@plt>
    681d:	48 89 df             	mov    %rbx,%rdi
    6820:	e8 3b dc ff ff       	call   4460 <_Unwind_Resume@plt>
    6825:	48 8b 7d 80          	mov    -0x80(%rbp),%rdi
    6829:	48 8d 45 90          	lea    -0x70(%rbp),%rax
    682d:	48 39 c7             	cmp    %rax,%rdi
    6830:	74 4a                	je     687c <ML::runLayerTest(unsigned long, ML::Model const&, ML::Path const&) [clone .cold]+0x98>
    6832:	c5 f8 77             	vzeroupper
    6835:	e8 16 da ff ff       	call   4250 <operator delete(void*)@plt>
    683a:	48 8b bd 30 ff ff ff 	mov    -0xd0(%rbp),%rdi
    6841:	48 8d 85 40 ff ff ff 	lea    -0xc0(%rbp),%rax
    6848:	48 39 c7             	cmp    %rax,%rdi
    684b:	74 05                	je     6852 <ML::runLayerTest(unsigned long, ML::Model const&, ML::Path const&) [clone .cold]+0x6e>
    684d:	e8 fe d9 ff ff       	call   4250 <operator delete(void*)@plt>
    6852:	48 8b bd d0 fe ff ff 	mov    -0x130(%rbp),%rdi
    6859:	4c 39 e7             	cmp    %r12,%rdi
    685c:	74 05                	je     6863 <ML::runLayerTest(unsigned long, ML::Model const&, ML::Path const&) [clone .cold]+0x7f>
    685e:	e8 ed d9 ff ff       	call   4250 <operator delete(void*)@plt>
    6863:	48 8b bd f0 fe ff ff 	mov    -0x110(%rbp),%rdi
    686a:	4c 39 f7             	cmp    %r14,%rdi
    686d:	74 05                	je     6874 <ML::runLayerTest(unsigned long, ML::Model const&, ML::Path const&) [clone .cold]+0x90>
    686f:	e8 dc d9 ff ff       	call   4250 <operator delete(void*)@plt>
    6874:	48 89 df             	mov    %rbx,%rdi
    6877:	e8 e4 db ff ff       	call   4460 <_Unwind_Resume@plt>
    687c:	c5 f8 77             	vzeroupper
    687f:	eb b9                	jmp    683a <ML::runLayerTest(unsigned long, ML::Model const&, ML::Path const&) [clone .cold]+0x56>
    6881:	48 8b 7d 80          	mov    -0x80(%rbp),%rdi
    6885:	4c 39 ff             	cmp    %r15,%rdi
    6888:	75 76                	jne    6900 <ML::runLayerTest(unsigned long, ML::Model const&, ML::Path const&) [clone .cold]+0x11c>
    688a:	c5 f8 77             	vzeroupper
    688d:	48 8b bd 68 fe ff ff 	mov    -0x198(%rbp),%rdi
    6894:	e8 e7 00 02 00       	call   26980 <ML::LayerData::~LayerData()>
    6899:	e9 72 ff ff ff       	jmp    6810 <ML::runLayerTest(unsigned long, ML::Model const&, ML::Path const&) [clone .cold]+0x2c>
    689e:	48 8b bd b0 fe ff ff 	mov    -0x150(%rbp),%rdi
    68a5:	48 8d 85 c0 fe ff ff 	lea    -0x140(%rbp),%rax
    68ac:	48 39 c7             	cmp    %rax,%rdi
    68af:	0f 84 8b 00 00 00    	je     6940 <ML::runLayerTest(unsigned long, ML::Model const&, ML::Path const&) [clone .cold]+0x15c>
    68b5:	c5 f8 77             	vzeroupper
    68b8:	e8 93 d9 ff ff       	call   4250 <operator delete(void*)@plt>
    68bd:	48 8b bd 90 fe ff ff 	mov    -0x170(%rbp),%rdi
    68c4:	48 8d 85 a0 fe ff ff 	lea    -0x160(%rbp),%rax
    68cb:	48 39 c7             	cmp    %rax,%rdi
    68ce:	74 05                	je     68d5 <ML::runLayerTest(unsigned long, ML::Model const&, ML::Path const&) [clone .cold]+0xf1>
    68d0:	e8 7b d9 ff ff       	call   4250 <operator delete(void*)@plt>
    68d5:	48 8b bd 00 ff ff ff 	mov    -0x100(%rbp),%rdi
    68dc:	4c 39 ef             	cmp    %r13,%rdi
    68df:	74 ac                	je     688d <ML::runLayerTest(unsigned long, ML::Model const&, ML::Path const&) [clone .cold]+0xa9>
    68e1:	e8 6a d9 ff ff       	call   4250 <operator delete(void*)@plt>
    68e6:	eb a5                	jmp    688d <ML::runLayerTest(unsigned long, ML::Model const&, ML::Path const&) [clone .cold]+0xa9>
    68e8:	48 8b 7d 80          	mov    -0x80(%rbp),%rdi
    68ec:	4c 39 ff             	cmp    %r15,%rdi
    68ef:	74 0a                	je     68fb <ML::runLayerTest(unsigned long, ML::Model const&, ML::Path const&) [clone .cold]+0x117>
    68f1:	c5 f8 77             	vzeroupper
    68f4:	e8 57 d9 ff ff       	call   4250 <operator delete(void*)@plt>
    68f9:	eb 92                	jmp    688d <ML::runLayerTest(unsigned long, ML::Model const&, ML::Path const&) [clone .cold]+0xa9>
    68fb:	c5 f8 77             	vzeroupper
    68fe:	eb 8d                	jmp    688d <ML::runLayerTest(unsigned long, ML::Model const&, ML::Path const&) [clone .cold]+0xa9>
    6900:	c5 f8 77             	vzeroupper
    6903:	e8 48 d9 ff ff       	call   4250 <operator delete(void*)@plt>
    6908:	eb 83                	jmp    688d <ML::runLayerTest(unsigned long, ML::Model const&, ML::Path const&) [clone .cold]+0xa9>
    690a:	48 8b bd b0 fe ff ff 	mov    -0x150(%rbp),%rdi
    6911:	4c 39 ff             	cmp    %r15,%rdi
    6914:	74 25                	je     693b <ML::runLayerTest(unsigned long, ML::Model const&, ML::Path const&) [clone .cold]+0x157>
    6916:	c5 f8 77             	vzeroupper
    6919:	e8 32 d9 ff ff       	call   4250 <operator delete(void*)@plt>
    691e:	48 89 df             	mov    %rbx,%rdi
    6921:	4c 89 f3             	mov    %r14,%rbx
    6924:	e8 57 00 02 00       	call   26980 <ML::LayerData::~LayerData()>
    6929:	eb aa                	jmp    68d5 <ML::runLayerTest(unsigned long, ML::Model const&, ML::Path const&) [clone .cold]+0xf1>
    692b:	4c 89 ef             	mov    %r13,%rdi
    692e:	c5 f8 77             	vzeroupper
    6931:	e8 1a d9 ff ff       	call   4250 <operator delete(void*)@plt>
    6936:	e9 da fe ff ff       	jmp    6815 <ML::runLayerTest(unsigned long, ML::Model const&, ML::Path const&) [clone .cold]+0x31>
    693b:	c5 f8 77             	vzeroupper
    693e:	eb de                	jmp    691e <ML::runLayerTest(unsigned long, ML::Model const&, ML::Path const&) [clone .cold]+0x13a>
    6940:	c5 f8 77             	vzeroupper
    6943:	e9 75 ff ff ff       	jmp    68bd <ML::runLayerTest(unsigned long, ML::Model const&, ML::Path const&) [clone .cold]+0xd9>

0000000000006948 <ML::profileFp32Model(ML::Model const&, ML::Path const&, int) [clone .cold]>:
    6948:	48 8b bd 00 ff ff ff 	mov    -0x100(%rbp),%rdi
    694f:	48 8d 85 10 ff ff ff 	lea    -0xf0(%rbp),%rax
    6956:	48 39 c7             	cmp    %rax,%rdi
    6959:	0f 84 c3 00 00 00    	je     6a22 <ML::profileFp32Model(ML::Model const&, ML::Path const&, int) [clone .cold]+0xda>
    695f:	c5 f8 77             	vzeroupper
    6962:	e8 e9 d8 ff ff       	call   4250 <operator delete(void*)@plt>
    6967:	48 8b bd e0 fe ff ff 	mov    -0x120(%rbp),%rdi
    696e:	48 8d 85 f0 fe ff ff 	lea    -0x110(%rbp),%rax
    6975:	48 39 c7             	cmp    %rax,%rdi
    6978:	74 05                	je     697f <ML::profileFp32Model(ML::Model const&, ML::Path const&, int) [clone .cold]+0x37>
    697a:	e8 d1 d8 ff ff       	call   4250 <operator delete(void*)@plt>
    697f:	48 8b 7d 80          	mov    -0x80(%rbp),%rdi
    6983:	48 8b 85 38 fe ff ff 	mov    -0x1c8(%rbp),%rax
    698a:	48 39 c7             	cmp    %rax,%rdi
    698d:	74 05                	je     6994 <ML::profileFp32Model(ML::Model const&, ML::Path const&, int) [clone .cold]+0x4c>
    698f:	e8 bc d8 ff ff       	call   4250 <operator delete(void*)@plt>
    6994:	48 8b bd 40 ff ff ff 	mov    -0xc0(%rbp),%rdi
    699b:	48 8b 85 58 fe ff ff 	mov    -0x1a8(%rbp),%rax
    69a2:	48 39 c7             	cmp    %rax,%rdi
    69a5:	74 05                	je     69ac <ML::profileFp32Model(ML::Model const&, ML::Path const&, int) [clone .cold]+0x64>
    69a7:	e8 a4 d8 ff ff       	call   4250 <operator delete(void*)@plt>
    69ac:	48 83 bd 60 fe ff ff 	cmpq   $0x0,-0x1a0(%rbp)
    69b3:	00 
    69b4:	74 0c                	je     69c2 <ML::profileFp32Model(ML::Model const&, ML::Path const&, int) [clone .cold]+0x7a>
    69b6:	48 8b bd 60 fe ff ff 	mov    -0x1a0(%rbp),%rdi
    69bd:	e8 8e d8 ff ff       	call   4250 <operator delete(void*)@plt>
    69c2:	48 89 df             	mov    %rbx,%rdi
    69c5:	e8 96 da ff ff       	call   4460 <_Unwind_Resume@plt>
    69ca:	48 8b 7d 80          	mov    -0x80(%rbp),%rdi
    69ce:	48 8b 85 38 fe ff ff 	mov    -0x1c8(%rbp),%rax
    69d5:	48 39 c7             	cmp    %rax,%rdi
    69d8:	74 0a                	je     69e4 <ML::profileFp32Model(ML::Model const&, ML::Path const&, int) [clone .cold]+0x9c>
    69da:	c5 f8 77             	vzeroupper
    69dd:	e8 6e d8 ff ff       	call   4250 <operator delete(void*)@plt>
    69e2:	eb c8                	jmp    69ac <ML::profileFp32Model(ML::Model const&, ML::Path const&, int) [clone .cold]+0x64>
    69e4:	c5 f8 77             	vzeroupper
    69e7:	eb c3                	jmp    69ac <ML::profileFp32Model(ML::Model const&, ML::Path const&, int) [clone .cold]+0x64>
    69e9:	48 8b bd 40 ff ff ff 	mov    -0xc0(%rbp),%rdi
    69f0:	48 8b 85 58 fe ff ff 	mov    -0x1a8(%rbp),%rax
    69f7:	48 39 c7             	cmp    %rax,%rdi
    69fa:	0f 84 c5 00 00 00    	je     6ac5 <ML::profileFp32Model(ML::Model const&, ML::Path const&, int) [clone .cold]+0x17d>
    6a00:	c5 f8 77             	vzeroupper
    6a03:	e8 48 d8 ff ff       	call   4250 <operator delete(void*)@plt>
    6a08:	48 8b bd c0 fe ff ff 	mov    -0x140(%rbp),%rdi
    6a0f:	48 8d 85 d0 fe ff ff 	lea    -0x130(%rbp),%rax
    6a16:	48 39 c7             	cmp    %rax,%rdi
    6a19:	74 91                	je     69ac <ML::profileFp32Model(ML::Model const&, ML::Path const&, int) [clone .cold]+0x64>
    6a1b:	e8 30 d8 ff ff       	call   4250 <operator delete(void*)@plt>
    6a20:	eb 8a                	jmp    69ac <ML::profileFp32Model(ML::Model const&, ML::Path const&, int) [clone .cold]+0x64>
    6a22:	c5 f8 77             	vzeroupper
    6a25:	e9 3d ff ff ff       	jmp    6967 <ML::profileFp32Model(ML::Model const&, ML::Path const&, int) [clone .cold]+0x1f>
    6a2a:	48 8b bd 00 ff ff ff 	mov    -0x100(%rbp),%rdi
    6a31:	48 8b 85 98 fe ff ff 	mov    -0x168(%rbp),%rax
    6a38:	48 39 c7             	cmp    %rax,%rdi
    6a3b:	75 43                	jne    6a80 <ML::profileFp32Model(ML::Model const&, ML::Path const&, int) [clone .cold]+0x138>
    6a3d:	c5 f8 77             	vzeroupper
    6a40:	48 8b bd e0 fe ff ff 	mov    -0x120(%rbp),%rdi
    6a47:	48 8b 85 88 fe ff ff 	mov    -0x178(%rbp),%rax
    6a4e:	48 39 c7             	cmp    %rax,%rdi
    6a51:	74 05                	je     6a58 <ML::profileFp32Model(ML::Model const&, ML::Path const&, int) [clone .cold]+0x110>
    6a53:	e8 f8 d7 ff ff       	call   4250 <operator delete(void*)@plt>
    6a58:	48 8b bd 50 fe ff ff 	mov    -0x1b0(%rbp),%rdi
    6a5f:	e8 1c ff 01 00       	call   26980 <ML::LayerData::~LayerData()>
    6a64:	eb a2                	jmp    6a08 <ML::profileFp32Model(ML::Model const&, ML::Path const&, int) [clone .cold]+0xc0>
    6a66:	48 8b 7d 80          	mov    -0x80(%rbp),%rdi
    6a6a:	48 8d 45 90          	lea    -0x70(%rbp),%rax
    6a6e:	48 39 c7             	cmp    %rax,%rdi
    6a71:	74 17                	je     6a8a <ML::profileFp32Model(ML::Model const&, ML::Path const&, int) [clone .cold]+0x142>
    6a73:	c5 f8 77             	vzeroupper
    6a76:	e8 d5 d7 ff ff       	call   4250 <operator delete(void*)@plt>
    6a7b:	e9 42 ff ff ff       	jmp    69c2 <ML::profileFp32Model(ML::Model const&, ML::Path const&, int) [clone .cold]+0x7a>
    6a80:	c5 f8 77             	vzeroupper
    6a83:	e8 c8 d7 ff ff       	call   4250 <operator delete(void*)@plt>
    6a88:	eb b6                	jmp    6a40 <ML::profileFp32Model(ML::Model const&, ML::Path const&, int) [clone .cold]+0xf8>
    6a8a:	c5 f8 77             	vzeroupper
    6a8d:	e9 30 ff ff ff       	jmp    69c2 <ML::profileFp32Model(ML::Model const&, ML::Path const&, int) [clone .cold]+0x7a>
    6a92:	48 8b bd 50 ff ff ff 	mov    -0xb0(%rbp),%rdi
    6a99:	4c 39 f7             	cmp    %r14,%rdi
    6a9c:	74 34                	je     6ad2 <ML::profileFp32Model(ML::Model const&, ML::Path const&, int) [clone .cold]+0x18a>
    6a9e:	c5 f8 77             	vzeroupper
    6aa1:	e8 aa d7 ff ff       	call   4250 <operator delete(void*)@plt>
    6aa6:	eb b0                	jmp    6a58 <ML::profileFp32Model(ML::Model const&, ML::Path const&, int) [clone .cold]+0x110>
    6aa8:	48 8b bd 40 ff ff ff 	mov    -0xc0(%rbp),%rdi
    6aaf:	48 8b 85 58 fe ff ff 	mov    -0x1a8(%rbp),%rax
    6ab6:	48 39 c7             	cmp    %rax,%rdi
    6ab9:	74 12                	je     6acd <ML::profileFp32Model(ML::Model const&, ML::Path const&, int) [clone .cold]+0x185>
    6abb:	c5 f8 77             	vzeroupper
    6abe:	e8 8d d7 ff ff       	call   4250 <operator delete(void*)@plt>
    6ac3:	eb 93                	jmp    6a58 <ML::profileFp32Model(ML::Model const&, ML::Path const&, int) [clone .cold]+0x110>
    6ac5:	c5 f8 77             	vzeroupper
    6ac8:	e9 3b ff ff ff       	jmp    6a08 <ML::profileFp32Model(ML::Model const&, ML::Path const&, int) [clone .cold]+0xc0>
    6acd:	c5 f8 77             	vzeroupper
    6ad0:	eb 86                	jmp    6a58 <ML::profileFp32Model(ML::Model const&, ML::Path const&, int) [clone .cold]+0x110>
    6ad2:	c5 f8 77             	vzeroupper
    6ad5:	eb 81                	jmp    6a58 <ML::profileFp32Model(ML::Model const&, ML::Path const&, int) [clone .cold]+0x110>

0000000000006ad7 <ML::profileModelWithTiling(ML::Model const&, ML::Path const&, int) [clone .cold]>:
    6ad7:	48 8b bd 70 ff ff ff 	mov    -0x90(%rbp),%rdi
    6ade:	48 8b 85 88 fd ff ff 	mov    -0x278(%rbp),%rax
    6ae5:	48 39 c7             	cmp    %rax,%rdi
    6ae8:	0f 85 f4 01 00 00    	jne    6ce2 <ML::profileModelWithTiling(ML::Model const&, ML::Path const&, int) [clone .cold]+0x20b>
    6aee:	c5 f8 77             	vzeroupper
    6af1:	48 8b bd 10 ff ff ff 	mov    -0xf0(%rbp),%rdi
    6af8:	48 8b 85 00 fe ff ff 	mov    -0x200(%rbp),%rax
    6aff:	48 39 c7             	cmp    %rax,%rdi
    6b02:	74 05                	je     6b09 <ML::profileModelWithTiling(ML::Model const&, ML::Path const&, int) [clone .cold]+0x32>
    6b04:	e8 47 d7 ff ff       	call   4250 <operator delete(void*)@plt>
    6b09:	48 8b bd f0 fe ff ff 	mov    -0x110(%rbp),%rdi
    6b10:	48 8b 85 08 fe ff ff 	mov    -0x1f8(%rbp),%rax
    6b17:	48 39 c7             	cmp    %rax,%rdi
    6b1a:	74 05                	je     6b21 <ML::profileModelWithTiling(ML::Model const&, ML::Path const&, int) [clone .cold]+0x4a>
    6b1c:	e8 2f d7 ff ff       	call   4250 <operator delete(void*)@plt>
    6b21:	48 83 bd 98 fd ff ff 	cmpq   $0x0,-0x268(%rbp)
    6b28:	00 
    6b29:	74 0c                	je     6b37 <ML::profileModelWithTiling(ML::Model const&, ML::Path const&, int) [clone .cold]+0x60>
    6b2b:	48 8b bd 98 fd ff ff 	mov    -0x268(%rbp),%rdi
    6b32:	e8 19 d7 ff ff       	call   4250 <operator delete(void*)@plt>
    6b37:	48 8b bd 10 fe ff ff 	mov    -0x1f0(%rbp),%rdi
    6b3e:	48 85 ff             	test   %rdi,%rdi
    6b41:	74 05                	je     6b48 <ML::profileModelWithTiling(ML::Model const&, ML::Path const&, int) [clone .cold]+0x71>
    6b43:	e8 08 d7 ff ff       	call   4250 <operator delete(void*)@plt>
    6b48:	48 89 df             	mov    %rbx,%rdi
    6b4b:	e8 10 d9 ff ff       	call   4460 <_Unwind_Resume@plt>
    6b50:	48 8b bd 90 fe ff ff 	mov    -0x170(%rbp),%rdi
    6b57:	48 8b 85 c8 fd ff ff 	mov    -0x238(%rbp),%rax
    6b5e:	48 39 c7             	cmp    %rax,%rdi
    6b61:	0f 84 12 03 00 00    	je     6e79 <ML::profileModelWithTiling(ML::Model const&, ML::Path const&, int) [clone .cold]+0x3a2>
    6b67:	c5 f8 77             	vzeroupper
    6b6a:	e8 e1 d6 ff ff       	call   4250 <operator delete(void*)@plt>
    6b6f:	48 8b bd b0 fe ff ff 	mov    -0x150(%rbp),%rdi
    6b76:	48 8b 85 d8 fd ff ff 	mov    -0x228(%rbp),%rax
    6b7d:	48 39 c7             	cmp    %rax,%rdi
    6b80:	74 05                	je     6b87 <ML::profileModelWithTiling(ML::Model const&, ML::Path const&, int) [clone .cold]+0xb0>
    6b82:	e8 c9 d6 ff ff       	call   4250 <operator delete(void*)@plt>
    6b87:	48 8b bd f0 fe ff ff 	mov    -0x110(%rbp),%rdi
    6b8e:	48 8b 85 08 fe ff ff 	mov    -0x1f8(%rbp),%rax
    6b95:	48 39 c7             	cmp    %rax,%rdi
    6b98:	74 05                	je     6b9f <ML::profileModelWithTiling(ML::Model const&, ML::Path const&, int) [clone .cold]+0xc8>
    6b9a:	e8 b1 d6 ff ff       	call   4250 <operator delete(void*)@plt>
    6b9f:	48 8b bd 10 ff ff ff 	mov    -0xf0(%rbp),%rdi
    6ba6:	48 8b 85 00 fe ff ff 	mov    -0x200(%rbp),%rax
    6bad:	48 39 c7             	cmp    %rax,%rdi
    6bb0:	74 05                	je     6bb7 <ML::profileModelWithTiling(ML::Model const&, ML::Path const&, int) [clone .cold]+0xe0>
    6bb2:	e8 99 d6 ff ff       	call   4250 <operator delete(void*)@plt>
    6bb7:	48 8b bd d0 fe ff ff 	mov    -0x130(%rbp),%rdi
    6bbe:	48 8b 85 b0 fd ff ff 	mov    -0x250(%rbp),%rax
    6bc5:	48 39 c7             	cmp    %rax,%rdi
    6bc8:	74 05                	je     6bcf <ML::profileModelWithTiling(ML::Model const&, ML::Path const&, int) [clone .cold]+0xf8>
    6bca:	e8 81 d6 ff ff       	call   4250 <operator delete(void*)@plt>
    6bcf:	48 8b bd 40 ff ff ff 	mov    -0xc0(%rbp),%rdi
    6bd6:	48 8b 85 b8 fd ff ff 	mov    -0x248(%rbp),%rax
    6bdd:	48 39 c7             	cmp    %rax,%rdi
    6be0:	75 7e                	jne    6c60 <ML::profileModelWithTiling(ML::Model const&, ML::Path const&, int) [clone .cold]+0x189>
    6be2:	48 8b bd a0 fd ff ff 	mov    -0x260(%rbp),%rdi
    6be9:	e8 92 fd 01 00       	call   26980 <ML::LayerData::~LayerData()>
    6bee:	48 8b bd 30 fe ff ff 	mov    -0x1d0(%rbp),%rdi
    6bf5:	48 8b 85 60 fd ff ff 	mov    -0x2a0(%rbp),%rax
    6bfc:	48 39 c7             	cmp    %rax,%rdi
    6bff:	0f 84 1c ff ff ff    	je     6b21 <ML::profileModelWithTiling(ML::Model const&, ML::Path const&, int) [clone .cold]+0x4a>
    6c05:	e8 46 d6 ff ff       	call   4250 <operator delete(void*)@plt>
    6c0a:	e9 12 ff ff ff       	jmp    6b21 <ML::profileModelWithTiling(ML::Model const&, ML::Path const&, int) [clone .cold]+0x4a>
    6c0f:	48 8b bd 30 ff ff ff 	mov    -0xd0(%rbp),%rdi
    6c16:	48 8b 85 e0 fd ff ff 	mov    -0x220(%rbp),%rax
    6c1d:	48 39 c7             	cmp    %rax,%rdi
    6c20:	0f 84 f2 02 00 00    	je     6f18 <ML::profileModelWithTiling(ML::Model const&, ML::Path const&, int) [clone .cold]+0x441>
    6c26:	c5 f8 77             	vzeroupper
    6c29:	e8 22 d6 ff ff       	call   4250 <operator delete(void*)@plt>
    6c2e:	48 8b bd 70 ff ff ff 	mov    -0x90(%rbp),%rdi
    6c35:	48 8b 85 88 fd ff ff 	mov    -0x278(%rbp),%rax
    6c3c:	48 39 c7             	cmp    %rax,%rdi
    6c3f:	74 05                	je     6c46 <ML::profileModelWithTiling(ML::Model const&, ML::Path const&, int) [clone .cold]+0x16f>
    6c41:	e8 0a d6 ff ff       	call   4250 <operator delete(void*)@plt>
    6c46:	48 8b bd d0 fe ff ff 	mov    -0x130(%rbp),%rdi
    6c4d:	48 8b 85 b0 fd ff ff 	mov    -0x250(%rbp),%rax
    6c54:	48 39 c7             	cmp    %rax,%rdi
    6c57:	74 27                	je     6c80 <ML::profileModelWithTiling(ML::Model const&, ML::Path const&, int) [clone .cold]+0x1a9>
    6c59:	e8 f2 d5 ff ff       	call   4250 <operator delete(void*)@plt>
    6c5e:	eb 20                	jmp    6c80 <ML::profileModelWithTiling(ML::Model const&, ML::Path const&, int) [clone .cold]+0x1a9>
    6c60:	e8 eb d5 ff ff       	call   4250 <operator delete(void*)@plt>
    6c65:	e9 78 ff ff ff       	jmp    6be2 <ML::profileModelWithTiling(ML::Model const&, ML::Path const&, int) [clone .cold]+0x10b>
    6c6a:	48 8b bd 70 ff ff ff 	mov    -0x90(%rbp),%rdi
    6c71:	48 8b 85 88 fd ff ff 	mov    -0x278(%rbp),%rax
    6c78:	48 39 c7             	cmp    %rax,%rdi
    6c7b:	75 5b                	jne    6cd8 <ML::profileModelWithTiling(ML::Model const&, ML::Path const&, int) [clone .cold]+0x201>
    6c7d:	c5 f8 77             	vzeroupper
    6c80:	48 8b bd b0 fe ff ff 	mov    -0x150(%rbp),%rdi
    6c87:	48 8b 85 d8 fd ff ff 	mov    -0x228(%rbp),%rax
    6c8e:	48 39 c7             	cmp    %rax,%rdi
    6c91:	0f 84 5a fe ff ff    	je     6af1 <ML::profileModelWithTiling(ML::Model const&, ML::Path const&, int) [clone .cold]+0x1a>
    6c97:	e8 b4 d5 ff ff       	call   4250 <operator delete(void*)@plt>
    6c9c:	e9 50 fe ff ff       	jmp    6af1 <ML::profileModelWithTiling(ML::Model const&, ML::Path const&, int) [clone .cold]+0x1a>
    6ca1:	48 8b bd 30 ff ff ff 	mov    -0xd0(%rbp),%rdi
    6ca8:	48 8b 85 e0 fd ff ff 	mov    -0x220(%rbp),%rax
    6caf:	48 39 c7             	cmp    %rax,%rdi
    6cb2:	0f 84 12 01 00 00    	je     6dca <ML::profileModelWithTiling(ML::Model const&, ML::Path const&, int) [clone .cold]+0x2f3>
    6cb8:	c5 f8 77             	vzeroupper
    6cbb:	e8 90 d5 ff ff       	call   4250 <operator delete(void*)@plt>
    6cc0:	48 8b bd 70 ff ff ff 	mov    -0x90(%rbp),%rdi
    6cc7:	48 8b 85 88 fd ff ff 	mov    -0x278(%rbp),%rax
    6cce:	48 39 c7             	cmp    %rax,%rdi
    6cd1:	75 c4                	jne    6c97 <ML::profileModelWithTiling(ML::Model const&, ML::Path const&, int) [clone .cold]+0x1c0>
    6cd3:	e9 19 fe ff ff       	jmp    6af1 <ML::profileModelWithTiling(ML::Model const&, ML::Path const&, int) [clone .cold]+0x1a>
    6cd8:	c5 f8 77             	vzeroupper
    6cdb:	e8 70 d5 ff ff       	call   4250 <operator delete(void*)@plt>
    6ce0:	eb 9e                	jmp    6c80 <ML::profileModelWithTiling(ML::Model const&, ML::Path const&, int) [clone .cold]+0x1a9>
    6ce2:	c5 f8 77             	vzeroupper
    6ce5:	e8 66 d5 ff ff       	call   4250 <operator delete(void*)@plt>
    6cea:	e9 02 fe ff ff       	jmp    6af1 <ML::profileModelWithTiling(ML::Model const&, ML::Path const&, int) [clone .cold]+0x1a>
    6cef:	48 8b bd 30 ff ff ff 	mov    -0xd0(%rbp),%rdi
    6cf6:	48 8b 85 e0 fd ff ff 	mov    -0x220(%rbp),%rax
    6cfd:	48 39 c7             	cmp    %rax,%rdi
    6d00:	0f 84 0a 02 00 00    	je     6f10 <ML::profileModelWithTiling(ML::Model const&, ML::Path const&, int) [clone .cold]+0x439>
    6d06:	c5 f8 77             	vzeroupper
    6d09:	e8 42 d5 ff ff       	call   4250 <operator delete(void*)@plt>
    6d0e:	e9 cf fe ff ff       	jmp    6be2 <ML::profileModelWithTiling(ML::Model const&, ML::Path const&, int) [clone .cold]+0x10b>
    6d13:	48 8b bd 70 ff ff ff 	mov    -0x90(%rbp),%rdi
    6d1a:	48 8b 85 88 fd ff ff 	mov    -0x278(%rbp),%rax
    6d21:	48 39 c7             	cmp    %rax,%rdi
    6d24:	74 4d                	je     6d73 <ML::profileModelWithTiling(ML::Model const&, ML::Path const&, int) [clone .cold]+0x29c>
    6d26:	c5 f8 77             	vzeroupper
    6d29:	e8 22 d5 ff ff       	call   4250 <operator delete(void*)@plt>
    6d2e:	e9 13 ff ff ff       	jmp    6c46 <ML::profileModelWithTiling(ML::Model const&, ML::Path const&, int) [clone .cold]+0x16f>
    6d33:	48 8b bd 30 ff ff ff 	mov    -0xd0(%rbp),%rdi
    6d3a:	48 8b 85 e0 fd ff ff 	mov    -0x220(%rbp),%rax
    6d41:	48 39 c7             	cmp    %rax,%rdi
    6d44:	0f 84 d6 01 00 00    	je     6f20 <ML::profileModelWithTiling(ML::Model const&, ML::Path const&, int) [clone .cold]+0x449>
    6d4a:	c5 f8 77             	vzeroupper
    6d4d:	e8 fe d4 ff ff       	call   4250 <operator delete(void*)@plt>
    6d52:	48 8b bd 70 ff ff ff 	mov    -0x90(%rbp),%rdi
    6d59:	48 8b 85 88 fd ff ff 	mov    -0x278(%rbp),%rax
    6d60:	48 39 c7             	cmp    %rax,%rdi
    6d63:	0f 84 17 ff ff ff    	je     6c80 <ML::profileModelWithTiling(ML::Model const&, ML::Path const&, int) [clone .cold]+0x1a9>
    6d69:	e8 e2 d4 ff ff       	call   4250 <operator delete(void*)@plt>
    6d6e:	e9 0d ff ff ff       	jmp    6c80 <ML::profileModelWithTiling(ML::Model const&, ML::Path const&, int) [clone .cold]+0x1a9>
    6d73:	c5 f8 77             	vzeroupper
    6d76:	e9 cb fe ff ff       	jmp    6c46 <ML::profileModelWithTiling(ML::Model const&, ML::Path const&, int) [clone .cold]+0x16f>
    6d7b:	48 8b bd 70 ff ff ff 	mov    -0x90(%rbp),%rdi
    6d82:	48 8b 85 88 fd ff ff 	mov    -0x278(%rbp),%rax
    6d89:	48 39 c7             	cmp    %rax,%rdi
    6d8c:	75 44                	jne    6dd2 <ML::profileModelWithTiling(ML::Model const&, ML::Path const&, int) [clone .cold]+0x2fb>
    6d8e:	c5 f8 77             	vzeroupper
    6d91:	48 8b bd 30 ff ff ff 	mov    -0xd0(%rbp),%rdi
    6d98:	48 8b 85 e0 fd ff ff 	mov    -0x220(%rbp),%rax
    6d9f:	48 39 c7             	cmp    %rax,%rdi
    6da2:	74 05                	je     6da9 <ML::profileModelWithTiling(ML::Model const&, ML::Path const&, int) [clone .cold]+0x2d2>
    6da4:	e8 a7 d4 ff ff       	call   4250 <operator delete(void*)@plt>
    6da9:	48 8b bd 10 ff ff ff 	mov    -0xf0(%rbp),%rdi
    6db0:	48 8d 85 20 ff ff ff 	lea    -0xe0(%rbp),%rax
    6db7:	48 39 c7             	cmp    %rax,%rdi
    6dba:	0f 84 77 fd ff ff    	je     6b37 <ML::profileModelWithTiling(ML::Model const&, ML::Path const&, int) [clone .cold]+0x60>
    6dc0:	e8 8b d4 ff ff       	call   4250 <operator delete(void*)@plt>
    6dc5:	e9 6d fd ff ff       	jmp    6b37 <ML::profileModelWithTiling(ML::Model const&, ML::Path const&, int) [clone .cold]+0x60>
    6dca:	c5 f8 77             	vzeroupper
    6dcd:	e9 ee fe ff ff       	jmp    6cc0 <ML::profileModelWithTiling(ML::Model const&, ML::Path const&, int) [clone .cold]+0x1e9>
    6dd2:	c5 f8 77             	vzeroupper
    6dd5:	e8 76 d4 ff ff       	call   4250 <operator delete(void*)@plt>
    6dda:	eb b5                	jmp    6d91 <ML::profileModelWithTiling(ML::Model const&, ML::Path const&, int) [clone .cold]+0x2ba>
    6ddc:	48 8b bd 10 ff ff ff 	mov    -0xf0(%rbp),%rdi
    6de3:	48 8b 85 00 fe ff ff 	mov    -0x200(%rbp),%rax
    6dea:	48 39 c7             	cmp    %rax,%rdi
    6ded:	0f 84 81 00 00 00    	je     6e74 <ML::profileModelWithTiling(ML::Model const&, ML::Path const&, int) [clone .cold]+0x39d>
    6df3:	c5 f8 77             	vzeroupper
    6df6:	e8 55 d4 ff ff       	call   4250 <operator delete(void*)@plt>
    6dfb:	48 8b bd f0 fe ff ff 	mov    -0x110(%rbp),%rdi
    6e02:	48 8b 85 08 fe ff ff 	mov    -0x1f8(%rbp),%rax
    6e09:	48 39 c7             	cmp    %rax,%rdi
    6e0c:	0f 84 d0 fd ff ff    	je     6be2 <ML::profileModelWithTiling(ML::Model const&, ML::Path const&, int) [clone .cold]+0x10b>
    6e12:	e8 39 d4 ff ff       	call   4250 <operator delete(void*)@plt>
    6e17:	e9 c6 fd ff ff       	jmp    6be2 <ML::profileModelWithTiling(ML::Model const&, ML::Path const&, int) [clone .cold]+0x10b>
    6e1c:	48 8b bd 70 ff ff ff 	mov    -0x90(%rbp),%rdi
    6e23:	48 8b 85 88 fd ff ff 	mov    -0x278(%rbp),%rax
    6e2a:	48 39 c7             	cmp    %rax,%rdi
    6e2d:	0f 84 cd 00 00 00    	je     6f00 <ML::profileModelWithTiling(ML::Model const&, ML::Path const&, int) [clone .cold]+0x429>
    6e33:	c5 f8 77             	vzeroupper
    6e36:	e8 15 d4 ff ff       	call   4250 <operator delete(void*)@plt>
    6e3b:	48 8b bd 30 ff ff ff 	mov    -0xd0(%rbp),%rdi
    6e42:	48 8b 85 e0 fd ff ff 	mov    -0x220(%rbp),%rax
    6e49:	48 39 c7             	cmp    %rax,%rdi
    6e4c:	74 05                	je     6e53 <ML::profileModelWithTiling(ML::Model const&, ML::Path const&, int) [clone .cold]+0x37c>
    6e4e:	e8 fd d3 ff ff       	call   4250 <operator delete(void*)@plt>
    6e53:	48 8b bd 10 ff ff ff 	mov    -0xf0(%rbp),%rdi
    6e5a:	48 8b 85 00 fe ff ff 	mov    -0x200(%rbp),%rax
    6e61:	48 39 c7             	cmp    %rax,%rdi
    6e64:	0f 84 b7 fc ff ff    	je     6b21 <ML::profileModelWithTiling(ML::Model const&, ML::Path const&, int) [clone .cold]+0x4a>
    6e6a:	e8 e1 d3 ff ff       	call   4250 <operator delete(void*)@plt>
    6e6f:	e9 ad fc ff ff       	jmp    6b21 <ML::profileModelWithTiling(ML::Model const&, ML::Path const&, int) [clone .cold]+0x4a>
    6e74:	c5 f8 77             	vzeroupper
    6e77:	eb 82                	jmp    6dfb <ML::profileModelWithTiling(ML::Model const&, ML::Path const&, int) [clone .cold]+0x324>
    6e79:	c5 f8 77             	vzeroupper
    6e7c:	e9 ee fc ff ff       	jmp    6b6f <ML::profileModelWithTiling(ML::Model const&, ML::Path const&, int) [clone .cold]+0x98>
    6e81:	48 8b bd 78 ff ff ff 	mov    -0x88(%rbp),%rdi
    6e88:	48 85 ff             	test   %rdi,%rdi
    6e8b:	74 51                	je     6ede <ML::profileModelWithTiling(ML::Model const&, ML::Path const&, int) [clone .cold]+0x407>
    6e8d:	c5 f8 77             	vzeroupper
    6e90:	e8 bb d3 ff ff       	call   4250 <operator delete(void*)@plt>
    6e95:	48 85 db             	test   %rbx,%rbx
    6e98:	74 08                	je     6ea2 <ML::profileModelWithTiling(ML::Model const&, ML::Path const&, int) [clone .cold]+0x3cb>
    6e9a:	48 89 df             	mov    %rbx,%rdi
    6e9d:	e8 ae d3 ff ff       	call   4250 <operator delete(void*)@plt>
    6ea2:	4c 89 e3             	mov    %r12,%rbx
    6ea5:	48 8b bd 30 ff ff ff 	mov    -0xd0(%rbp),%rdi
    6eac:	48 8b 85 e0 fd ff ff 	mov    -0x220(%rbp),%rax
    6eb3:	48 39 c7             	cmp    %rax,%rdi
    6eb6:	74 05                	je     6ebd <ML::profileModelWithTiling(ML::Model const&, ML::Path const&, int) [clone .cold]+0x3e6>
    6eb8:	e8 93 d3 ff ff       	call   4250 <operator delete(void*)@plt>
    6ebd:	48 8b bd 10 ff ff ff 	mov    -0xf0(%rbp),%rdi
    6ec4:	48 8b 85 00 fe ff ff 	mov    -0x200(%rbp),%rax
    6ecb:	48 39 c7             	cmp    %rax,%rdi
    6ece:	0f 84 1a fd ff ff    	je     6bee <ML::profileModelWithTiling(ML::Model const&, ML::Path const&, int) [clone .cold]+0x117>
    6ed4:	e8 77 d3 ff ff       	call   4250 <operator delete(void*)@plt>
    6ed9:	e9 10 fd ff ff       	jmp    6bee <ML::profileModelWithTiling(ML::Model const&, ML::Path const&, int) [clone .cold]+0x117>
    6ede:	c5 f8 77             	vzeroupper
    6ee1:	eb b2                	jmp    6e95 <ML::profileModelWithTiling(ML::Model const&, ML::Path const&, int) [clone .cold]+0x3be>
    6ee3:	48 8b bd 70 ff ff ff 	mov    -0x90(%rbp),%rdi
    6eea:	48 8d 45 80          	lea    -0x80(%rbp),%rax
    6eee:	48 39 c7             	cmp    %rax,%rdi
    6ef1:	74 15                	je     6f08 <ML::profileModelWithTiling(ML::Model const&, ML::Path const&, int) [clone .cold]+0x431>
    6ef3:	c5 f8 77             	vzeroupper
    6ef6:	e8 55 d3 ff ff       	call   4250 <operator delete(void*)@plt>
    6efb:	e9 48 fc ff ff       	jmp    6b48 <ML::profileModelWithTiling(ML::Model const&, ML::Path const&, int) [clone .cold]+0x71>
    6f00:	c5 f8 77             	vzeroupper
    6f03:	e9 33 ff ff ff       	jmp    6e3b <ML::profileModelWithTiling(ML::Model const&, ML::Path const&, int) [clone .cold]+0x364>
    6f08:	c5 f8 77             	vzeroupper
    6f0b:	e9 38 fc ff ff       	jmp    6b48 <ML::profileModelWithTiling(ML::Model const&, ML::Path const&, int) [clone .cold]+0x71>
    6f10:	c5 f8 77             	vzeroupper
    6f13:	e9 ca fc ff ff       	jmp    6be2 <ML::profileModelWithTiling(ML::Model const&, ML::Path const&, int) [clone .cold]+0x10b>
    6f18:	c5 f8 77             	vzeroupper
    6f1b:	e9 0e fd ff ff       	jmp    6c2e <ML::profileModelWithTiling(ML::Model const&, ML::Path const&, int) [clone .cold]+0x157>
    6f20:	c5 f8 77             	vzeroupper
    6f23:	e9 2a fe ff ff       	jmp    6d52 <ML::profileModelWithTiling(ML::Model const&, ML::Path const&, int) [clone .cold]+0x27b>

0000000000006f28 <ML::profileModelWithThreading(ML::Model const&, ML::Path const&, int) [clone .cold]>:
    6f28:	48 8b bd 70 ff ff ff 	mov    -0x90(%rbp),%rdi
    6f2f:	48 8b 85 88 fd ff ff 	mov    -0x278(%rbp),%rax
    6f36:	48 39 c7             	cmp    %rax,%rdi
    6f39:	0f 85 f4 01 00 00    	jne    7133 <ML::profileModelWithThreading(ML::Model const&, ML::Path const&, int) [clone .cold]+0x20b>
    6f3f:	c5 f8 77             	vzeroupper
    6f42:	48 8b bd 10 ff ff ff 	mov    -0xf0(%rbp),%rdi
    6f49:	48 8b 85 00 fe ff ff 	mov    -0x200(%rbp),%rax
    6f50:	48 39 c7             	cmp    %rax,%rdi
    6f53:	74 05                	je     6f5a <ML::profileModelWithThreading(ML::Model const&, ML::Path const&, int) [clone .cold]+0x32>
    6f55:	e8 f6 d2 ff ff       	call   4250 <operator delete(void*)@plt>
    6f5a:	48 8b bd f0 fe ff ff 	mov    -0x110(%rbp),%rdi
    6f61:	48 8b 85 08 fe ff ff 	mov    -0x1f8(%rbp),%rax
    6f68:	48 39 c7             	cmp    %rax,%rdi
    6f6b:	74 05                	je     6f72 <ML::profileModelWithThreading(ML::Model const&, ML::Path const&, int) [clone .cold]+0x4a>
    6f6d:	e8 de d2 ff ff       	call   4250 <operator delete(void*)@plt>
    6f72:	48 83 bd 98 fd ff ff 	cmpq   $0x0,-0x268(%rbp)
    6f79:	00 
    6f7a:	74 0c                	je     6f88 <ML::profileModelWithThreading(ML::Model const&, ML::Path const&, int) [clone .cold]+0x60>
    6f7c:	48 8b bd 98 fd ff ff 	mov    -0x268(%rbp),%rdi
    6f83:	e8 c8 d2 ff ff       	call   4250 <operator delete(void*)@plt>
    6f88:	48 8b bd 10 fe ff ff 	mov    -0x1f0(%rbp),%rdi
    6f8f:	48 85 ff             	test   %rdi,%rdi
    6f92:	74 05                	je     6f99 <ML::profileModelWithThreading(ML::Model const&, ML::Path const&, int) [clone .cold]+0x71>
    6f94:	e8 b7 d2 ff ff       	call   4250 <operator delete(void*)@plt>
    6f99:	48 89 df             	mov    %rbx,%rdi
    6f9c:	e8 bf d4 ff ff       	call   4460 <_Unwind_Resume@plt>
    6fa1:	48 8b bd 90 fe ff ff 	mov    -0x170(%rbp),%rdi
    6fa8:	48 8b 85 c8 fd ff ff 	mov    -0x238(%rbp),%rax
    6faf:	48 39 c7             	cmp    %rax,%rdi
    6fb2:	0f 84 12 03 00 00    	je     72ca <ML::profileModelWithThreading(ML::Model const&, ML::Path const&, int) [clone .cold]+0x3a2>
    6fb8:	c5 f8 77             	vzeroupper
    6fbb:	e8 90 d2 ff ff       	call   4250 <operator delete(void*)@plt>
    6fc0:	48 8b bd b0 fe ff ff 	mov    -0x150(%rbp),%rdi
    6fc7:	48 8b 85 d8 fd ff ff 	mov    -0x228(%rbp),%rax
    6fce:	48 39 c7             	cmp    %rax,%rdi
    6fd1:	74 05                	je     6fd8 <ML::profileModelWithThreading(ML::Model const&, ML::Path const&, int) [clone .cold]+0xb0>
    6fd3:	e8 78 d2 ff ff       	call   4250 <operator delete(void*)@plt>
    6fd8:	48 8b bd f0 fe ff ff 	mov    -0x110(%rbp),%rdi
    6fdf:	48 8b 85 08 fe ff ff 	mov    -0x1f8(%rbp),%rax
    6fe6:	48 39 c7             	cmp    %rax,%rdi
    6fe9:	74 05                	je     6ff0 <ML::profileModelWithThreading(ML::Model const&, ML::Path const&, int) [clone .cold]+0xc8>
    6feb:	e8 60 d2 ff ff       	call   4250 <operator delete(void*)@plt>
    6ff0:	48 8b bd 10 ff ff ff 	mov    -0xf0(%rbp),%rdi
    6ff7:	48 8b 85 00 fe ff ff 	mov    -0x200(%rbp),%rax
    6ffe:	48 39 c7             	cmp    %rax,%rdi
    7001:	74 05                	je     7008 <ML::profileModelWithThreading(ML::Model const&, ML::Path const&, int) [clone .cold]+0xe0>
    7003:	e8 48 d2 ff ff       	call   4250 <operator delete(void*)@plt>
    7008:	48 8b bd d0 fe ff ff 	mov    -0x130(%rbp),%rdi
    700f:	48 8b 85 b0 fd ff ff 	mov    -0x250(%rbp),%rax
    7016:	48 39 c7             	cmp    %rax,%rdi
    7019:	74 05                	je     7020 <ML::profileModelWithThreading(ML::Model const&, ML::Path const&, int) [clone .cold]+0xf8>
    701b:	e8 30 d2 ff ff       	call   4250 <operator delete(void*)@plt>
    7020:	48 8b bd 40 ff ff ff 	mov    -0xc0(%rbp),%rdi
    7027:	48 8b 85 b8 fd ff ff 	mov    -0x248(%rbp),%rax
    702e:	48 39 c7             	cmp    %rax,%rdi
    7031:	75 7e                	jne    70b1 <ML::profileModelWithThreading(ML::Model const&, ML::Path const&, int) [clone .cold]+0x189>
    7033:	48 8b bd a0 fd ff ff 	mov    -0x260(%rbp),%rdi
    703a:	e8 41 f9 01 00       	call   26980 <ML::LayerData::~LayerData()>
    703f:	48 8b bd 30 fe ff ff 	mov    -0x1d0(%rbp),%rdi
    7046:	48 8b 85 60 fd ff ff 	mov    -0x2a0(%rbp),%rax
    704d:	48 39 c7             	cmp    %rax,%rdi
    7050:	0f 84 1c ff ff ff    	je     6f72 <ML::profileModelWithThreading(ML::Model const&, ML::Path const&, int) [clone .cold]+0x4a>
    7056:	e8 f5 d1 ff ff       	call   4250 <operator delete(void*)@plt>
    705b:	e9 12 ff ff ff       	jmp    6f72 <ML::profileModelWithThreading(ML::Model const&, ML::Path const&, int) [clone .cold]+0x4a>
    7060:	48 8b bd 30 ff ff ff 	mov    -0xd0(%rbp),%rdi
    7067:	48 8b 85 e0 fd ff ff 	mov    -0x220(%rbp),%rax
    706e:	48 39 c7             	cmp    %rax,%rdi
    7071:	0f 84 f2 02 00 00    	je     7369 <ML::profileModelWithThreading(ML::Model const&, ML::Path const&, int) [clone .cold]+0x441>
    7077:	c5 f8 77             	vzeroupper
    707a:	e8 d1 d1 ff ff       	call   4250 <operator delete(void*)@plt>
    707f:	48 8b bd 70 ff ff ff 	mov    -0x90(%rbp),%rdi
    7086:	48 8b 85 88 fd ff ff 	mov    -0x278(%rbp),%rax
    708d:	48 39 c7             	cmp    %rax,%rdi
    7090:	74 05                	je     7097 <ML::profileModelWithThreading(ML::Model const&, ML::Path const&, int) [clone .cold]+0x16f>
    7092:	e8 b9 d1 ff ff       	call   4250 <operator delete(void*)@plt>
    7097:	48 8b bd d0 fe ff ff 	mov    -0x130(%rbp),%rdi
    709e:	48 8b 85 b0 fd ff ff 	mov    -0x250(%rbp),%rax
    70a5:	48 39 c7             	cmp    %rax,%rdi
    70a8:	74 27                	je     70d1 <ML::profileModelWithThreading(ML::Model const&, ML::Path const&, int) [clone .cold]+0x1a9>
    70aa:	e8 a1 d1 ff ff       	call   4250 <operator delete(void*)@plt>
    70af:	eb 20                	jmp    70d1 <ML::profileModelWithThreading(ML::Model const&, ML::Path const&, int) [clone .cold]+0x1a9>
    70b1:	e8 9a d1 ff ff       	call   4250 <operator delete(void*)@plt>
    70b6:	e9 78 ff ff ff       	jmp    7033 <ML::profileModelWithThreading(ML::Model const&, ML::Path const&, int) [clone .cold]+0x10b>
    70bb:	48 8b bd 70 ff ff ff 	mov    -0x90(%rbp),%rdi
    70c2:	48 8b 85 88 fd ff ff 	mov    -0x278(%rbp),%rax
    70c9:	48 39 c7             	cmp    %rax,%rdi
    70cc:	75 5b                	jne    7129 <ML::profileModelWithThreading(ML::Model const&, ML::Path const&, int) [clone .cold]+0x201>
    70ce:	c5 f8 77             	vzeroupper
    70d1:	48 8b bd b0 fe ff ff 	mov    -0x150(%rbp),%rdi
    70d8:	48 8b 85 d8 fd ff ff 	mov    -0x228(%rbp),%rax
    70df:	48 39 c7             	cmp    %rax,%rdi
    70e2:	0f 84 5a fe ff ff    	je     6f42 <ML::profileModelWithThreading(ML::Model const&, ML::Path const&, int) [clone .cold]+0x1a>
    70e8:	e8 63 d1 ff ff       	call   4250 <operator delete(void*)@plt>
    70ed:	e9 50 fe ff ff       	jmp    6f42 <ML::profileModelWithThreading(ML::Model const&, ML::Path const&, int) [clone .cold]+0x1a>
    70f2:	48 8b bd 30 ff ff ff 	mov    -0xd0(%rbp),%rdi
    70f9:	48 8b 85 e0 fd ff ff 	mov    -0x220(%rbp),%rax
    7100:	48 39 c7             	cmp    %rax,%rdi
    7103:	0f 84 12 01 00 00    	je     721b <ML::profileModelWithThreading(ML::Model const&, ML::Path const&, int) [clone .cold]+0x2f3>
    7109:	c5 f8 77             	vzeroupper
    710c:	e8 3f d1 ff ff       	call   4250 <operator delete(void*)@plt>
    7111:	48 8b bd 70 ff ff ff 	mov    -0x90(%rbp),%rdi
    7118:	48 8b 85 88 fd ff ff 	mov    -0x278(%rbp),%rax
    711f:	48 39 c7             	cmp    %rax,%rdi
    7122:	75 c4                	jne    70e8 <ML::profileModelWithThreading(ML::Model const&, ML::Path const&, int) [clone .cold]+0x1c0>
    7124:	e9 19 fe ff ff       	jmp    6f42 <ML::profileModelWithThreading(ML::Model const&, ML::Path const&, int) [clone .cold]+0x1a>
    7129:	c5 f8 77             	vzeroupper
    712c:	e8 1f d1 ff ff       	call   4250 <operator delete(void*)@plt>
    7131:	eb 9e                	jmp    70d1 <ML::profileModelWithThreading(ML::Model const&, ML::Path const&, int) [clone .cold]+0x1a9>
    7133:	c5 f8 77             	vzeroupper
    7136:	e8 15 d1 ff ff       	call   4250 <operator delete(void*)@plt>
    713b:	e9 02 fe ff ff       	jmp    6f42 <ML::profileModelWithThreading(ML::Model const&, ML::Path const&, int) [clone .cold]+0x1a>
    7140:	48 8b bd 30 ff ff ff 	mov    -0xd0(%rbp),%rdi
    7147:	48 8b 85 e0 fd ff ff 	mov    -0x220(%rbp),%rax
    714e:	48 39 c7             	cmp    %rax,%rdi
    7151:	0f 84 0a 02 00 00    	je     7361 <ML::profileModelWithThreading(ML::Model const&, ML::Path const&, int) [clone .cold]+0x439>
    7157:	c5 f8 77             	vzeroupper
    715a:	e8 f1 d0 ff ff       	call   4250 <operator delete(void*)@plt>
    715f:	e9 cf fe ff ff       	jmp    7033 <ML::profileModelWithThreading(ML::Model const&, ML::Path const&, int) [clone .cold]+0x10b>
    7164:	48 8b bd 70 ff ff ff 	mov    -0x90(%rbp),%rdi
    716b:	48 8b 85 88 fd ff ff 	mov    -0x278(%rbp),%rax
    7172:	48 39 c7             	cmp    %rax,%rdi
    7175:	74 4d                	je     71c4 <ML::profileModelWithThreading(ML::Model const&, ML::Path const&, int) [clone .cold]+0x29c>
    7177:	c5 f8 77             	vzeroupper
    717a:	e8 d1 d0 ff ff       	call   4250 <operator delete(void*)@plt>
    717f:	e9 13 ff ff ff       	jmp    7097 <ML::profileModelWithThreading(ML::Model const&, ML::Path const&, int) [clone .cold]+0x16f>
    7184:	48 8b bd 30 ff ff ff 	mov    -0xd0(%rbp),%rdi
    718b:	48 8b 85 e0 fd ff ff 	mov    -0x220(%rbp),%rax
    7192:	48 39 c7             	cmp    %rax,%rdi
    7195:	0f 84 d6 01 00 00    	je     7371 <ML::profileModelWithThreading(ML::Model const&, ML::Path const&, int) [clone .cold]+0x449>
    719b:	c5 f8 77             	vzeroupper
    719e:	e8 ad d0 ff ff       	call   4250 <operator delete(void*)@plt>
    71a3:	48 8b bd 70 ff ff ff 	mov    -0x90(%rbp),%rdi
    71aa:	48 8b 85 88 fd ff ff 	mov    -0x278(%rbp),%rax
    71b1:	48 39 c7             	cmp    %rax,%rdi
    71b4:	0f 84 17 ff ff ff    	je     70d1 <ML::profileModelWithThreading(ML::Model const&, ML::Path const&, int) [clone .cold]+0x1a9>
    71ba:	e8 91 d0 ff ff       	call   4250 <operator delete(void*)@plt>
    71bf:	e9 0d ff ff ff       	jmp    70d1 <ML::profileModelWithThreading(ML::Model const&, ML::Path const&, int) [clone .cold]+0x1a9>
    71c4:	c5 f8 77             	vzeroupper
    71c7:	e9 cb fe ff ff       	jmp    7097 <ML::profileModelWithThreading(ML::Model const&, ML::Path const&, int) [clone .cold]+0x16f>
    71cc:	48 8b bd 70 ff ff ff 	mov    -0x90(%rbp),%rdi
    71d3:	48 8b 85 88 fd ff ff 	mov    -0x278(%rbp),%rax
    71da:	48 39 c7             	cmp    %rax,%rdi
    71dd:	75 44                	jne    7223 <ML::profileModelWithThreading(ML::Model const&, ML::Path const&, int) [clone .cold]+0x2fb>
    71df:	c5 f8 77             	vzeroupper
    71e2:	48 8b bd 30 ff ff ff 	mov    -0xd0(%rbp),%rdi
    71e9:	48 8b 85 e0 fd ff ff 	mov    -0x220(%rbp),%rax
    71f0:	48 39 c7             	cmp    %rax,%rdi
    71f3:	74 05                	je     71fa <ML::profileModelWithThreading(ML::Model const&, ML::Path const&, int) [clone .cold]+0x2d2>
    71f5:	e8 56 d0 ff ff       	call   4250 <operator delete(void*)@plt>
    71fa:	48 8b bd 10 ff ff ff 	mov    -0xf0(%rbp),%rdi
    7201:	48 8d 85 20 ff ff ff 	lea    -0xe0(%rbp),%rax
    7208:	48 39 c7             	cmp    %rax,%rdi
    720b:	0f 84 77 fd ff ff    	je     6f88 <ML::profileModelWithThreading(ML::Model const&, ML::Path const&, int) [clone .cold]+0x60>
    7211:	e8 3a d0 ff ff       	call   4250 <operator delete(void*)@plt>
    7216:	e9 6d fd ff ff       	jmp    6f88 <ML::profileModelWithThreading(ML::Model const&, ML::Path const&, int) [clone .cold]+0x60>
    721b:	c5 f8 77             	vzeroupper
    721e:	e9 ee fe ff ff       	jmp    7111 <ML::profileModelWithThreading(ML::Model const&, ML::Path const&, int) [clone .cold]+0x1e9>
    7223:	c5 f8 77             	vzeroupper
    7226:	e8 25 d0 ff ff       	call   4250 <operator delete(void*)@plt>
    722b:	eb b5                	jmp    71e2 <ML::profileModelWithThreading(ML::Model const&, ML::Path const&, int) [clone .cold]+0x2ba>
    722d:	48 8b bd 10 ff ff ff 	mov    -0xf0(%rbp),%rdi
    7234:	48 8b 85 00 fe ff ff 	mov    -0x200(%rbp),%rax
    723b:	48 39 c7             	cmp    %rax,%rdi
    723e:	0f 84 81 00 00 00    	je     72c5 <ML::profileModelWithThreading(ML::Model const&, ML::Path const&, int) [clone .cold]+0x39d>
    7244:	c5 f8 77             	vzeroupper
    7247:	e8 04 d0 ff ff       	call   4250 <operator delete(void*)@plt>
    724c:	48 8b bd f0 fe ff ff 	mov    -0x110(%rbp),%rdi
    7253:	48 8b 85 08 fe ff ff 	mov    -0x1f8(%rbp),%rax
    725a:	48 39 c7             	cmp    %rax,%rdi
    725d:	0f 84 d0 fd ff ff    	je     7033 <ML::profileModelWithThreading(ML::Model const&, ML::Path const&, int) [clone .cold]+0x10b>
    7263:	e8 e8 cf ff ff       	call   4250 <operator delete(void*)@plt>
    7268:	e9 c6 fd ff ff       	jmp    7033 <ML::profileModelWithThreading(ML::Model const&, ML::Path const&, int) [clone .cold]+0x10b>
    726d:	48 8b bd 70 ff ff ff 	mov    -0x90(%rbp),%rdi
    7274:	48 8b 85 88 fd ff ff 	mov    -0x278(%rbp),%rax
    727b:	48 39 c7             	cmp    %rax,%rdi
    727e:	0f 84 cd 00 00 00    	je     7351 <ML::profileModelWithThreading(ML::Model const&, ML::Path const&, int) [clone .cold]+0x429>
    7284:	c5 f8 77             	vzeroupper
    7287:	e8 c4 cf ff ff       	call   4250 <operator delete(void*)@plt>
    728c:	48 8b bd 30 ff ff ff 	mov    -0xd0(%rbp),%rdi
    7293:	48 8b 85 e0 fd ff ff 	mov    -0x220(%rbp),%rax
    729a:	48 39 c7             	cmp    %rax,%rdi
    729d:	74 05                	je     72a4 <ML::profileModelWithThreading(ML::Model const&, ML::Path const&, int) [clone .cold]+0x37c>
    729f:	e8 ac cf ff ff       	call   4250 <operator delete(void*)@plt>
    72a4:	48 8b bd 10 ff ff ff 	mov    -0xf0(%rbp),%rdi
    72ab:	48 8b 85 00 fe ff ff 	mov    -0x200(%rbp),%rax
    72b2:	48 39 c7             	cmp    %rax,%rdi
    72b5:	0f 84 b7 fc ff ff    	je     6f72 <ML::profileModelWithThreading(ML::Model const&, ML::Path const&, int) [clone .cold]+0x4a>
    72bb:	e8 90 cf ff ff       	call   4250 <operator delete(void*)@plt>
    72c0:	e9 ad fc ff ff       	jmp    6f72 <ML::profileModelWithThreading(ML::Model const&, ML::Path const&, int) [clone .cold]+0x4a>
    72c5:	c5 f8 77             	vzeroupper
    72c8:	eb 82                	jmp    724c <ML::profileModelWithThreading(ML::Model const&, ML::Path const&, int) [clone .cold]+0x324>
    72ca:	c5 f8 77             	vzeroupper
    72cd:	e9 ee fc ff ff       	jmp    6fc0 <ML::profileModelWithThreading(ML::Model const&, ML::Path const&, int) [clone .cold]+0x98>
    72d2:	48 8b bd 78 ff ff ff 	mov    -0x88(%rbp),%rdi
    72d9:	48 85 ff             	test   %rdi,%rdi
    72dc:	74 51                	je     732f <ML::profileModelWithThreading(ML::Model const&, ML::Path const&, int) [clone .cold]+0x407>
    72de:	c5 f8 77             	vzeroupper
    72e1:	e8 6a cf ff ff       	call   4250 <operator delete(void*)@plt>
    72e6:	48 85 db             	test   %rbx,%rbx
    72e9:	74 08                	je     72f3 <ML::profileModelWithThreading(ML::Model const&, ML::Path const&, int) [clone .cold]+0x3cb>
    72eb:	48 89 df             	mov    %rbx,%rdi
    72ee:	e8 5d cf ff ff       	call   4250 <operator delete(void*)@plt>
    72f3:	4c 89 e3             	mov    %r12,%rbx
    72f6:	48 8b bd 30 ff ff ff 	mov    -0xd0(%rbp),%rdi
    72fd:	48 8b 85 e0 fd ff ff 	mov    -0x220(%rbp),%rax
    7304:	48 39 c7             	cmp    %rax,%rdi
    7307:	74 05                	je     730e <ML::profileModelWithThreading(ML::Model const&, ML::Path const&, int) [clone .cold]+0x3e6>
    7309:	e8 42 cf ff ff       	call   4250 <operator delete(void*)@plt>
    730e:	48 8b bd 10 ff ff ff 	mov    -0xf0(%rbp),%rdi
    7315:	48 8b 85 00 fe ff ff 	mov    -0x200(%rbp),%rax
    731c:	48 39 c7             	cmp    %rax,%rdi
    731f:	0f 84 1a fd ff ff    	je     703f <ML::profileModelWithThreading(ML::Model const&, ML::Path const&, int) [clone .cold]+0x117>
    7325:	e8 26 cf ff ff       	call   4250 <operator delete(void*)@plt>
    732a:	e9 10 fd ff ff       	jmp    703f <ML::profileModelWithThreading(ML::Model const&, ML::Path const&, int) [clone .cold]+0x117>
    732f:	c5 f8 77             	vzeroupper
    7332:	eb b2                	jmp    72e6 <ML::profileModelWithThreading(ML::Model const&, ML::Path const&, int) [clone .cold]+0x3be>
    7334:	48 8b bd 70 ff ff ff 	mov    -0x90(%rbp),%rdi
    733b:	48 8d 45 80          	lea    -0x80(%rbp),%rax
    733f:	48 39 c7             	cmp    %rax,%rdi
    7342:	74 15                	je     7359 <ML::profileModelWithThreading(ML::Model const&, ML::Path const&, int) [clone .cold]+0x431>
    7344:	c5 f8 77             	vzeroupper
    7347:	e8 04 cf ff ff       	call   4250 <operator delete(void*)@plt>
    734c:	e9 48 fc ff ff       	jmp    6f99 <ML::profileModelWithThreading(ML::Model const&, ML::Path const&, int) [clone .cold]+0x71>
    7351:	c5 f8 77             	vzeroupper
    7354:	e9 33 ff ff ff       	jmp    728c <ML::profileModelWithThreading(ML::Model const&, ML::Path const&, int) [clone .cold]+0x364>
    7359:	c5 f8 77             	vzeroupper
    735c:	e9 38 fc ff ff       	jmp    6f99 <ML::profileModelWithThreading(ML::Model const&, ML::Path const&, int) [clone .cold]+0x71>
    7361:	c5 f8 77             	vzeroupper
    7364:	e9 ca fc ff ff       	jmp    7033 <ML::profileModelWithThreading(ML::Model const&, ML::Path const&, int) [clone .cold]+0x10b>
    7369:	c5 f8 77             	vzeroupper
    736c:	e9 0e fd ff ff       	jmp    707f <ML::profileModelWithThreading(ML::Model const&, ML::Path const&, int) [clone .cold]+0x157>
    7371:	c5 f8 77             	vzeroupper
    7374:	e9 2a fe ff ff       	jmp    71a3 <ML::profileModelWithThreading(ML::Model const&, ML::Path const&, int) [clone .cold]+0x27b>

0000000000007379 <ML::checkMaxPoolingLayer(ML::Path const&, int, ML::LayerParams const&, ML::LayerParams const&) [clone .cold]>:
    7379:	48 8b bc 24 50 01 00 	mov    0x150(%rsp),%rdi
    7380:	00 
    7381:	48 39 ef             	cmp    %rbp,%rdi
    7384:	0f 85 e0 00 00 00    	jne    746a <ML::checkMaxPoolingLayer(ML::Path const&, int, ML::LayerParams const&, ML::LayerParams const&) [clone .cold]+0xf1>
    738a:	c5 f8 77             	vzeroupper
    738d:	4c 89 f7             	mov    %r14,%rdi
    7390:	e8 eb f5 01 00       	call   26980 <ML::LayerData::~LayerData()>
    7395:	48 8b 7c 24 40       	mov    0x40(%rsp),%rdi
    739a:	48 8d 44 24 50       	lea    0x50(%rsp),%rax
    739f:	48 39 c7             	cmp    %rax,%rdi
    73a2:	74 05                	je     73a9 <ML::checkMaxPoolingLayer(ML::Path const&, int, ML::LayerParams const&, ML::LayerParams const&) [clone .cold]+0x30>
    73a4:	e8 a7 ce ff ff       	call   4250 <operator delete(void*)@plt>
    73a9:	48 8d 05 98 a4 02 00 	lea    0x2a498(%rip),%rax        # 31848 <vtable for ML::MaxPoolingLayer+0x10>
    73b0:	4c 89 ef             	mov    %r13,%rdi
    73b3:	48 89 84 24 a0 01 00 	mov    %rax,0x1a0(%rsp)
    73ba:	00 
    73bb:	e8 10 f6 01 00       	call   269d0 <ML::Layer::~Layer()>
    73c0:	48 8b 7c 24 20       	mov    0x20(%rsp),%rdi
    73c5:	48 8d 44 24 30       	lea    0x30(%rsp),%rax
    73ca:	48 39 c7             	cmp    %rax,%rdi
    73cd:	74 05                	je     73d4 <ML::checkMaxPoolingLayer(ML::Path const&, int, ML::LayerParams const&, ML::LayerParams const&) [clone .cold]+0x5b>
    73cf:	e8 7c ce ff ff       	call   4250 <operator delete(void*)@plt>
    73d4:	48 89 df             	mov    %rbx,%rdi
    73d7:	e8 84 d0 ff ff       	call   4460 <_Unwind_Resume@plt>
    73dc:	48 8b bc 24 a0 01 00 	mov    0x1a0(%rsp),%rdi
    73e3:	00 
    73e4:	48 8d 84 24 b0 01 00 	lea    0x1b0(%rsp),%rax
    73eb:	00 
    73ec:	48 39 c7             	cmp    %rax,%rdi
    73ef:	75 25                	jne    7416 <ML::checkMaxPoolingLayer(ML::Path const&, int, ML::LayerParams const&, ML::LayerParams const&) [clone .cold]+0x9d>
    73f1:	c5 f8 77             	vzeroupper
    73f4:	48 8b bc 24 50 01 00 	mov    0x150(%rsp),%rdi
    73fb:	00 
    73fc:	48 8d 84 24 60 01 00 	lea    0x160(%rsp),%rax
    7403:	00 
    7404:	48 39 c7             	cmp    %rax,%rdi
    7407:	74 05                	je     740e <ML::checkMaxPoolingLayer(ML::Path const&, int, ML::LayerParams const&, ML::LayerParams const&) [clone .cold]+0x95>
    7409:	e8 42 ce ff ff       	call   4250 <operator delete(void*)@plt>
    740e:	48 89 df             	mov    %rbx,%rdi
    7411:	e8 4a d0 ff ff       	call   4460 <_Unwind_Resume@plt>
    7416:	c5 f8 77             	vzeroupper
    7419:	e8 32 ce ff ff       	call   4250 <operator delete(void*)@plt>
    741e:	eb d4                	jmp    73f4 <ML::checkMaxPoolingLayer(ML::Path const&, int, ML::LayerParams const&, ML::LayerParams const&) [clone .cold]+0x7b>
    7420:	48 8b bc 24 a0 00 00 	mov    0xa0(%rsp),%rdi
    7427:	00 
    7428:	48 39 ef             	cmp    %rbp,%rdi
    742b:	75 4a                	jne    7477 <ML::checkMaxPoolingLayer(ML::Path const&, int, ML::LayerParams const&, ML::LayerParams const&) [clone .cold]+0xfe>
    742d:	c5 f8 77             	vzeroupper
    7430:	48 89 df             	mov    %rbx,%rdi
    7433:	4c 89 e3             	mov    %r12,%rbx
    7436:	e8 45 f5 01 00       	call   26980 <ML::LayerData::~LayerData()>
    743b:	48 8b 7c 24 60       	mov    0x60(%rsp),%rdi
    7440:	48 8d 44 24 70       	lea    0x70(%rsp),%rax
    7445:	48 39 c7             	cmp    %rax,%rdi
    7448:	74 05                	je     744f <ML::checkMaxPoolingLayer(ML::Path const&, int, ML::LayerParams const&, ML::LayerParams const&) [clone .cold]+0xd6>
    744a:	e8 01 ce ff ff       	call   4250 <operator delete(void*)@plt>
    744f:	48 8b bc 24 d0 00 00 	mov    0xd0(%rsp),%rdi
    7456:	00 
    7457:	4c 39 ff             	cmp    %r15,%rdi
    745a:	0f 84 2d ff ff ff    	je     738d <ML::checkMaxPoolingLayer(ML::Path const&, int, ML::LayerParams const&, ML::LayerParams const&) [clone .cold]+0x14>
    7460:	e8 eb cd ff ff       	call   4250 <operator delete(void*)@plt>
    7465:	e9 23 ff ff ff       	jmp    738d <ML::checkMaxPoolingLayer(ML::Path const&, int, ML::LayerParams const&, ML::LayerParams const&) [clone .cold]+0x14>
    746a:	c5 f8 77             	vzeroupper
    746d:	e8 de cd ff ff       	call   4250 <operator delete(void*)@plt>
    7472:	e9 16 ff ff ff       	jmp    738d <ML::checkMaxPoolingLayer(ML::Path const&, int, ML::LayerParams const&, ML::LayerParams const&) [clone .cold]+0x14>
    7477:	c5 f8 77             	vzeroupper
    747a:	e8 d1 cd ff ff       	call   4250 <operator delete(void*)@plt>
    747f:	eb af                	jmp    7430 <ML::checkMaxPoolingLayer(ML::Path const&, int, ML::LayerParams const&, ML::LayerParams const&) [clone .cold]+0xb7>
    7481:	48 8b bc 24 a0 01 00 	mov    0x1a0(%rsp),%rdi
    7488:	00 
    7489:	4c 39 e7             	cmp    %r12,%rdi
    748c:	74 23                	je     74b1 <ML::checkMaxPoolingLayer(ML::Path const&, int, ML::LayerParams const&, ML::LayerParams const&) [clone .cold]+0x138>
    748e:	c5 f8 77             	vzeroupper
    7491:	e8 ba cd ff ff       	call   4250 <operator delete(void*)@plt>
    7496:	48 8b bc 24 50 01 00 	mov    0x150(%rsp),%rdi
    749d:	00 
    749e:	48 39 ef             	cmp    %rbp,%rdi
    74a1:	0f 84 19 ff ff ff    	je     73c0 <ML::checkMaxPoolingLayer(ML::Path const&, int, ML::LayerParams const&, ML::LayerParams const&) [clone .cold]+0x47>
    74a7:	e8 a4 cd ff ff       	call   4250 <operator delete(void*)@plt>
    74ac:	e9 0f ff ff ff       	jmp    73c0 <ML::checkMaxPoolingLayer(ML::Path const&, int, ML::LayerParams const&, ML::LayerParams const&) [clone .cold]+0x47>
    74b1:	c5 f8 77             	vzeroupper
    74b4:	eb e0                	jmp    7496 <ML::checkMaxPoolingLayer(ML::Path const&, int, ML::LayerParams const&, ML::LayerParams const&) [clone .cold]+0x11d>
    74b6:	48 8b bc 24 a0 00 00 	mov    0xa0(%rsp),%rdi
    74bd:	00 
    74be:	48 39 ef             	cmp    %rbp,%rdi
    74c1:	0f 84 ed 00 00 00    	je     75b4 <ML::checkMaxPoolingLayer(ML::Path const&, int, ML::LayerParams const&, ML::LayerParams const&) [clone .cold]+0x23b>
    74c7:	c5 f8 77             	vzeroupper
    74ca:	e8 81 cd ff ff       	call   4250 <operator delete(void*)@plt>
    74cf:	e9 5c ff ff ff       	jmp    7430 <ML::checkMaxPoolingLayer(ML::Path const&, int, ML::LayerParams const&, ML::LayerParams const&) [clone .cold]+0xb7>
    74d4:	48 8b bc 24 a0 00 00 	mov    0xa0(%rsp),%rdi
    74db:	00 
    74dc:	48 39 ef             	cmp    %rbp,%rdi
    74df:	74 2b                	je     750c <ML::checkMaxPoolingLayer(ML::Path const&, int, ML::LayerParams const&, ML::LayerParams const&) [clone .cold]+0x193>
    74e1:	c5 f8 77             	vzeroupper
    74e4:	e8 67 cd ff ff       	call   4250 <operator delete(void*)@plt>
    74e9:	48 8b bc 24 80 00 00 	mov    0x80(%rsp),%rdi
    74f0:	00 
    74f1:	48 8d 84 24 90 00 00 	lea    0x90(%rsp),%rax
    74f8:	00 
    74f9:	48 39 c7             	cmp    %rax,%rdi
    74fc:	0f 84 39 ff ff ff    	je     743b <ML::checkMaxPoolingLayer(ML::Path const&, int, ML::LayerParams const&, ML::LayerParams const&) [clone .cold]+0xc2>
    7502:	e8 49 cd ff ff       	call   4250 <operator delete(void*)@plt>
    7507:	e9 2f ff ff ff       	jmp    743b <ML::checkMaxPoolingLayer(ML::Path const&, int, ML::LayerParams const&, ML::LayerParams const&) [clone .cold]+0xc2>
    750c:	c5 f8 77             	vzeroupper
    750f:	eb d8                	jmp    74e9 <ML::checkMaxPoolingLayer(ML::Path const&, int, ML::LayerParams const&, ML::LayerParams const&) [clone .cold]+0x170>
    7511:	48 8b bc 24 50 01 00 	mov    0x150(%rsp),%rdi
    7518:	00 
    7519:	48 39 ef             	cmp    %rbp,%rdi
    751c:	74 51                	je     756f <ML::checkMaxPoolingLayer(ML::Path const&, int, ML::LayerParams const&, ML::LayerParams const&) [clone .cold]+0x1f6>
    751e:	c5 f8 77             	vzeroupper
    7521:	e8 2a cd ff ff       	call   4250 <operator delete(void*)@plt>
    7526:	e9 6a fe ff ff       	jmp    7395 <ML::checkMaxPoolingLayer(ML::Path const&, int, ML::LayerParams const&, ML::LayerParams const&) [clone .cold]+0x1c>
    752b:	48 8b bc 24 50 01 00 	mov    0x150(%rsp),%rdi
    7532:	00 
    7533:	48 39 ef             	cmp    %rbp,%rdi
    7536:	74 27                	je     755f <ML::checkMaxPoolingLayer(ML::Path const&, int, ML::LayerParams const&, ML::LayerParams const&) [clone .cold]+0x1e6>
    7538:	c5 f8 77             	vzeroupper
    753b:	e8 10 cd ff ff       	call   4250 <operator delete(void*)@plt>
    7540:	e9 48 fe ff ff       	jmp    738d <ML::checkMaxPoolingLayer(ML::Path const&, int, ML::LayerParams const&, ML::LayerParams const&) [clone .cold]+0x14>
    7545:	48 8b bc 24 50 01 00 	mov    0x150(%rsp),%rdi
    754c:	00 
    754d:	48 39 ef             	cmp    %rbp,%rdi
    7550:	74 15                	je     7567 <ML::checkMaxPoolingLayer(ML::Path const&, int, ML::LayerParams const&, ML::LayerParams const&) [clone .cold]+0x1ee>
    7552:	c5 f8 77             	vzeroupper
    7555:	e8 f6 cc ff ff       	call   4250 <operator delete(void*)@plt>
    755a:	e9 2e fe ff ff       	jmp    738d <ML::checkMaxPoolingLayer(ML::Path const&, int, ML::LayerParams const&, ML::LayerParams const&) [clone .cold]+0x14>
    755f:	c5 f8 77             	vzeroupper
    7562:	e9 26 fe ff ff       	jmp    738d <ML::checkMaxPoolingLayer(ML::Path const&, int, ML::LayerParams const&, ML::LayerParams const&) [clone .cold]+0x14>
    7567:	c5 f8 77             	vzeroupper
    756a:	e9 1e fe ff ff       	jmp    738d <ML::checkMaxPoolingLayer(ML::Path const&, int, ML::LayerParams const&, ML::LayerParams const&) [clone .cold]+0x14>
    756f:	c5 f8 77             	vzeroupper
    7572:	e9 1e fe ff ff       	jmp    7395 <ML::checkMaxPoolingLayer(ML::Path const&, int, ML::LayerParams const&, ML::LayerParams const&) [clone .cold]+0x1c>
    7577:	48 8b bc 24 50 01 00 	mov    0x150(%rsp),%rdi
    757e:	00 
    757f:	48 39 ef             	cmp    %rbp,%rdi
    7582:	74 2b                	je     75af <ML::checkMaxPoolingLayer(ML::Path const&, int, ML::LayerParams const&, ML::LayerParams const&) [clone .cold]+0x236>
    7584:	c5 f8 77             	vzeroupper
    7587:	e8 c4 cc ff ff       	call   4250 <operator delete(void*)@plt>
    758c:	48 8b bc 24 a0 00 00 	mov    0xa0(%rsp),%rdi
    7593:	00 
    7594:	48 8d 84 24 b0 00 00 	lea    0xb0(%rsp),%rax
    759b:	00 
    759c:	48 39 c7             	cmp    %rax,%rdi
